ARM GAS  /tmp/ccG3cpni.s 			page 1


   1              		.syntax unified
   2              		.cpu cortex-m4
   3              		.fpu softvfp
   4              		.eabi_attribute 20, 1
   5              		.eabi_attribute 21, 1
   6              		.eabi_attribute 23, 3
   7              		.eabi_attribute 24, 1
   8              		.eabi_attribute 25, 1
   9              		.eabi_attribute 26, 1
  10              		.eabi_attribute 30, 2
  11              		.eabi_attribute 34, 1
  12              		.eabi_attribute 18, 4
  13              		.thumb
  14              		.file	"adc.c"
  15              		.text
  16              	.Ltext0:
  17              		.cfi_sections	.debug_frame
  18              		.section	.text.adcInit,"ax",%progbits
  19              		.align	2
  20              		.p2align 4,,15
  21              		.global	adcInit
  22              		.thumb
  23              		.thumb_func
  24              		.type	adcInit, %function
  25              	adcInit:
  26              	.LFB118:
  27              		.file 1 "../../ChibiOS_2.6.5/os/hal/src/adc.c"
  28              		.loc 1 68 0
  29              		.cfi_startproc
  30              		@ args = 0, pretend = 0, frame = 0
  31              		@ frame_needed = 0, uses_anonymous_args = 0
  32              		@ link register save eliminated.
  33              		.loc 1 70 0
  34 0000 FFF7FEBF 		b	adc_lld_init
  35              	.LVL0:
  36              		.cfi_endproc
  37              	.LFE118:
  38              		.size	adcInit, .-adcInit
  39              		.section	.text.adcObjectInit,"ax",%progbits
  40              		.align	2
  41              		.p2align 4,,15
  42              		.global	adcObjectInit
  43              		.thumb
  44              		.thumb_func
  45              		.type	adcObjectInit, %function
  46              	adcObjectInit:
  47              	.LFB119:
  48              		.loc 1 80 0
  49              		.cfi_startproc
  50              		@ args = 0, pretend = 0, frame = 0
  51              		@ frame_needed = 0, uses_anonymous_args = 0
  52              		@ link register save eliminated.
  53              	.LVL1:
  54              		.loc 1 83 0
  55 0000 0023     		movs	r3, #0
  56              		.loc 1 82 0
  57 0002 0122     		movs	r2, #1
ARM GAS  /tmp/ccG3cpni.s 			page 2


  58 0004 0270     		strb	r2, [r0]
  59              		.loc 1 83 0
  60 0006 4360     		str	r3, [r0, #4]
  61              		.loc 1 84 0
  62 0008 8360     		str	r3, [r0, #8]
  63              		.loc 1 85 0
  64 000a C360     		str	r3, [r0, #12]
  65              		.loc 1 86 0
  66 000c 0361     		str	r3, [r0, #16]
  67              		.loc 1 88 0
  68 000e 4361     		str	r3, [r0, #20]
  69              		.loc 1 92 0
  70 0010 1830     		adds	r0, r0, #24
  71              	.LVL2:
  72 0012 FFF7FEBF 		b	chMtxInit
  73              	.LVL3:
  74              		.cfi_endproc
  75              	.LFE119:
  76              		.size	adcObjectInit, .-adcObjectInit
  77 0016 00BF     		.section	.text.adcStart,"ax",%progbits
  78              		.align	2
  79              		.p2align 4,,15
  80              		.global	adcStart
  81              		.thumb
  82              		.thumb_func
  83              		.type	adcStart, %function
  84              	adcStart:
  85              	.LFB120:
  86              		.loc 1 111 0
  87              		.cfi_startproc
  88              		@ args = 0, pretend = 0, frame = 0
  89              		@ frame_needed = 0, uses_anonymous_args = 0
  90              	.LVL4:
  91 0000 38B5     		push	{r3, r4, r5, lr}
  92              		.cfi_def_cfa_offset 16
  93              		.cfi_offset 3, -16
  94              		.cfi_offset 4, -12
  95              		.cfi_offset 5, -8
  96              		.cfi_offset 14, -4
  97              		.loc 1 111 0
  98 0002 0D46     		mov	r5, r1
  99              		.loc 1 113 0
 100 0004 0446     		mov	r4, r0
 101 0006 B8B1     		cbz	r0, .L8
 102              	.LVL5:
 103              	.L4:
 104              	.LBB2:
 105              		.loc 1 115 0
 106 0008 2023     		movs	r3, #32
 107              	@ 115 "../../ChibiOS_2.6.5/os/hal/src/adc.c" 1
 108 000a 83F31188 		msr     BASEPRI, r3
 109              	@ 0 "" 2
 110              		.thumb
 111              	.LBE2:
 112 000e FFF7FEFF 		bl	dbg_check_lock
 113              	.LVL6:
 114              		.loc 1 116 0
ARM GAS  /tmp/ccG3cpni.s 			page 3


 115 0012 2378     		ldrb	r3, [r4]	@ zero_extendqisi2
 116 0014 013B     		subs	r3, r3, #1
 117 0016 012B     		cmp	r3, #1
 118 0018 02D9     		bls	.L5
 119              		.loc 1 116 0 is_stmt 0 discriminator 1
 120 001a 0948     		ldr	r0, .L9
 121 001c FFF7FEFF 		bl	chDbgPanic
 122              	.LVL7:
 123              	.L5:
 124              		.loc 1 119 0 is_stmt 1
 125 0020 2046     		mov	r0, r4
 126              		.loc 1 118 0
 127 0022 6560     		str	r5, [r4, #4]
 128              		.loc 1 119 0
 129 0024 FFF7FEFF 		bl	adc_lld_start
 130              	.LVL8:
 131              		.loc 1 120 0
 132 0028 0223     		movs	r3, #2
 133 002a 2370     		strb	r3, [r4]
 134              		.loc 1 121 0
 135 002c FFF7FEFF 		bl	dbg_check_unlock
 136              	.LVL9:
 137              	.LBB3:
 138 0030 0023     		movs	r3, #0
 139              	@ 121 "../../ChibiOS_2.6.5/os/hal/src/adc.c" 1
 140 0032 83F31188 		msr     BASEPRI, r3
 141              	@ 0 "" 2
 142              		.thumb
 143 0036 38BD     		pop	{r3, r4, r5, pc}
 144              	.LVL10:
 145              	.L8:
 146              	.LBE3:
 147              		.loc 1 113 0 discriminator 1
 148 0038 0248     		ldr	r0, .L9+4
 149              	.LVL11:
 150 003a FFF7FEFF 		bl	chDbgPanic
 151              	.LVL12:
 152 003e E3E7     		b	.L4
 153              	.L10:
 154              		.align	2
 155              	.L9:
 156 0040 10000000 		.word	.LC1
 157 0044 00000000 		.word	.LC0
 158              		.cfi_endproc
 159              	.LFE120:
 160              		.size	adcStart, .-adcStart
 161              		.section	.text.adcStop,"ax",%progbits
 162              		.align	2
 163              		.p2align 4,,15
 164              		.global	adcStop
 165              		.thumb
 166              		.thumb_func
 167              		.type	adcStop, %function
 168              	adcStop:
 169              	.LFB121:
 170              		.loc 1 131 0
 171              		.cfi_startproc
ARM GAS  /tmp/ccG3cpni.s 			page 4


 172              		@ args = 0, pretend = 0, frame = 0
 173              		@ frame_needed = 0, uses_anonymous_args = 0
 174              	.LVL13:
 175 0000 10B5     		push	{r4, lr}
 176              		.cfi_def_cfa_offset 8
 177              		.cfi_offset 4, -8
 178              		.cfi_offset 14, -4
 179              		.loc 1 133 0
 180 0002 0446     		mov	r4, r0
 181 0004 B0B1     		cbz	r0, .L15
 182              	.LVL14:
 183              	.L12:
 184              	.LBB4:
 185              		.loc 1 135 0
 186 0006 2023     		movs	r3, #32
 187              	@ 135 "../../ChibiOS_2.6.5/os/hal/src/adc.c" 1
 188 0008 83F31188 		msr     BASEPRI, r3
 189              	@ 0 "" 2
 190              		.thumb
 191              	.LBE4:
 192 000c FFF7FEFF 		bl	dbg_check_lock
 193              	.LVL15:
 194              		.loc 1 136 0
 195 0010 2378     		ldrb	r3, [r4]	@ zero_extendqisi2
 196 0012 013B     		subs	r3, r3, #1
 197 0014 012B     		cmp	r3, #1
 198 0016 02D9     		bls	.L13
 199              		.loc 1 136 0 is_stmt 0 discriminator 1
 200 0018 0848     		ldr	r0, .L16
 201 001a FFF7FEFF 		bl	chDbgPanic
 202              	.LVL16:
 203              	.L13:
 204              		.loc 1 138 0 is_stmt 1
 205 001e 2046     		mov	r0, r4
 206 0020 FFF7FEFF 		bl	adc_lld_stop
 207              	.LVL17:
 208              		.loc 1 139 0
 209 0024 0123     		movs	r3, #1
 210 0026 2370     		strb	r3, [r4]
 211              		.loc 1 140 0
 212 0028 FFF7FEFF 		bl	dbg_check_unlock
 213              	.LVL18:
 214              	.LBB5:
 215 002c 0023     		movs	r3, #0
 216              	@ 140 "../../ChibiOS_2.6.5/os/hal/src/adc.c" 1
 217 002e 83F31188 		msr     BASEPRI, r3
 218              	@ 0 "" 2
 219              		.thumb
 220 0032 10BD     		pop	{r4, pc}
 221              	.LVL19:
 222              	.L15:
 223              	.LBE5:
 224              		.loc 1 133 0 discriminator 1
 225 0034 0248     		ldr	r0, .L16+4
 226              	.LVL20:
 227 0036 FFF7FEFF 		bl	chDbgPanic
 228              	.LVL21:
ARM GAS  /tmp/ccG3cpni.s 			page 5


 229 003a E4E7     		b	.L12
 230              	.L17:
 231              		.align	2
 232              	.L16:
 233 003c 2C000000 		.word	.LC3
 234 0040 20000000 		.word	.LC2
 235              		.cfi_endproc
 236              	.LFE121:
 237              		.size	adcStop, .-adcStop
 238              		.section	.text.adcStartConversionI,"ax",%progbits
 239              		.align	2
 240              		.p2align 4,,15
 241              		.global	adcStartConversionI
 242              		.thumb
 243              		.thumb_func
 244              		.type	adcStartConversionI, %function
 245              	adcStartConversionI:
 246              	.LFB123:
 247              		.loc 1 190 0
 248              		.cfi_startproc
 249              		@ args = 0, pretend = 0, frame = 0
 250              		@ frame_needed = 0, uses_anonymous_args = 0
 251              	.LVL22:
 252 0000 F8B5     		push	{r3, r4, r5, r6, r7, lr}
 253              		.cfi_def_cfa_offset 24
 254              		.cfi_offset 3, -24
 255              		.cfi_offset 4, -20
 256              		.cfi_offset 5, -16
 257              		.cfi_offset 6, -12
 258              		.cfi_offset 7, -8
 259              		.cfi_offset 14, -4
 260              		.loc 1 190 0
 261 0002 0446     		mov	r4, r0
 262 0004 0E46     		mov	r6, r1
 263 0006 1746     		mov	r7, r2
 264 0008 1D46     		mov	r5, r3
 265              		.loc 1 192 0
 266 000a FFF7FEFF 		bl	chDbgCheckClassI
 267              	.LVL23:
 268              		.loc 1 193 0
 269 000e C4B1     		cbz	r4, .L19
 270              		.loc 1 193 0 is_stmt 0 discriminator 2
 271 0010 BEB1     		cbz	r6, .L19
 272              		.loc 1 193 0 discriminator 4
 273 0012 B7B1     		cbz	r7, .L19
 274              		.loc 1 193 0 discriminator 6
 275 0014 012D     		cmp	r5, #1
 276 0016 01D0     		beq	.L20
 277              		.loc 1 193 0 discriminator 7
 278 0018 EB07     		lsls	r3, r5, #31
 279 001a 12D4     		bmi	.L19
 280              	.L20:
 281              		.loc 1 196 0 is_stmt 1
 282 001c 2378     		ldrb	r3, [r4]	@ zero_extendqisi2
 283 001e 022B     		cmp	r3, #2
 284 0020 05D0     		beq	.L21
 285              		.loc 1 196 0 is_stmt 0 discriminator 1
ARM GAS  /tmp/ccG3cpni.s 			page 6


 286 0022 043B     		subs	r3, r3, #4
 287 0024 012B     		cmp	r3, #1
 288 0026 02D9     		bls	.L21
 289              		.loc 1 196 0 discriminator 3
 290 0028 0848     		ldr	r0, .L41
 291 002a FFF7FEFF 		bl	chDbgPanic
 292              	.LVL24:
 293              	.L21:
 294              		.loc 1 204 0 is_stmt 1
 295 002e 0323     		movs	r3, #3
 296              		.loc 1 201 0
 297 0030 A760     		str	r7, [r4, #8]
 298              		.loc 1 202 0
 299 0032 E560     		str	r5, [r4, #12]
 300              		.loc 1 203 0
 301 0034 2661     		str	r6, [r4, #16]
 302              		.loc 1 204 0
 303 0036 2370     		strb	r3, [r4]
 304              		.loc 1 205 0
 305 0038 2046     		mov	r0, r4
 306              		.loc 1 206 0
 307 003a BDE8F840 		pop	{r3, r4, r5, r6, r7, lr}
 308              		.cfi_remember_state
 309              		.cfi_restore 14
 310              		.cfi_restore 7
 311              		.cfi_restore 6
 312              		.cfi_restore 5
 313              		.cfi_restore 4
 314              		.cfi_restore 3
 315              		.cfi_def_cfa_offset 0
 316              	.LVL25:
 317              		.loc 1 205 0
 318 003e FFF7FEBF 		b	adc_lld_start_conversion
 319              	.LVL26:
 320              	.L19:
 321              		.cfi_restore_state
 322              		.loc 1 193 0 discriminator 8
 323 0042 0348     		ldr	r0, .L41+4
 324 0044 FFF7FEFF 		bl	chDbgPanic
 325              	.LVL27:
 326 0048 E8E7     		b	.L20
 327              	.L42:
 328 004a 00BF     		.align	2
 329              	.L41:
 330 004c 54000000 		.word	.LC5
 331 0050 3C000000 		.word	.LC4
 332              		.cfi_endproc
 333              	.LFE123:
 334              		.size	adcStartConversionI, .-adcStartConversionI
 335              		.section	.text.adcStartConversion,"ax",%progbits
 336              		.align	2
 337              		.p2align 4,,15
 338              		.global	adcStartConversion
 339              		.thumb
 340              		.thumb_func
 341              		.type	adcStartConversion, %function
 342              	adcStartConversion:
ARM GAS  /tmp/ccG3cpni.s 			page 7


 343              	.LFB122:
 344              		.loc 1 162 0
 345              		.cfi_startproc
 346              		@ args = 0, pretend = 0, frame = 0
 347              		@ frame_needed = 0, uses_anonymous_args = 0
 348              	.LVL28:
 349 0000 F8B5     		push	{r3, r4, r5, r6, r7, lr}
 350              		.cfi_def_cfa_offset 24
 351              		.cfi_offset 3, -24
 352              		.cfi_offset 4, -20
 353              		.cfi_offset 5, -16
 354              		.cfi_offset 6, -12
 355              		.cfi_offset 7, -8
 356              		.cfi_offset 14, -4
 357              		.loc 1 162 0
 358 0002 1C46     		mov	r4, r3
 359 0004 0746     		mov	r7, r0
 360 0006 0E46     		mov	r6, r1
 361 0008 1546     		mov	r5, r2
 362              	.LBB6:
 363              		.loc 1 164 0
 364 000a 2023     		movs	r3, #32
 365              	.LVL29:
 366              	@ 164 "../../ChibiOS_2.6.5/os/hal/src/adc.c" 1
 367 000c 83F31188 		msr     BASEPRI, r3
 368              	@ 0 "" 2
 369              		.thumb
 370              	.LBE6:
 371 0010 FFF7FEFF 		bl	dbg_check_lock
 372              	.LVL30:
 373              		.loc 1 165 0
 374 0014 2346     		mov	r3, r4
 375 0016 3846     		mov	r0, r7
 376 0018 3146     		mov	r1, r6
 377 001a 2A46     		mov	r2, r5
 378 001c FFF7FEFF 		bl	adcStartConversionI
 379              	.LVL31:
 380              		.loc 1 166 0
 381 0020 FFF7FEFF 		bl	dbg_check_unlock
 382              	.LVL32:
 383              	.LBB7:
 384 0024 0023     		movs	r3, #0
 385              	@ 166 "../../ChibiOS_2.6.5/os/hal/src/adc.c" 1
 386 0026 83F31188 		msr     BASEPRI, r3
 387              	@ 0 "" 2
 388              		.thumb
 389 002a F8BD     		pop	{r3, r4, r5, r6, r7, pc}
 390              	.LBE7:
 391              		.cfi_endproc
 392              	.LFE122:
 393              		.size	adcStartConversion, .-adcStartConversion
 394              		.section	.text.adcStopConversion,"ax",%progbits
 395              		.align	2
 396              		.p2align 4,,15
 397              		.global	adcStopConversion
 398              		.thumb
 399              		.thumb_func
ARM GAS  /tmp/ccG3cpni.s 			page 8


 400              		.type	adcStopConversion, %function
 401              	adcStopConversion:
 402              	.LFB124:
 403              		.loc 1 218 0
 404              		.cfi_startproc
 405              		@ args = 0, pretend = 0, frame = 0
 406              		@ frame_needed = 0, uses_anonymous_args = 0
 407              	.LVL33:
 408 0000 10B5     		push	{r4, lr}
 409              		.cfi_def_cfa_offset 8
 410              		.cfi_offset 4, -8
 411              		.cfi_offset 14, -4
 412              		.loc 1 220 0
 413 0002 0446     		mov	r4, r0
 414 0004 10B3     		cbz	r0, .L55
 415              	.LVL34:
 416              	.L46:
 417              	.LBB8:
 418              		.loc 1 222 0
 419 0006 2023     		movs	r3, #32
 420              	@ 222 "../../ChibiOS_2.6.5/os/hal/src/adc.c" 1
 421 0008 83F31188 		msr     BASEPRI, r3
 422              	@ 0 "" 2
 423              		.thumb
 424              	.LBE8:
 425 000c FFF7FEFF 		bl	dbg_check_lock
 426              	.LVL35:
 427              		.loc 1 223 0
 428 0010 2378     		ldrb	r3, [r4]	@ zero_extendqisi2
 429 0012 9A1E     		subs	r2, r3, #2
 430 0014 012A     		cmp	r2, #1
 431 0016 03D9     		bls	.L47
 432              		.loc 1 223 0 is_stmt 0 discriminator 1
 433 0018 0E48     		ldr	r0, .L56
 434 001a FFF7FEFF 		bl	chDbgPanic
 435              	.LVL36:
 436 001e 2378     		ldrb	r3, [r4]	@ zero_extendqisi2
 437              	.L47:
 438              		.loc 1 226 0 is_stmt 1
 439 0020 022B     		cmp	r3, #2
 440 0022 0DD0     		beq	.L49
 441              		.loc 1 227 0
 442 0024 2046     		mov	r0, r4
 443 0026 FFF7FEFF 		bl	adc_lld_stop_conversion
 444              	.LVL37:
 445              		.loc 1 230 0
 446 002a 6069     		ldr	r0, [r4, #20]
 447              		.loc 1 228 0
 448 002c 0023     		movs	r3, #0
 449              		.loc 1 229 0
 450 002e 0222     		movs	r2, #2
 451              		.loc 1 228 0
 452 0030 2361     		str	r3, [r4, #16]
 453              		.loc 1 229 0
 454 0032 2270     		strb	r2, [r4]
 455              		.loc 1 230 0
 456 0034 20B1     		cbz	r0, .L49
ARM GAS  /tmp/ccG3cpni.s 			page 9


 457              	.LVL38:
 458              	.LBB9:
 459              		.loc 1 230 0 is_stmt 0 discriminator 1
 460 0036 6361     		str	r3, [r4, #20]
 461 0038 6FF00101 		mvn	r1, #1
 462 003c FFF7FEFF 		bl	chSchWakeupS
 463              	.LVL39:
 464              	.L49:
 465              	.LBE9:
 466              		.loc 1 232 0 is_stmt 1
 467 0040 FFF7FEFF 		bl	dbg_check_unlock
 468              	.LVL40:
 469              	.LBB10:
 470 0044 0023     		movs	r3, #0
 471              	@ 232 "../../ChibiOS_2.6.5/os/hal/src/adc.c" 1
 472 0046 83F31188 		msr     BASEPRI, r3
 473              	@ 0 "" 2
 474              		.thumb
 475 004a 10BD     		pop	{r4, pc}
 476              	.LVL41:
 477              	.L55:
 478              	.LBE10:
 479              		.loc 1 220 0 discriminator 1
 480 004c 0248     		ldr	r0, .L56+4
 481              	.LVL42:
 482 004e FFF7FEFF 		bl	chDbgPanic
 483              	.LVL43:
 484 0052 D8E7     		b	.L46
 485              	.L57:
 486              		.align	2
 487              	.L56:
 488 0054 88000000 		.word	.LC7
 489 0058 70000000 		.word	.LC6
 490              		.cfi_endproc
 491              	.LFE124:
 492              		.size	adcStopConversion, .-adcStopConversion
 493              		.section	.text.adcStopConversionI,"ax",%progbits
 494              		.align	2
 495              		.p2align 4,,15
 496              		.global	adcStopConversionI
 497              		.thumb
 498              		.thumb_func
 499              		.type	adcStopConversionI, %function
 500              	adcStopConversionI:
 501              	.LFB125:
 502              		.loc 1 245 0
 503              		.cfi_startproc
 504              		@ args = 0, pretend = 0, frame = 0
 505              		@ frame_needed = 0, uses_anonymous_args = 0
 506              	.LVL44:
 507 0000 10B5     		push	{r4, lr}
 508              		.cfi_def_cfa_offset 8
 509              		.cfi_offset 4, -8
 510              		.cfi_offset 14, -4
 511              		.loc 1 245 0
 512 0002 0446     		mov	r4, r0
 513              		.loc 1 247 0
ARM GAS  /tmp/ccG3cpni.s 			page 10


 514 0004 FFF7FEFF 		bl	chDbgCheckClassI
 515              	.LVL45:
 516              		.loc 1 248 0
 517 0008 ECB1     		cbz	r4, .L68
 518              	.L59:
 519              		.loc 1 249 0
 520 000a 2378     		ldrb	r3, [r4]	@ zero_extendqisi2
 521 000c 9A1E     		subs	r2, r3, #2
 522 000e 022A     		cmp	r2, #2
 523 0010 14D8     		bhi	.L69
 524              	.L60:
 525              		.loc 1 254 0
 526 0012 022B     		cmp	r3, #2
 527 0014 11D0     		beq	.L58
 528              		.loc 1 255 0
 529 0016 2046     		mov	r0, r4
 530 0018 FFF7FEFF 		bl	adc_lld_stop_conversion
 531              	.LVL46:
 532              		.loc 1 258 0
 533 001c 6369     		ldr	r3, [r4, #20]
 534              		.loc 1 256 0
 535 001e 0022     		movs	r2, #0
 536              		.loc 1 257 0
 537 0020 0221     		movs	r1, #2
 538              		.loc 1 256 0
 539 0022 2261     		str	r2, [r4, #16]
 540              		.loc 1 257 0
 541 0024 2170     		strb	r1, [r4]
 542              		.loc 1 258 0
 543 0026 43B1     		cbz	r3, .L58
 544              	.LVL47:
 545              	.LBB11:
 546              		.loc 1 258 0 is_stmt 0 discriminator 1
 547 0028 6FF00101 		mvn	r1, #1
 548 002c 6261     		str	r2, [r4, #20]
 549 002e 9962     		str	r1, [r3, #40]
 550 0030 1846     		mov	r0, r3
 551              	.LBE11:
 552              		.loc 1 260 0 is_stmt 1 discriminator 1
 553 0032 BDE81040 		pop	{r4, lr}
 554              		.cfi_remember_state
 555              		.cfi_restore 14
 556              		.cfi_restore 4
 557              		.cfi_def_cfa_offset 0
 558              	.LVL48:
 559              	.LBB12:
 560              		.loc 1 258 0 discriminator 1
 561 0036 FFF7FEBF 		b	chSchReadyI
 562              	.LVL49:
 563              	.L58:
 564              		.cfi_restore_state
 565 003a 10BD     		pop	{r4, pc}
 566              	.LVL50:
 567              	.L69:
 568              	.LBE12:
 569              		.loc 1 249 0 discriminator 1
 570 003c 0448     		ldr	r0, .L70
ARM GAS  /tmp/ccG3cpni.s 			page 11


 571 003e FFF7FEFF 		bl	chDbgPanic
 572              	.LVL51:
 573 0042 2378     		ldrb	r3, [r4]	@ zero_extendqisi2
 574 0044 E5E7     		b	.L60
 575              	.L68:
 576              		.loc 1 248 0 discriminator 1
 577 0046 0348     		ldr	r0, .L70+4
 578 0048 FFF7FEFF 		bl	chDbgPanic
 579              	.LVL52:
 580 004c DDE7     		b	.L59
 581              	.L71:
 582 004e 00BF     		.align	2
 583              	.L70:
 584 0050 B8000000 		.word	.LC9
 585 0054 A0000000 		.word	.LC8
 586              		.cfi_endproc
 587              	.LFE125:
 588              		.size	adcStopConversionI, .-adcStopConversionI
 589              		.section	.text.adcConvert,"ax",%progbits
 590              		.align	2
 591              		.p2align 4,,15
 592              		.global	adcConvert
 593              		.thumb
 594              		.thumb_func
 595              		.type	adcConvert, %function
 596              	adcConvert:
 597              	.LFB126:
 598              		.loc 1 289 0
 599              		.cfi_startproc
 600              		@ args = 0, pretend = 0, frame = 0
 601              		@ frame_needed = 0, uses_anonymous_args = 0
 602              	.LVL53:
 603 0000 2DE9F041 		push	{r4, r5, r6, r7, r8, lr}
 604              		.cfi_def_cfa_offset 24
 605              		.cfi_offset 4, -24
 606              		.cfi_offset 5, -20
 607              		.cfi_offset 6, -16
 608              		.cfi_offset 7, -12
 609              		.cfi_offset 8, -8
 610              		.cfi_offset 14, -4
 611              		.loc 1 289 0
 612 0004 1E46     		mov	r6, r3
 613 0006 0446     		mov	r4, r0
 614 0008 8846     		mov	r8, r1
 615 000a 1746     		mov	r7, r2
 616              	.LBB13:
 617              		.loc 1 292 0
 618 000c 2023     		movs	r3, #32
 619              	.LVL54:
 620              	@ 292 "../../ChibiOS_2.6.5/os/hal/src/adc.c" 1
 621 000e 83F31188 		msr     BASEPRI, r3
 622              	@ 0 "" 2
 623              		.thumb
 624              	.LBE13:
 625 0012 FFF7FEFF 		bl	dbg_check_lock
 626              	.LVL55:
 627              		.loc 1 293 0
ARM GAS  /tmp/ccG3cpni.s 			page 12


 628 0016 6369     		ldr	r3, [r4, #20]
 629 0018 13B1     		cbz	r3, .L73
 630              		.loc 1 293 0 is_stmt 0 discriminator 1
 631 001a 0C48     		ldr	r0, .L78
 632 001c FFF7FEFF 		bl	chDbgPanic
 633              	.LVL56:
 634              	.L73:
 635              		.loc 1 295 0 is_stmt 1
 636 0020 0B4D     		ldr	r5, .L78+4
 637              		.loc 1 294 0
 638 0022 4146     		mov	r1, r8
 639 0024 3A46     		mov	r2, r7
 640 0026 3346     		mov	r3, r6
 641 0028 2046     		mov	r0, r4
 642 002a FFF7FEFF 		bl	adcStartConversionI
 643              	.LVL57:
 644              		.loc 1 295 0
 645 002e AB69     		ldr	r3, [r5, #24]
 646 0030 6361     		str	r3, [r4, #20]
 647              		.loc 1 296 0
 648 0032 0220     		movs	r0, #2
 649 0034 FFF7FEFF 		bl	chSchGoSleepS
 650              	.LVL58:
 651              		.loc 1 297 0
 652 0038 AB69     		ldr	r3, [r5, #24]
 653 003a 9C6A     		ldr	r4, [r3, #40]
 654              	.LVL59:
 655              		.loc 1 298 0
 656 003c FFF7FEFF 		bl	dbg_check_unlock
 657              	.LVL60:
 658              	.LBB14:
 659 0040 0023     		movs	r3, #0
 660              	@ 298 "../../ChibiOS_2.6.5/os/hal/src/adc.c" 1
 661 0042 83F31188 		msr     BASEPRI, r3
 662              	@ 0 "" 2
 663              		.thumb
 664              	.LBE14:
 665              		.loc 1 300 0
 666 0046 2046     		mov	r0, r4
 667 0048 BDE8F081 		pop	{r4, r5, r6, r7, r8, pc}
 668              	.LVL61:
 669              	.L79:
 670              		.align	2
 671              	.L78:
 672 004c D4000000 		.word	.LC10
 673 0050 00000000 		.word	rlist
 674              		.cfi_endproc
 675              	.LFE126:
 676              		.size	adcConvert, .-adcConvert
 677              		.section	.text.adcAcquireBus,"ax",%progbits
 678              		.align	2
 679              		.p2align 4,,15
 680              		.global	adcAcquireBus
 681              		.thumb
 682              		.thumb_func
 683              		.type	adcAcquireBus, %function
 684              	adcAcquireBus:
ARM GAS  /tmp/ccG3cpni.s 			page 13


 685              	.LFB127:
 686              		.loc 1 315 0
 687              		.cfi_startproc
 688              		@ args = 0, pretend = 0, frame = 0
 689              		@ frame_needed = 0, uses_anonymous_args = 0
 690              	.LVL62:
 691 0000 10B5     		push	{r4, lr}
 692              		.cfi_def_cfa_offset 8
 693              		.cfi_offset 4, -8
 694              		.cfi_offset 14, -4
 695              		.loc 1 317 0
 696 0002 0446     		mov	r4, r0
 697 0004 28B1     		cbz	r0, .L83
 698              		.loc 1 320 0
 699 0006 04F11800 		add	r0, r4, #24
 700              	.LVL63:
 701              		.loc 1 324 0
 702 000a BDE81040 		pop	{r4, lr}
 703              		.cfi_remember_state
 704              		.cfi_restore 14
 705              		.cfi_restore 4
 706              		.cfi_def_cfa_offset 0
 707              	.LVL64:
 708              		.loc 1 320 0
 709 000e FFF7FEBF 		b	chMtxLock
 710              	.LVL65:
 711              	.L83:
 712              		.cfi_restore_state
 713              		.loc 1 317 0 discriminator 1
 714 0012 0448     		ldr	r0, .L84
 715              	.LVL66:
 716 0014 FFF7FEFF 		bl	chDbgPanic
 717              	.LVL67:
 718              		.loc 1 320 0 discriminator 1
 719 0018 04F11800 		add	r0, r4, #24
 720              		.loc 1 324 0 discriminator 1
 721 001c BDE81040 		pop	{r4, lr}
 722              		.cfi_restore 4
 723              		.cfi_restore 14
 724              		.cfi_def_cfa_offset 0
 725              	.LVL68:
 726              		.loc 1 320 0 discriminator 1
 727 0020 FFF7FEBF 		b	chMtxLock
 728              	.LVL69:
 729              	.L85:
 730              		.align	2
 731              	.L84:
 732 0024 E8000000 		.word	.LC11
 733              		.cfi_endproc
 734              	.LFE127:
 735              		.size	adcAcquireBus, .-adcAcquireBus
 736              		.section	.text.adcReleaseBus,"ax",%progbits
 737              		.align	2
 738              		.p2align 4,,15
 739              		.global	adcReleaseBus
 740              		.thumb
 741              		.thumb_func
ARM GAS  /tmp/ccG3cpni.s 			page 14


 742              		.type	adcReleaseBus, %function
 743              	adcReleaseBus:
 744              	.LFB128:
 745              		.loc 1 335 0
 746              		.cfi_startproc
 747              		@ args = 0, pretend = 0, frame = 0
 748              		@ frame_needed = 0, uses_anonymous_args = 0
 749              	.LVL70:
 750              		.loc 1 337 0
 751 0000 08B1     		cbz	r0, .L90
 752              		.loc 1 341 0
 753 0002 FFF7FEBF 		b	chMtxUnlock
 754              	.LVL71:
 755              	.L90:
 756              		.loc 1 335 0 discriminator 1
 757 0006 08B5     		push	{r3, lr}
 758              		.cfi_def_cfa_offset 8
 759              		.cfi_offset 3, -8
 760              		.cfi_offset 14, -4
 761              		.loc 1 337 0 discriminator 1
 762 0008 0348     		ldr	r0, .L91
 763              	.LVL72:
 764 000a FFF7FEFF 		bl	chDbgPanic
 765              	.LVL73:
 766              		.loc 1 345 0 discriminator 1
 767 000e BDE80840 		pop	{r3, lr}
 768              		.cfi_restore 14
 769              		.cfi_restore 3
 770              		.cfi_def_cfa_offset 0
 771              		.loc 1 341 0 discriminator 1
 772 0012 FFF7FEBF 		b	chMtxUnlock
 773              	.LVL74:
 774              	.L92:
 775 0016 00BF     		.align	2
 776              	.L91:
 777 0018 FC000000 		.word	.LC12
 778              		.cfi_endproc
 779              	.LFE128:
 780              		.size	adcReleaseBus, .-adcReleaseBus
 781              		.section	.rodata.str1.4,"aMS",%progbits,1
 782              		.align	2
 783              	.LC0:
 784 0000 22616463 		.ascii	"\"adcStart\"()\000"
 784      53746172 
 784      74222829 
 784      00
 785 000d 000000   		.space	3
 786              	.LC1:
 787 0010 61646353 		.ascii	"adcStart(), #1\000"
 787      74617274 
 787      28292C20 
 787      233100
 788 001f 00       		.space	1
 789              	.LC2:
 790 0020 22616463 		.ascii	"\"adcStop\"()\000"
 790      53746F70 
 790      22282900 
ARM GAS  /tmp/ccG3cpni.s 			page 15


 791              	.LC3:
 792 002c 61646353 		.ascii	"adcStop(), #1\000"
 792      746F7028 
 792      292C2023 
 792      3100
 793 003a 0000     		.space	2
 794              	.LC4:
 795 003c 22616463 		.ascii	"\"adcStartConversionI\"()\000"
 795      53746172 
 795      74436F6E 
 795      76657273 
 795      696F6E49 
 796              	.LC5:
 797 0054 61646353 		.ascii	"adcStartConversionI(), #1\000"
 797      74617274 
 797      436F6E76 
 797      65727369 
 797      6F6E4928 
 798 006e 0000     		.space	2
 799              	.LC6:
 800 0070 22616463 		.ascii	"\"adcStopConversion\"()\000"
 800      53746F70 
 800      436F6E76 
 800      65727369 
 800      6F6E2228 
 801 0086 0000     		.space	2
 802              	.LC7:
 803 0088 61646353 		.ascii	"adcStopConversion(), #1\000"
 803      746F7043 
 803      6F6E7665 
 803      7273696F 
 803      6E28292C 
 804              	.LC8:
 805 00a0 22616463 		.ascii	"\"adcStopConversionI\"()\000"
 805      53746F70 
 805      436F6E76 
 805      65727369 
 805      6F6E4922 
 806 00b7 00       		.space	1
 807              	.LC9:
 808 00b8 61646353 		.ascii	"adcStopConversionI(), #1\000"
 808      746F7043 
 808      6F6E7665 
 808      7273696F 
 808      6E492829 
 809 00d1 000000   		.space	3
 810              	.LC10:
 811 00d4 61646343 		.ascii	"adcConvert(), #1\000"
 811      6F6E7665 
 811      72742829 
 811      2C202331 
 811      00
 812 00e5 000000   		.space	3
 813              	.LC11:
 814 00e8 22616463 		.ascii	"\"adcAcquireBus\"()\000"
 814      41637175 
 814      69726542 
ARM GAS  /tmp/ccG3cpni.s 			page 16


 814      75732228 
 814      2900
 815 00fa 0000     		.space	2
 816              	.LC12:
 817 00fc 22616463 		.ascii	"\"adcReleaseBus\"()\000"
 817      52656C65 
 817      61736542 
 817      75732228 
 817      2900
 818              		.text
 819              	.Letext0:
 820              		.file 2 "/usr/lib/gcc/arm-none-eabi/4.9.3/include/stddef.h"
 821              		.file 3 "/usr/include/newlib/machine/_default_types.h"
 822              		.file 4 "/usr/include/newlib/sys/_stdint.h"
 823              		.file 5 "../../ChibiOS_2.6.5/os/ports/GCC/ARMCMx/chtypes.h"
 824              		.file 6 "../../ChibiOS_2.6.5/os/kernel/include/chlists.h"
 825              		.file 7 "../../ChibiOS_2.6.5/os/kernel/include/chthreads.h"
 826              		.file 8 "../../ChibiOS_2.6.5/os/ports/GCC/ARMCMx/chcore_v7m.h"
 827              		.file 9 "../../ChibiOS_2.6.5/os/kernel/include/chschd.h"
 828              		.file 10 "../../ChibiOS_2.6.5/os/kernel/include/chmtx.h"
 829              		.file 11 "../../ChibiOS_2.6.5/os/hal/platforms/STM32F4xx/stm32f4xx.h"
 830              		.file 12 "../../ChibiOS_2.6.5/os/hal/platforms/STM32F4xx/stm32_dma.h"
 831              		.file 13 "../../ChibiOS_2.6.5/os/hal/include/adc.h"
 832              		.file 14 "../../ChibiOS_2.6.5/os/hal/platforms/STM32F4xx/adc_lld.h"
 833              		.file 15 "../../ChibiOS_2.6.5/os/ports/common/ARMCMx/CMSIS/include/core_cm4.h"
 834              		.file 16 "../../ChibiOS_2.6.5/os/kernel/include/chdebug.h"