ARM GAS  /tmp/ccFubtVM.s 			page 1


   1              		.syntax unified
   2              		.cpu cortex-m4
   3              		.fpu softvfp
   4              		.eabi_attribute 20, 1
   5              		.eabi_attribute 21, 1
   6              		.eabi_attribute 23, 3
   7              		.eabi_attribute 24, 1
   8              		.eabi_attribute 25, 1
   9              		.eabi_attribute 26, 1
  10              		.eabi_attribute 30, 2
  11              		.eabi_attribute 34, 1
  12              		.eabi_attribute 18, 4
  13              		.thumb
  14              		.file	"adc_lld.c"
  15              		.text
  16              	.Ltext0:
  17              		.cfi_sections	.debug_frame
  18              		.section	.text.adc_lld_init,"ax",%progbits
  19              		.align	2
  20              		.p2align 4,,15
  21              		.global	adc_lld_init
  22              		.thumb
  23              		.thumb_func
  24              		.type	adc_lld_init, %function
  25              	adc_lld_init:
  26              	.LFB120:
  27              		.file 1 "../../ChibiOS_2.6.5/os/hal/platforms/STM32F4xx/adc_lld.c"
  28              		.loc 1 171 0
  29              		.cfi_startproc
  30              		@ args = 0, pretend = 0, frame = 0
  31              		@ frame_needed = 0, uses_anonymous_args = 0
  32 0000 10B5     		push	{r4, lr}
  33              		.cfi_def_cfa_offset 8
  34              		.cfi_offset 4, -8
  35              		.cfi_offset 14, -4
  36              		.loc 1 175 0
  37 0002 084C     		ldr	r4, .L3
  38 0004 2046     		mov	r0, r4
  39 0006 FFF7FEFF 		bl	adcObjectInit
  40              	.LVL0:
  41              		.loc 1 176 0
  42 000a 0749     		ldr	r1, .L3+4
  43              		.loc 1 177 0
  44 000c 074A     		ldr	r2, .L3+8
  45              		.loc 1 178 0
  46 000e 084B     		ldr	r3, .L3+12
  47              		.loc 1 176 0
  48 0010 A162     		str	r1, [r4, #40]
  49              		.loc 1 177 0
  50 0012 E262     		str	r2, [r4, #44]
  51              		.loc 1 178 0
  52 0014 2363     		str	r3, [r4, #48]
  53              		.loc 1 214 0
  54 0016 1220     		movs	r0, #18
  55 0018 6021     		movs	r1, #96
  56              		.loc 1 215 0
  57 001a BDE81040 		pop	{r4, lr}
ARM GAS  /tmp/ccFubtVM.s 			page 2


  58              		.cfi_restore 14
  59              		.cfi_restore 4
  60              		.cfi_def_cfa_offset 0
  61              		.loc 1 214 0
  62 001e FFF7FEBF 		b	nvicEnableVector
  63              	.LVL1:
  64              	.L4:
  65 0022 00BF     		.align	2
  66              	.L3:
  67 0024 00000000 		.word	.LANCHOR0
  68 0028 00200140 		.word	1073815552
  69 002c 90000000 		.word	_stm32_dma_streams+144
  70 0030 162C0200 		.word	142358
  71              		.cfi_endproc
  72              	.LFE120:
  73              		.size	adc_lld_init, .-adc_lld_init
  74              		.section	.text.adc_lld_start,"ax",%progbits
  75              		.align	2
  76              		.p2align 4,,15
  77              		.global	adc_lld_start
  78              		.thumb
  79              		.thumb_func
  80              		.type	adc_lld_start, %function
  81              	adc_lld_start:
  82              	.LFB121:
  83              		.loc 1 224 0
  84              		.cfi_startproc
  85              		@ args = 0, pretend = 0, frame = 0
  86              		@ frame_needed = 0, uses_anonymous_args = 0
  87              	.LVL2:
  88 0000 38B5     		push	{r3, r4, r5, lr}
  89              		.cfi_def_cfa_offset 16
  90              		.cfi_offset 3, -16
  91              		.cfi_offset 4, -12
  92              		.cfi_offset 5, -8
  93              		.cfi_offset 14, -4
  94              		.loc 1 227 0
  95 0002 0378     		ldrb	r3, [r0]	@ zero_extendqisi2
  96 0004 012B     		cmp	r3, #1
  97 0006 00D0     		beq	.L14
  98 0008 38BD     		pop	{r3, r4, r5, pc}
  99              	.L14:
 100              		.loc 1 229 0
 101 000a 134D     		ldr	r5, .L17
 102 000c A842     		cmp	r0, r5
 103 000e 0446     		mov	r4, r0
 104 0010 0DD0     		beq	.L15
 105              	.LVL3:
 106              	.L7:
 107              		.loc 1 269 0
 108 0012 1248     		ldr	r0, .L17+4
 109              		.loc 1 274 0
 110 0014 A26A     		ldr	r2, [r4, #40]
 111              		.loc 1 269 0
 112 0016 4368     		ldr	r3, [r0, #4]
 113 0018 03F44003 		and	r3, r3, #12582912
 114              		.loc 1 274 0
ARM GAS  /tmp/ccFubtVM.s 			page 3


 115 001c 0021     		movs	r1, #0
 116              		.loc 1 269 0
 117 001e 43F48033 		orr	r3, r3, #65536
 118              		.loc 1 276 0
 119 0022 0124     		movs	r4, #1
 120              	.LVL4:
 121              		.loc 1 269 0
 122 0024 4360     		str	r3, [r0, #4]
 123              		.loc 1 274 0
 124 0026 5160     		str	r1, [r2, #4]
 125              		.loc 1 275 0
 126 0028 9160     		str	r1, [r2, #8]
 127              		.loc 1 276 0
 128 002a 9460     		str	r4, [r2, #8]
 129 002c 38BD     		pop	{r3, r4, r5, pc}
 130              	.LVL5:
 131              	.L15:
 132              	.LBB2:
 133              		.loc 1 231 0
 134 002e C06A     		ldr	r0, [r0, #44]
 135              	.LVL6:
 136 0030 0B4A     		ldr	r2, .L17+8
 137 0032 0621     		movs	r1, #6
 138 0034 2346     		mov	r3, r4
 139 0036 FFF7FEFF 		bl	dmaStreamAllocate
 140              	.LVL7:
 141              		.loc 1 235 0
 142 003a 48B9     		cbnz	r0, .L16
 143              	.LVL8:
 144              	.L8:
 145              		.loc 1 236 0
 146 003c EB6A     		ldr	r3, [r5, #44]
 147              		.loc 1 237 0
 148 003e 094A     		ldr	r2, .L17+12
 149              		.loc 1 236 0
 150 0040 1B68     		ldr	r3, [r3]
 151 0042 0949     		ldr	r1, .L17+16
 152 0044 9960     		str	r1, [r3, #8]
 153              		.loc 1 237 0
 154 0046 536C     		ldr	r3, [r2, #68]
 155 0048 43F48073 		orr	r3, r3, #256
 156 004c 5364     		str	r3, [r2, #68]
 157 004e E0E7     		b	.L7
 158              	.LVL9:
 159              	.L16:
 160              		.loc 1 235 0 discriminator 1
 161 0050 0648     		ldr	r0, .L17+20
 162              	.LVL10:
 163 0052 FFF7FEFF 		bl	chDbgPanic
 164              	.LVL11:
 165 0056 F1E7     		b	.L8
 166              	.L18:
 167              		.align	2
 168              	.L17:
 169 0058 00000000 		.word	.LANCHOR0
 170 005c 00230140 		.word	1073816320
 171 0060 00000000 		.word	adc_lld_serve_rx_interrupt
ARM GAS  /tmp/ccFubtVM.s 			page 4


 172 0064 00380240 		.word	1073887232
 173 0068 4C200140 		.word	1073815628
 174 006c 00000000 		.word	.LC0
 175              	.LBE2:
 176              		.cfi_endproc
 177              	.LFE121:
 178              		.size	adc_lld_start, .-adc_lld_start
 179              		.section	.text.adc_lld_stop,"ax",%progbits
 180              		.align	2
 181              		.p2align 4,,15
 182              		.global	adc_lld_stop
 183              		.thumb
 184              		.thumb_func
 185              		.type	adc_lld_stop, %function
 186              	adc_lld_stop:
 187              	.LFB122:
 188              		.loc 1 287 0
 189              		.cfi_startproc
 190              		@ args = 0, pretend = 0, frame = 0
 191              		@ frame_needed = 0, uses_anonymous_args = 0
 192              	.LVL12:
 193              		.loc 1 290 0
 194 0000 0378     		ldrb	r3, [r0]	@ zero_extendqisi2
 195 0002 022B     		cmp	r3, #2
 196 0004 00D0     		beq	.L25
 197 0006 7047     		bx	lr
 198              	.L25:
 199              		.loc 1 287 0
 200 0008 10B5     		push	{r4, lr}
 201              		.cfi_def_cfa_offset 8
 202              		.cfi_offset 4, -8
 203              		.cfi_offset 14, -4
 204 000a 0446     		mov	r4, r0
 205              		.loc 1 291 0
 206 000c C06A     		ldr	r0, [r0, #44]
 207              	.LVL13:
 208 000e FFF7FEFF 		bl	dmaStreamRelease
 209              	.LVL14:
 210              		.loc 1 296 0
 211 0012 0749     		ldr	r1, .L27
 212              		.loc 1 292 0
 213 0014 A36A     		ldr	r3, [r4, #40]
 214 0016 0022     		movs	r2, #0
 215              		.loc 1 296 0
 216 0018 8C42     		cmp	r4, r1
 217              		.loc 1 292 0
 218 001a 5A60     		str	r2, [r3, #4]
 219              		.loc 1 293 0
 220 001c 9A60     		str	r2, [r3, #8]
 221              		.loc 1 296 0
 222 001e 00D0     		beq	.L26
 223              	.L19:
 224 0020 10BD     		pop	{r4, pc}
 225              	.LVL15:
 226              	.L26:
 227              		.loc 1 297 0
 228 0022 044A     		ldr	r2, .L27+4
ARM GAS  /tmp/ccFubtVM.s 			page 5


 229 0024 536C     		ldr	r3, [r2, #68]
 230 0026 23F48073 		bic	r3, r3, #256
 231 002a 5364     		str	r3, [r2, #68]
 232 002c F8E7     		b	.L19
 233              	.L28:
 234 002e 00BF     		.align	2
 235              	.L27:
 236 0030 00000000 		.word	.LANCHOR0
 237 0034 00380240 		.word	1073887232
 238              		.cfi_endproc
 239              	.LFE122:
 240              		.size	adc_lld_stop, .-adc_lld_stop
 241              		.section	.text.adc_lld_start_conversion,"ax",%progbits
 242              		.align	2
 243              		.p2align 4,,15
 244              		.global	adc_lld_start_conversion
 245              		.thumb
 246              		.thumb_func
 247              		.type	adc_lld_start_conversion, %function
 248              	adc_lld_start_conversion:
 249              	.LFB123:
 250              		.loc 1 319 0
 251              		.cfi_startproc
 252              		@ args = 0, pretend = 0, frame = 0
 253              		@ frame_needed = 0, uses_anonymous_args = 0
 254              	.LVL16:
 255              		.loc 1 321 0
 256 0000 0369     		ldr	r3, [r0, #16]
 257              	.LVL17:
 258              		.loc 1 324 0
 259 0002 016B     		ldr	r1, [r0, #48]
 260              	.LVL18:
 261              		.loc 1 325 0
 262 0004 1A78     		ldrb	r2, [r3]	@ zero_extendqisi2
 263              		.loc 1 319 0
 264 0006 2DE9F043 		push	{r4, r5, r6, r7, r8, r9, lr}
 265              		.cfi_def_cfa_offset 28
 266              		.cfi_offset 4, -28
 267              		.cfi_offset 5, -24
 268              		.cfi_offset 6, -20
 269              		.cfi_offset 7, -16
 270              		.cfi_offset 8, -12
 271              		.cfi_offset 9, -8
 272              		.cfi_offset 14, -4
 273              		.loc 1 327 0
 274 000a C468     		ldr	r4, [r0, #12]
 275              		.loc 1 325 0
 276 000c 2AB1     		cbz	r2, .L31
 277              	.LVL19:
 278              		.loc 1 327 0
 279 000e 012C     		cmp	r4, #1
 280              		.loc 1 326 0
 281 0010 94BF     		ite	ls
 282 0012 41F48071 		orrls	r1, r1, #256
 283              	.LVL20:
 284              		.loc 1 330 0
 285 0016 41F48471 		orrhi	r1, r1, #264
ARM GAS  /tmp/ccFubtVM.s 			page 6


 286              	.LVL21:
 287              	.L31:
 288              		.loc 1 333 0
 289 001a C56A     		ldr	r5, [r0, #44]
 290              		.loc 1 334 0
 291 001c 5A88     		ldrh	r2, [r3, #2]
 292              		.loc 1 333 0
 293 001e 2D68     		ldr	r5, [r5]
 294 0020 8668     		ldr	r6, [r0, #8]
 295 0022 EE60     		str	r6, [r5, #12]
 296              		.loc 1 334 0
 297 0024 02FB04F2 		mul	r2, r2, r4
 298              		.loc 1 344 0
 299 0028 03F11808 		add	r8, r3, #24
 300              		.loc 1 334 0
 301 002c 6A60     		str	r2, [r5, #4]
 302              		.loc 1 349 0
 303 002e DC68     		ldr	r4, [r3, #12]
 304              		.loc 1 336 0
 305 0030 2960     		str	r1, [r5]
 306              		.loc 1 344 0
 307 0032 98E80051 		ldmia	r8, {r8, ip, lr}
 308              		.loc 1 350 0
 309 0036 1969     		ldr	r1, [r3, #16]
 310              	.LVL22:
 311              		.loc 1 337 0
 312 0038 2E68     		ldr	r6, [r5]
 313              		.loc 1 340 0
 314 003a 826A     		ldr	r2, [r0, #40]
 315              		.loc 1 341 0
 316 003c D3F81490 		ldr	r9, [r3, #20]
 317              		.loc 1 345 0
 318 0040 5F6A     		ldr	r7, [r3, #36]
 319              		.loc 1 350 0
 320 0042 11F0804F 		tst	r1, #1073741824
 321              		.loc 1 349 0
 322 0046 44F08063 		orr	r3, r4, #67108864
 323              	.LVL23:
 324              		.loc 1 352 0
 325 004a 41F44071 		orr	r1, r1, #768
 326              		.loc 1 337 0
 327 004e 46F00100 		orr	r0, r6, #1
 328              	.LVL24:
 329              		.loc 1 340 0
 330 0052 4FF00004 		mov	r4, #0
 331              		.loc 1 349 0
 332 0056 43F48073 		orr	r3, r3, #256
 333              		.loc 1 352 0
 334 005a 14BF     		ite	ne
 335 005c 41F00301 		orrne	r1, r1, #3
 336              		.loc 1 355 0
 337 0060 41F00101 		orreq	r1, r1, #1
 338              		.loc 1 337 0
 339 0064 2860     		str	r0, [r5]
 340              	.LVL25:
 341              		.loc 1 340 0
 342 0066 1460     		str	r4, [r2]
ARM GAS  /tmp/ccFubtVM.s 			page 7


 343              		.loc 1 341 0
 344 0068 C2F80C90 		str	r9, [r2, #12]
 345              		.loc 1 342 0
 346 006c C2F81080 		str	r8, [r2, #16]
 347              		.loc 1 343 0
 348 0070 C2F82CC0 		str	ip, [r2, #44]
 349              		.loc 1 344 0
 350 0074 C2F830E0 		str	lr, [r2, #48]
 351              		.loc 1 345 0
 352 0078 5763     		str	r7, [r2, #52]
 353              		.loc 1 349 0
 354 007a 5360     		str	r3, [r2, #4]
 355              		.loc 1 354 0
 356 007c 9160     		str	r1, [r2, #8]
 357 007e BDE8F083 		pop	{r4, r5, r6, r7, r8, r9, pc}
 358              		.cfi_endproc
 359              	.LFE123:
 360              		.size	adc_lld_start_conversion, .-adc_lld_start_conversion
 361 0082 00BF     		.section	.text.adc_lld_stop_conversion,"ax",%progbits
 362              		.align	2
 363              		.p2align 4,,15
 364              		.global	adc_lld_stop_conversion
 365              		.thumb
 366              		.thumb_func
 367              		.type	adc_lld_stop_conversion, %function
 368              	adc_lld_stop_conversion:
 369              	.LFB124:
 370              		.loc 1 365 0
 371              		.cfi_startproc
 372              		@ args = 0, pretend = 0, frame = 0
 373              		@ frame_needed = 0, uses_anonymous_args = 0
 374              		@ link register save eliminated.
 375              	.LVL26:
 376              		.loc 1 367 0
 377 0000 C16A     		ldr	r1, [r0, #44]
 378 0002 0A68     		ldr	r2, [r1]
 379 0004 1368     		ldr	r3, [r2]
 380 0006 23F01F03 		bic	r3, r3, #31
 381 000a 1360     		str	r3, [r2]
 382              	.L37:
 383              		.loc 1 367 0 is_stmt 0 discriminator 2
 384 000c 1368     		ldr	r3, [r2]
 385 000e 13F00103 		ands	r3, r3, #1
 386 0012 FBD1     		bne	.L37
 387              		.loc 1 365 0 is_stmt 1 discriminator 3
 388 0014 30B4     		push	{r4, r5}
 389              		.cfi_def_cfa_offset 8
 390              		.cfi_offset 4, -8
 391              		.cfi_offset 5, -4
 392              		.loc 1 367 0 discriminator 3
 393 0016 0D7A     		ldrb	r5, [r1, #8]	@ zero_extendqisi2
 394 0018 4C68     		ldr	r4, [r1, #4]
 395              		.loc 1 368 0 discriminator 3
 396 001a 826A     		ldr	r2, [r0, #40]
 397              		.loc 1 367 0 discriminator 3
 398 001c 3D21     		movs	r1, #61
 399 001e A940     		lsls	r1, r1, r5
ARM GAS  /tmp/ccFubtVM.s 			page 8


 400              		.loc 1 370 0 discriminator 3
 401 0020 0120     		movs	r0, #1
 402              	.LVL27:
 403              		.loc 1 367 0 discriminator 3
 404 0022 2160     		str	r1, [r4]
 405              		.loc 1 368 0 discriminator 3
 406 0024 5360     		str	r3, [r2, #4]
 407              		.loc 1 371 0 discriminator 3
 408 0026 30BC     		pop	{r4, r5}
 409              		.cfi_restore 5
 410              		.cfi_restore 4
 411              		.cfi_def_cfa_offset 0
 412              		.loc 1 369 0 discriminator 3
 413 0028 9360     		str	r3, [r2, #8]
 414              		.loc 1 370 0 discriminator 3
 415 002a 9060     		str	r0, [r2, #8]
 416              		.loc 1 371 0 discriminator 3
 417 002c 7047     		bx	lr
 418              		.cfi_endproc
 419              	.LFE124:
 420              		.size	adc_lld_stop_conversion, .-adc_lld_stop_conversion
 421 002e 00BF     		.section	.text.Vector88,"ax",%progbits
 422              		.align	2
 423              		.p2align 4,,15
 424              		.global	Vector88
 425              		.thumb
 426              		.thumb_func
 427              		.type	Vector88, %function
 428              	Vector88:
 429              	.LFB119:
 430              		.loc 1 111 0
 431              		.cfi_startproc
 432              		@ args = 0, pretend = 0, frame = 0
 433              		@ frame_needed = 0, uses_anonymous_args = 0
 434 0000 70B5     		push	{r4, r5, r6, lr}
 435              		.cfi_def_cfa_offset 16
 436              		.cfi_offset 4, -16
 437              		.cfi_offset 5, -12
 438              		.cfi_offset 6, -8
 439              		.cfi_offset 14, -4
 440              		.loc 1 114 0
 441 0002 FFF7FEFF 		bl	dbg_check_enter_isr
 442              	.LVL28:
 443              		.loc 1 117 0
 444 0006 1C4B     		ldr	r3, .L59
 445 0008 1A68     		ldr	r2, [r3]
 446              	.LVL29:
 447              		.loc 1 118 0
 448 000a 0021     		movs	r1, #0
 449 000c 1960     		str	r1, [r3]
 450              		.loc 1 121 0
 451 000e 9306     		lsls	r3, r2, #26
 452 0010 2BD5     		bpl	.L41
 453              		.loc 1 121 0 is_stmt 0 discriminator 1
 454 0012 1A4C     		ldr	r4, .L59+4
 455 0014 E36A     		ldr	r3, [r4, #44]
 456 0016 1B68     		ldr	r3, [r3]
ARM GAS  /tmp/ccFubtVM.s 			page 9


 457 0018 5B68     		ldr	r3, [r3, #4]
 458 001a 33B3     		cbz	r3, .L41
 459              		.loc 1 124 0 is_stmt 1
 460 001c 2369     		ldr	r3, [r4, #16]
 461 001e 23B3     		cbz	r3, .L41
 462              		.loc 1 125 0
 463 0020 2046     		mov	r0, r4
 464 0022 FFF7FEFF 		bl	adc_lld_stop_conversion
 465              	.LVL30:
 466 0026 2369     		ldr	r3, [r4, #16]
 467 0028 9B68     		ldr	r3, [r3, #8]
 468 002a 4BB1     		cbz	r3, .L43
 469              		.loc 1 125 0 is_stmt 0 discriminator 1
 470 002c 0522     		movs	r2, #5
 471 002e 2270     		strb	r2, [r4]
 472 0030 2046     		mov	r0, r4
 473 0032 0121     		movs	r1, #1
 474 0034 9847     		blx	r3
 475              	.LVL31:
 476 0036 2378     		ldrb	r3, [r4]	@ zero_extendqisi2
 477 0038 052B     		cmp	r3, #5
 478 003a 04BF     		itt	eq
 479 003c 0223     		moveq	r3, #2
 480 003e 2370     		strbeq	r3, [r4]
 481              	.L43:
 482              		.loc 1 125 0 discriminator 5
 483 0040 0025     		movs	r5, #0
 484 0042 2561     		str	r5, [r4, #16]
 485 0044 0D4E     		ldr	r6, .L59+4
 486              	.LBB3:
 487 0046 2023     		movs	r3, #32
 488              	@ 125 "../../ChibiOS_2.6.5/os/hal/platforms/STM32F4xx/adc_lld.c" 1
 489 0048 83F31188 		msr     BASEPRI, r3
 490              	@ 0 "" 2
 491              		.thumb
 492              	.LBE3:
 493 004c FFF7FEFF 		bl	dbg_check_lock_from_isr
 494              	.LVL32:
 495 0050 6069     		ldr	r0, [r4, #20]
 496 0052 28B1     		cbz	r0, .L45
 497              	.LVL33:
 498              	.LBB4:
 499              		.loc 1 125 0 discriminator 6
 500 0054 4FF0FF33 		mov	r3, #-1
 501 0058 8362     		str	r3, [r0, #40]
 502 005a 7561     		str	r5, [r6, #20]
 503 005c FFF7FEFF 		bl	chSchReadyI
 504              	.LVL34:
 505              	.L45:
 506              	.LBE4:
 507              		.loc 1 125 0 discriminator 8
 508 0060 FFF7FEFF 		bl	dbg_check_unlock_from_isr
 509              	.LVL35:
 510              	.LBB5:
 511 0064 0023     		movs	r3, #0
 512              	@ 125 "../../ChibiOS_2.6.5/os/hal/platforms/STM32F4xx/adc_lld.c" 1
 513 0066 83F31188 		msr     BASEPRI, r3
ARM GAS  /tmp/ccFubtVM.s 			page 10


 514              	@ 0 "" 2
 515              		.thumb
 516              	.L41:
 517              	.LBE5:
 518              		.loc 1 158 0 is_stmt 1
 519 006a FFF7FEFF 		bl	dbg_check_leave_isr
 520              	.LVL36:
 521              		.loc 1 159 0
 522 006e BDE87040 		pop	{r4, r5, r6, lr}
 523              		.cfi_restore 14
 524              		.cfi_restore 6
 525              		.cfi_restore 5
 526              		.cfi_restore 4
 527              		.cfi_def_cfa_offset 0
 528              		.loc 1 158 0
 529 0072 FFF7FEBF 		b	_port_irq_epilogue
 530              	.LVL37:
 531              	.L60:
 532 0076 00BF     		.align	2
 533              	.L59:
 534 0078 00200140 		.word	1073815552
 535 007c 00000000 		.word	.LANCHOR0
 536              		.cfi_endproc
 537              	.LFE119:
 538              		.size	Vector88, .-Vector88
 539              		.section	.text.adc_lld_serve_rx_interrupt,"ax",%progbits
 540              		.align	2
 541              		.p2align 4,,15
 542              		.thumb
 543              		.thumb_func
 544              		.type	adc_lld_serve_rx_interrupt, %function
 545              	adc_lld_serve_rx_interrupt:
 546              	.LFB118:
 547              		.loc 1 76 0
 548              		.cfi_startproc
 549              		@ args = 0, pretend = 0, frame = 0
 550              		@ frame_needed = 0, uses_anonymous_args = 0
 551              	.LVL38:
 552              		.loc 1 79 0
 553 0000 11F00C0F 		tst	r1, #12
 554              		.loc 1 76 0
 555 0004 70B5     		push	{r4, r5, r6, lr}
 556              		.cfi_def_cfa_offset 16
 557              		.cfi_offset 4, -16
 558              		.cfi_offset 5, -12
 559              		.cfi_offset 6, -8
 560              		.cfi_offset 14, -4
 561              		.loc 1 76 0
 562 0006 0446     		mov	r4, r0
 563              		.loc 1 79 0
 564 0008 19D1     		bne	.L96
 565              		.loc 1 87 0
 566 000a 0369     		ldr	r3, [r0, #16]
 567 000c B3B1     		cbz	r3, .L61
 568              		.loc 1 88 0
 569 000e 8D06     		lsls	r5, r1, #26
 570 0010 12D5     		bpl	.L68
ARM GAS  /tmp/ccFubtVM.s 			page 11


 571              		.loc 1 90 0
 572 0012 1A78     		ldrb	r2, [r3]	@ zero_extendqisi2
 573 0014 002A     		cmp	r2, #0
 574 0016 45D0     		beq	.L69
 575              		.loc 1 90 0 is_stmt 0 discriminator 1
 576 0018 5D68     		ldr	r5, [r3, #4]
 577 001a 7DB1     		cbz	r5, .L61
 578              		.loc 1 90 0 discriminator 3
 579 001c C268     		ldr	r2, [r0, #12]
 580 001e 012A     		cmp	r2, #1
 581 0020 3BD9     		bls	.L70
 582              	.LBB6:
 583              		.loc 1 90 0 discriminator 4
 584 0022 5B88     		ldrh	r3, [r3, #2]
 585 0024 8168     		ldr	r1, [r0, #8]
 586              	.LVL39:
 587 0026 5208     		lsrs	r2, r2, #1
 588              	.LVL40:
 589 0028 03FB02F3 		mul	r3, r3, r2
 590 002c 01EB4301 		add	r1, r1, r3, lsl #1
 591 0030 2B46     		mov	r3, r5
 592              	.LBE6:
 593              		.loc 1 98 0 is_stmt 1 discriminator 4
 594 0032 BDE87040 		pop	{r4, r5, r6, lr}
 595              		.cfi_remember_state
 596              		.cfi_restore 14
 597              		.cfi_restore 6
 598              		.cfi_restore 5
 599              		.cfi_restore 4
 600              		.cfi_def_cfa_offset 0
 601              	.LBB7:
 602              		.loc 1 90 0 discriminator 4
 603 0036 1847     		bx	r3	@ indirect register sibling call
 604              	.LVL41:
 605              	.L68:
 606              		.cfi_restore_state
 607              	.LBE7:
 608              		.loc 1 92 0
 609 0038 CA06     		lsls	r2, r1, #27
 610 003a 25D4     		bmi	.L97
 611              	.L61:
 612 003c 70BD     		pop	{r4, r5, r6, pc}
 613              	.L96:
 614              		.loc 1 82 0
 615 003e FFF7FEFF 		bl	adc_lld_stop_conversion
 616              	.LVL42:
 617 0042 2369     		ldr	r3, [r4, #16]
 618 0044 9B68     		ldr	r3, [r3, #8]
 619 0046 4BB1     		cbz	r3, .L64
 620              		.loc 1 82 0 is_stmt 0 discriminator 1
 621 0048 0522     		movs	r2, #5
 622 004a 2270     		strb	r2, [r4]
 623 004c 2046     		mov	r0, r4
 624 004e 0021     		movs	r1, #0
 625 0050 9847     		blx	r3
 626              	.LVL43:
 627 0052 2378     		ldrb	r3, [r4]	@ zero_extendqisi2
ARM GAS  /tmp/ccFubtVM.s 			page 12


 628 0054 052B     		cmp	r3, #5
 629 0056 04BF     		itt	eq
 630 0058 0223     		moveq	r3, #2
 631 005a 2370     		strbeq	r3, [r4]
 632              	.L64:
 633              		.loc 1 82 0 discriminator 5
 634 005c 0025     		movs	r5, #0
 635 005e 2561     		str	r5, [r4, #16]
 636              	.LBB8:
 637 0060 2023     		movs	r3, #32
 638              	@ 82 "../../ChibiOS_2.6.5/os/hal/platforms/STM32F4xx/adc_lld.c" 1
 639 0062 83F31188 		msr     BASEPRI, r3
 640              	@ 0 "" 2
 641              		.thumb
 642              	.LBE8:
 643 0066 FFF7FEFF 		bl	dbg_check_lock_from_isr
 644              	.LVL44:
 645 006a 6369     		ldr	r3, [r4, #20]
 646 006c 33B1     		cbz	r3, .L73
 647              	.LVL45:
 648              	.LBB9:
 649              		.loc 1 82 0 discriminator 6
 650 006e 4FF0FF32 		mov	r2, #-1
 651 0072 6561     		str	r5, [r4, #20]
 652 0074 1846     		mov	r0, r3
 653 0076 9A62     		str	r2, [r3, #40]
 654 0078 FFF7FEFF 		bl	chSchReadyI
 655              	.LVL46:
 656              	.L73:
 657              	.LBE9:
 658              		.loc 1 90 0 is_stmt 1 discriminator 12
 659 007c FFF7FEFF 		bl	dbg_check_unlock_from_isr
 660              	.LVL47:
 661              	.LBB10:
 662 0080 0023     		movs	r3, #0
 663              	@ 90 "../../ChibiOS_2.6.5/os/hal/platforms/STM32F4xx/adc_lld.c" 1
 664 0082 83F31188 		msr     BASEPRI, r3
 665              	@ 0 "" 2
 666              		.thumb
 667 0086 70BD     		pop	{r4, r5, r6, pc}
 668              	.LVL48:
 669              	.L97:
 670              	.LBE10:
 671              		.loc 1 94 0
 672 0088 5B68     		ldr	r3, [r3, #4]
 673 008a 002B     		cmp	r3, #0
 674 008c D6D0     		beq	.L61
 675              		.loc 1 94 0 is_stmt 0 discriminator 1
 676 008e C268     		ldr	r2, [r0, #12]
 677 0090 8168     		ldr	r1, [r0, #8]
 678              	.LVL49:
 679 0092 5208     		lsrs	r2, r2, #1
 680              		.loc 1 98 0 is_stmt 1 discriminator 1
 681 0094 BDE87040 		pop	{r4, r5, r6, lr}
 682              		.cfi_remember_state
 683              		.cfi_restore 14
 684              		.cfi_restore 6
ARM GAS  /tmp/ccFubtVM.s 			page 13


 685              		.cfi_restore 5
 686              		.cfi_restore 4
 687              		.cfi_def_cfa_offset 0
 688              		.loc 1 94 0 discriminator 1
 689 0098 1847     		bx	r3	@ indirect register sibling call
 690              	.LVL50:
 691              	.L70:
 692              		.cfi_restore_state
 693              		.loc 1 90 0 discriminator 5
 694 009a 2B46     		mov	r3, r5
 695 009c 8168     		ldr	r1, [r0, #8]
 696              	.LVL51:
 697              		.loc 1 98 0 discriminator 5
 698 009e BDE87040 		pop	{r4, r5, r6, lr}
 699              		.cfi_remember_state
 700              		.cfi_restore 14
 701              		.cfi_restore 6
 702              		.cfi_restore 5
 703              		.cfi_restore 4
 704              		.cfi_def_cfa_offset 0
 705              		.loc 1 90 0 discriminator 5
 706 00a2 1847     		bx	r3	@ indirect register sibling call
 707              	.LVL52:
 708              	.L69:
 709              		.cfi_restore_state
 710              		.loc 1 90 0 is_stmt 0 discriminator 2
 711 00a4 FFF7FEFF 		bl	adc_lld_stop_conversion
 712              	.LVL53:
 713 00a8 2369     		ldr	r3, [r4, #16]
 714 00aa 5B68     		ldr	r3, [r3, #4]
 715 00ac BBB1     		cbz	r3, .L71
 716              		.loc 1 90 0 discriminator 6
 717 00ae 0422     		movs	r2, #4
 718 00b0 2270     		strb	r2, [r4]
 719 00b2 2046     		mov	r0, r4
 720 00b4 A168     		ldr	r1, [r4, #8]
 721 00b6 E268     		ldr	r2, [r4, #12]
 722 00b8 9847     		blx	r3
 723              	.LVL54:
 724 00ba 2378     		ldrb	r3, [r4]	@ zero_extendqisi2
 725 00bc 042B     		cmp	r3, #4
 726 00be 0ED0     		beq	.L71
 727              	.L72:
 728              	.LBB11:
 729              		.loc 1 90 0 discriminator 9
 730 00c0 2023     		movs	r3, #32
 731              	@ 90 "../../ChibiOS_2.6.5/os/hal/platforms/STM32F4xx/adc_lld.c" 1
 732 00c2 83F31188 		msr     BASEPRI, r3
 733              	@ 0 "" 2
 734              		.thumb
 735              	.LBE11:
 736 00c6 FFF7FEFF 		bl	dbg_check_lock_from_isr
 737              	.LVL55:
 738 00ca 6369     		ldr	r3, [r4, #20]
 739 00cc 002B     		cmp	r3, #0
 740 00ce D5D0     		beq	.L73
 741              	.LVL56:
ARM GAS  /tmp/ccFubtVM.s 			page 14


 742              	.LBB12:
 743              		.loc 1 90 0 discriminator 10
 744 00d0 0022     		movs	r2, #0
 745 00d2 6261     		str	r2, [r4, #20]
 746 00d4 1846     		mov	r0, r3
 747 00d6 9A62     		str	r2, [r3, #40]
 748 00d8 FFF7FEFF 		bl	chSchReadyI
 749              	.LVL57:
 750 00dc CEE7     		b	.L73
 751              	.L71:
 752              	.LBE12:
 753              		.loc 1 90 0 discriminator 8
 754 00de 0222     		movs	r2, #2
 755 00e0 0023     		movs	r3, #0
 756 00e2 2270     		strb	r2, [r4]
 757 00e4 2361     		str	r3, [r4, #16]
 758 00e6 EBE7     		b	.L72
 759              		.cfi_endproc
 760              	.LFE118:
 761              		.size	adc_lld_serve_rx_interrupt, .-adc_lld_serve_rx_interrupt
 762              		.section	.text.adcSTM32EnableTSVREFE,"ax",%progbits
 763              		.align	2
 764              		.p2align 4,,15
 765              		.global	adcSTM32EnableTSVREFE
 766              		.thumb
 767              		.thumb_func
 768              		.type	adcSTM32EnableTSVREFE, %function
 769              	adcSTM32EnableTSVREFE:
 770              	.LFB125:
 771              		.loc 1 379 0 is_stmt 1
 772              		.cfi_startproc
 773              		@ args = 0, pretend = 0, frame = 0
 774              		@ frame_needed = 0, uses_anonymous_args = 0
 775              		@ link register save eliminated.
 776              		.loc 1 381 0
 777 0000 024A     		ldr	r2, .L99
 778 0002 5368     		ldr	r3, [r2, #4]
 779 0004 43F40003 		orr	r3, r3, #8388608
 780 0008 5360     		str	r3, [r2, #4]
 781 000a 7047     		bx	lr
 782              	.L100:
 783              		.align	2
 784              	.L99:
 785 000c 00230140 		.word	1073816320
 786              		.cfi_endproc
 787              	.LFE125:
 788              		.size	adcSTM32EnableTSVREFE, .-adcSTM32EnableTSVREFE
 789              		.section	.text.adcSTM32DisableTSVREFE,"ax",%progbits
 790              		.align	2
 791              		.p2align 4,,15
 792              		.global	adcSTM32DisableTSVREFE
 793              		.thumb
 794              		.thumb_func
 795              		.type	adcSTM32DisableTSVREFE, %function
 796              	adcSTM32DisableTSVREFE:
 797              	.LFB126:
 798              		.loc 1 390 0
ARM GAS  /tmp/ccFubtVM.s 			page 15


 799              		.cfi_startproc
 800              		@ args = 0, pretend = 0, frame = 0
 801              		@ frame_needed = 0, uses_anonymous_args = 0
 802              		@ link register save eliminated.
 803              		.loc 1 392 0
 804 0000 024A     		ldr	r2, .L102
 805 0002 5368     		ldr	r3, [r2, #4]
 806 0004 23F40003 		bic	r3, r3, #8388608
 807 0008 5360     		str	r3, [r2, #4]
 808 000a 7047     		bx	lr
 809              	.L103:
 810              		.align	2
 811              	.L102:
 812 000c 00230140 		.word	1073816320
 813              		.cfi_endproc
 814              	.LFE126:
 815              		.size	adcSTM32DisableTSVREFE, .-adcSTM32DisableTSVREFE
 816              		.section	.text.adcSTM32EnableVBATE,"ax",%progbits
 817              		.align	2
 818              		.p2align 4,,15
 819              		.global	adcSTM32EnableVBATE
 820              		.thumb
 821              		.thumb_func
 822              		.type	adcSTM32EnableVBATE, %function
 823              	adcSTM32EnableVBATE:
 824              	.LFB127:
 825              		.loc 1 401 0
 826              		.cfi_startproc
 827              		@ args = 0, pretend = 0, frame = 0
 828              		@ frame_needed = 0, uses_anonymous_args = 0
 829              		@ link register save eliminated.
 830              		.loc 1 403 0
 831 0000 024A     		ldr	r2, .L105
 832 0002 5368     		ldr	r3, [r2, #4]
 833 0004 43F48003 		orr	r3, r3, #4194304
 834 0008 5360     		str	r3, [r2, #4]
 835 000a 7047     		bx	lr
 836              	.L106:
 837              		.align	2
 838              	.L105:
 839 000c 00230140 		.word	1073816320
 840              		.cfi_endproc
 841              	.LFE127:
 842              		.size	adcSTM32EnableVBATE, .-adcSTM32EnableVBATE
 843              		.section	.text.adcSTM32DisableVBATE,"ax",%progbits
 844              		.align	2
 845              		.p2align 4,,15
 846              		.global	adcSTM32DisableVBATE
 847              		.thumb
 848              		.thumb_func
 849              		.type	adcSTM32DisableVBATE, %function
 850              	adcSTM32DisableVBATE:
 851              	.LFB128:
 852              		.loc 1 412 0
 853              		.cfi_startproc
 854              		@ args = 0, pretend = 0, frame = 0
 855              		@ frame_needed = 0, uses_anonymous_args = 0
ARM GAS  /tmp/ccFubtVM.s 			page 16


 856              		@ link register save eliminated.
 857              		.loc 1 414 0
 858 0000 024A     		ldr	r2, .L108
 859 0002 5368     		ldr	r3, [r2, #4]
 860 0004 23F48003 		bic	r3, r3, #4194304
 861 0008 5360     		str	r3, [r2, #4]
 862 000a 7047     		bx	lr
 863              	.L109:
 864              		.align	2
 865              	.L108:
 866 000c 00230140 		.word	1073816320
 867              		.cfi_endproc
 868              	.LFE128:
 869              		.size	adcSTM32DisableVBATE, .-adcSTM32DisableVBATE
 870              		.global	ADCD1
 871              		.section	.bss.ADCD1,"aw",%nobits
 872              		.align	2
 873              		.set	.LANCHOR0,. + 0
 874              		.type	ADCD1, %object
 875              		.size	ADCD1, 52
 876              	ADCD1:
 877 0000 00000000 		.space	52
 877      00000000 
 877      00000000 
 877      00000000 
 877      00000000 
 878              		.section	.rodata.str1.4,"aMS",%progbits,1
 879              		.align	2
 880              	.LC0:
 881 0000 6164635F 		.ascii	"adc_lld_start(), #1\000"
 881      6C6C645F 
 881      73746172 
 881      7428292C 
 881      20233100 
 882              		.text
 883              	.Letext0:
 884              		.file 2 "/usr/lib/gcc/arm-none-eabi/4.9.3/include/stddef.h"
 885              		.file 3 "/usr/include/newlib/machine/_default_types.h"
 886              		.file 4 "/usr/include/newlib/sys/_stdint.h"
 887              		.file 5 "../../ChibiOS_2.6.5/os/ports/GCC/ARMCMx/chtypes.h"
 888              		.file 6 "../../ChibiOS_2.6.5/os/kernel/include/chlists.h"
 889              		.file 7 "../../ChibiOS_2.6.5/os/kernel/include/chthreads.h"
 890              		.file 8 "../../ChibiOS_2.6.5/os/ports/GCC/ARMCMx/chcore_v7m.h"
 891              		.file 9 "../../ChibiOS_2.6.5/os/kernel/include/chmtx.h"
 892              		.file 10 "../../ChibiOS_2.6.5/os/hal/platforms/STM32F4xx/stm32f4xx.h"
 893              		.file 11 "../../ChibiOS_2.6.5/os/hal/platforms/STM32F4xx/stm32_dma.h"
 894              		.file 12 "../../ChibiOS_2.6.5/os/hal/include/adc.h"
 895              		.file 13 "../../ChibiOS_2.6.5/os/hal/platforms/STM32F4xx/adc_lld.h"
 896              		.file 14 "../../ChibiOS_2.6.5/os/ports/common/ARMCMx/CMSIS/include/core_cm4.h"
 897              		.file 15 "../../ChibiOS_2.6.5/os/ports/common/ARMCMx/nvic.h"
 898              		.file 16 "../../ChibiOS_2.6.5/os/kernel/include/chdebug.h"
 899              		.file 17 "../../ChibiOS_2.6.5/os/kernel/include/chschd.h"