ARM GAS  /tmp/cc47FwhE.s 			page 1


   1              		.syntax unified
   2              		.cpu cortex-m4
   3              		.fpu softvfp
   4              		.eabi_attribute 20, 1
   5              		.eabi_attribute 21, 1
   6              		.eabi_attribute 23, 3
   7              		.eabi_attribute 24, 1
   8              		.eabi_attribute 25, 1
   9              		.eabi_attribute 26, 1
  10              		.eabi_attribute 30, 2
  11              		.eabi_attribute 34, 1
  12              		.eabi_attribute 18, 4
  13              		.thumb
  14              		.file	"chcond.c"
  15              		.text
  16              	.Ltext0:
  17              		.cfi_sections	.debug_frame
  18              		.section	.text.chCondInit,"ax",%progbits
  19              		.align	2
  20              		.p2align 4,,15
  21              		.global	chCondInit
  22              		.thumb
  23              		.thumb_func
  24              		.type	chCondInit, %function
  25              	chCondInit:
  26              	.LFB7:
  27              		.file 1 "../../ChibiOS_2.6.5/os/kernel/src/chcond.c"
  28              		.loc 1 59 0
  29              		.cfi_startproc
  30              		@ args = 0, pretend = 0, frame = 0
  31              		@ frame_needed = 0, uses_anonymous_args = 0
  32              	.LVL0:
  33 0000 10B5     		push	{r4, lr}
  34              		.cfi_def_cfa_offset 8
  35              		.cfi_offset 4, -8
  36              		.cfi_offset 14, -4
  37              		.loc 1 61 0
  38 0002 0446     		mov	r4, r0
  39 0004 10B1     		cbz	r0, .L5
  40              		.loc 1 63 0
  41 0006 6460     		str	r4, [r4, #4]
  42 0008 2460     		str	r4, [r4]
  43 000a 10BD     		pop	{r4, pc}
  44              	.L5:
  45              		.loc 1 61 0 discriminator 1
  46 000c 0248     		ldr	r0, .L6
  47              	.LVL1:
  48 000e FFF7FEFF 		bl	chDbgPanic
  49              	.LVL2:
  50              		.loc 1 63 0 discriminator 1
  51 0012 6460     		str	r4, [r4, #4]
  52 0014 2460     		str	r4, [r4]
  53 0016 10BD     		pop	{r4, pc}
  54              	.LVL3:
  55              	.L7:
  56              		.align	2
  57              	.L6:
ARM GAS  /tmp/cc47FwhE.s 			page 2


  58 0018 00000000 		.word	.LC0
  59              		.cfi_endproc
  60              	.LFE7:
  61              		.size	chCondInit, .-chCondInit
  62              		.section	.text.chCondSignal,"ax",%progbits
  63              		.align	2
  64              		.p2align 4,,15
  65              		.global	chCondSignal
  66              		.thumb
  67              		.thumb_func
  68              		.type	chCondSignal, %function
  69              	chCondSignal:
  70              	.LFB8:
  71              		.loc 1 73 0
  72              		.cfi_startproc
  73              		@ args = 0, pretend = 0, frame = 0
  74              		@ frame_needed = 0, uses_anonymous_args = 0
  75              	.LVL4:
  76 0000 10B5     		push	{r4, lr}
  77              		.cfi_def_cfa_offset 8
  78              		.cfi_offset 4, -8
  79              		.cfi_offset 14, -4
  80              		.loc 1 75 0
  81 0002 0446     		mov	r4, r0
  82 0004 98B1     		cbz	r0, .L12
  83              	.LVL5:
  84              	.L9:
  85              	.LBB14:
  86              		.loc 1 77 0
  87 0006 2023     		movs	r3, #32
  88              	@ 77 "../../ChibiOS_2.6.5/os/kernel/src/chcond.c" 1
  89 0008 83F31188 		msr     BASEPRI, r3
  90              	@ 0 "" 2
  91              		.thumb
  92              	.LBE14:
  93 000c FFF7FEFF 		bl	dbg_check_lock
  94              	.LVL6:
  95              		.loc 1 78 0
  96 0010 2068     		ldr	r0, [r4]
  97 0012 A042     		cmp	r0, r4
  98 0014 05D0     		beq	.L10
  99              	.LVL7:
 100              	.LBB15:
 101              	.LBB16:
 102              		.file 2 "../../ChibiOS_2.6.5/os/kernel/include/chinline.h"
 103              		.loc 2 62 0
 104 0016 0368     		ldr	r3, [r0]
 105 0018 2360     		str	r3, [r4]
 106              	.LBE16:
 107              	.LBE15:
 108              		.loc 1 79 0
 109 001a 0021     		movs	r1, #0
 110              	.LBB18:
 111              	.LBB17:
 112              		.loc 2 62 0
 113 001c 5C60     		str	r4, [r3, #4]
 114              	.LBE17:
ARM GAS  /tmp/cc47FwhE.s 			page 3


 115              	.LBE18:
 116              		.loc 1 79 0
 117 001e FFF7FEFF 		bl	chSchWakeupS
 118              	.LVL8:
 119              	.L10:
 120              		.loc 1 80 0
 121 0022 FFF7FEFF 		bl	dbg_check_unlock
 122              	.LVL9:
 123              	.LBB19:
 124 0026 0023     		movs	r3, #0
 125              	@ 80 "../../ChibiOS_2.6.5/os/kernel/src/chcond.c" 1
 126 0028 83F31188 		msr     BASEPRI, r3
 127              	@ 0 "" 2
 128              		.thumb
 129 002c 10BD     		pop	{r4, pc}
 130              	.LVL10:
 131              	.L12:
 132              	.LBE19:
 133              		.loc 1 75 0 discriminator 1
 134 002e 0248     		ldr	r0, .L13
 135              	.LVL11:
 136 0030 FFF7FEFF 		bl	chDbgPanic
 137              	.LVL12:
 138 0034 E7E7     		b	.L9
 139              	.L14:
 140 0036 00BF     		.align	2
 141              	.L13:
 142 0038 10000000 		.word	.LC1
 143              		.cfi_endproc
 144              	.LFE8:
 145              		.size	chCondSignal, .-chCondSignal
 146              		.section	.text.chCondSignalI,"ax",%progbits
 147              		.align	2
 148              		.p2align 4,,15
 149              		.global	chCondSignalI
 150              		.thumb
 151              		.thumb_func
 152              		.type	chCondSignalI, %function
 153              	chCondSignalI:
 154              	.LFB9:
 155              		.loc 1 94 0
 156              		.cfi_startproc
 157              		@ args = 0, pretend = 0, frame = 0
 158              		@ frame_needed = 0, uses_anonymous_args = 0
 159              	.LVL13:
 160 0000 10B5     		push	{r4, lr}
 161              		.cfi_def_cfa_offset 8
 162              		.cfi_offset 4, -8
 163              		.cfi_offset 14, -4
 164              		.loc 1 94 0
 165 0002 0446     		mov	r4, r0
 166              		.loc 1 96 0
 167 0004 FFF7FEFF 		bl	chDbgCheckClassI
 168              	.LVL14:
 169              		.loc 1 97 0
 170 0008 54B1     		cbz	r4, .L19
 171              	.L16:
ARM GAS  /tmp/cc47FwhE.s 			page 4


 172              		.loc 1 99 0
 173 000a 2068     		ldr	r0, [r4]
 174 000c A042     		cmp	r0, r4
 175 000e 06D0     		beq	.L15
 176              	.LVL15:
 177              	.LBB20:
 178              	.LBB21:
 179              		.loc 2 62 0
 180 0010 0368     		ldr	r3, [r0]
 181 0012 2360     		str	r3, [r4]
 182 0014 5C60     		str	r4, [r3, #4]
 183              	.LBE21:
 184              	.LBE20:
 185              		.loc 1 100 0
 186 0016 FFF7FEFF 		bl	chSchReadyI
 187              	.LVL16:
 188 001a 0023     		movs	r3, #0
 189 001c 8362     		str	r3, [r0, #40]
 190              	.LVL17:
 191              	.L15:
 192 001e 10BD     		pop	{r4, pc}
 193              	.LVL18:
 194              	.L19:
 195              		.loc 1 97 0 discriminator 1
 196 0020 0148     		ldr	r0, .L20
 197 0022 FFF7FEFF 		bl	chDbgPanic
 198              	.LVL19:
 199 0026 F0E7     		b	.L16
 200              	.L21:
 201              		.align	2
 202              	.L20:
 203 0028 24000000 		.word	.LC2
 204              		.cfi_endproc
 205              	.LFE9:
 206              		.size	chCondSignalI, .-chCondSignalI
 207              		.section	.text.chCondBroadcastI,"ax",%progbits
 208              		.align	2
 209              		.p2align 4,,15
 210              		.global	chCondBroadcastI
 211              		.thumb
 212              		.thumb_func
 213              		.type	chCondBroadcastI, %function
 214              	chCondBroadcastI:
 215              	.LFB11:
 216              		.loc 1 129 0
 217              		.cfi_startproc
 218              		@ args = 0, pretend = 0, frame = 0
 219              		@ frame_needed = 0, uses_anonymous_args = 0
 220              	.LVL20:
 221 0000 38B5     		push	{r3, r4, r5, lr}
 222              		.cfi_def_cfa_offset 16
 223              		.cfi_offset 3, -16
 224              		.cfi_offset 4, -12
 225              		.cfi_offset 5, -8
 226              		.cfi_offset 14, -4
 227              		.loc 1 129 0
 228 0002 0446     		mov	r4, r0
ARM GAS  /tmp/cc47FwhE.s 			page 5


 229              		.loc 1 131 0
 230 0004 FFF7FEFF 		bl	chDbgCheckClassI
 231              	.LVL21:
 232              		.loc 1 132 0
 233 0008 74B1     		cbz	r4, .L29
 234              	.L23:
 235              		.loc 1 137 0
 236 000a 2068     		ldr	r0, [r4]
 237 000c A042     		cmp	r0, r4
 238 000e 0AD0     		beq	.L22
 239              		.loc 1 138 0
 240 0010 6FF00105 		mvn	r5, #1
 241              	.L25:
 242              	.LVL22:
 243              	.LBB22:
 244              	.LBB23:
 245              		.loc 2 62 0
 246 0014 0368     		ldr	r3, [r0]
 247 0016 2360     		str	r3, [r4]
 248 0018 5C60     		str	r4, [r3, #4]
 249              	.LBE23:
 250              	.LBE22:
 251              		.loc 1 138 0
 252 001a FFF7FEFF 		bl	chSchReadyI
 253              	.LVL23:
 254 001e 8562     		str	r5, [r0, #40]
 255              		.loc 1 137 0
 256 0020 2068     		ldr	r0, [r4]
 257 0022 A042     		cmp	r0, r4
 258 0024 F6D1     		bne	.L25
 259              	.LVL24:
 260              	.L22:
 261 0026 38BD     		pop	{r3, r4, r5, pc}
 262              	.LVL25:
 263              	.L29:
 264              		.loc 1 132 0 discriminator 1
 265 0028 0148     		ldr	r0, .L30
 266 002a FFF7FEFF 		bl	chDbgPanic
 267              	.LVL26:
 268 002e ECE7     		b	.L23
 269              	.L31:
 270              		.align	2
 271              	.L30:
 272 0030 38000000 		.word	.LC3
 273              		.cfi_endproc
 274              	.LFE11:
 275              		.size	chCondBroadcastI, .-chCondBroadcastI
 276              		.section	.text.chCondBroadcast,"ax",%progbits
 277              		.align	2
 278              		.p2align 4,,15
 279              		.global	chCondBroadcast
 280              		.thumb
 281              		.thumb_func
 282              		.type	chCondBroadcast, %function
 283              	chCondBroadcast:
 284              	.LFB10:
 285              		.loc 1 110 0
ARM GAS  /tmp/cc47FwhE.s 			page 6


 286              		.cfi_startproc
 287              		@ args = 0, pretend = 0, frame = 0
 288              		@ frame_needed = 0, uses_anonymous_args = 0
 289              	.LVL27:
 290 0000 10B5     		push	{r4, lr}
 291              		.cfi_def_cfa_offset 8
 292              		.cfi_offset 4, -8
 293              		.cfi_offset 14, -4
 294              	.LBB24:
 295              		.loc 1 112 0
 296 0002 2023     		movs	r3, #32
 297              	.LBE24:
 298              		.loc 1 110 0
 299 0004 0446     		mov	r4, r0
 300              	.LBB25:
 301              		.loc 1 112 0
 302              	@ 112 "../../ChibiOS_2.6.5/os/kernel/src/chcond.c" 1
 303 0006 83F31188 		msr     BASEPRI, r3
 304              	@ 0 "" 2
 305              		.thumb
 306              	.LBE25:
 307 000a FFF7FEFF 		bl	dbg_check_lock
 308              	.LVL28:
 309              		.loc 1 113 0
 310 000e 2046     		mov	r0, r4
 311 0010 FFF7FEFF 		bl	chCondBroadcastI
 312              	.LVL29:
 313              		.loc 1 114 0
 314 0014 FFF7FEFF 		bl	chSchRescheduleS
 315              	.LVL30:
 316              		.loc 1 115 0
 317 0018 FFF7FEFF 		bl	dbg_check_unlock
 318              	.LVL31:
 319              	.LBB26:
 320 001c 0023     		movs	r3, #0
 321              	@ 115 "../../ChibiOS_2.6.5/os/kernel/src/chcond.c" 1
 322 001e 83F31188 		msr     BASEPRI, r3
 323              	@ 0 "" 2
 324              		.thumb
 325 0022 10BD     		pop	{r4, pc}
 326              	.LBE26:
 327              		.cfi_endproc
 328              	.LFE10:
 329              		.size	chCondBroadcast, .-chCondBroadcast
 330              		.section	.text.chCondWaitS,"ax",%progbits
 331              		.align	2
 332              		.p2align 4,,15
 333              		.global	chCondWaitS
 334              		.thumb
 335              		.thumb_func
 336              		.type	chCondWaitS, %function
 337              	chCondWaitS:
 338              	.LFB13:
 339              		.loc 1 184 0
 340              		.cfi_startproc
 341              		@ args = 0, pretend = 0, frame = 0
 342              		@ frame_needed = 0, uses_anonymous_args = 0
ARM GAS  /tmp/cc47FwhE.s 			page 7


 343              	.LVL32:
 344              		.loc 1 185 0
 345 0000 154B     		ldr	r3, .L46
 346              		.loc 1 184 0
 347 0002 70B5     		push	{r4, r5, r6, lr}
 348              		.cfi_def_cfa_offset 16
 349              		.cfi_offset 4, -16
 350              		.cfi_offset 5, -12
 351              		.cfi_offset 6, -8
 352              		.cfi_offset 14, -4
 353              		.loc 1 184 0
 354 0004 0546     		mov	r5, r0
 355              		.loc 1 185 0
 356 0006 9C69     		ldr	r4, [r3, #24]
 357              	.LVL33:
 358              		.loc 1 189 0
 359 0008 FFF7FEFF 		bl	chDbgCheckClassS
 360              	.LVL34:
 361              		.loc 1 190 0
 362 000c E5B1     		cbz	r5, .L43
 363              	.L35:
 364              		.loc 1 191 0
 365 000e 236C     		ldr	r3, [r4, #64]
 366 0010 F3B1     		cbz	r3, .L44
 367              	.L36:
 368              		.loc 1 195 0
 369 0012 FFF7FEFF 		bl	chMtxUnlockS
 370              	.LVL35:
 371              		.loc 1 196 0
 372 0016 A562     		str	r5, [r4, #40]
 373              		.loc 1 195 0
 374 0018 0646     		mov	r6, r0
 375              	.LVL36:
 376              	.LBB27:
 377              	.LBB28:
 378              		.loc 2 43 0
 379 001a 2B46     		mov	r3, r5
 380 001c 03E0     		b	.L38
 381              	.LVL37:
 382              	.L45:
 383              		.loc 2 46 0
 384 001e 9968     		ldr	r1, [r3, #8]
 385 0020 A268     		ldr	r2, [r4, #8]
 386 0022 9142     		cmp	r1, r2
 387 0024 02D3     		bcc	.L39
 388              	.L38:
 389              		.loc 2 45 0
 390 0026 1B68     		ldr	r3, [r3]
 391              	.LVL38:
 392              		.loc 2 46 0
 393 0028 9D42     		cmp	r5, r3
 394 002a F8D1     		bne	.L45
 395              	.L39:
 396              		.loc 2 48 0
 397 002c 5A68     		ldr	r2, [r3, #4]
 398 002e 6260     		str	r2, [r4, #4]
 399              		.loc 2 47 0
ARM GAS  /tmp/cc47FwhE.s 			page 8


 400 0030 2360     		str	r3, [r4]
 401              	.LBE28:
 402              	.LBE27:
 403              		.loc 1 198 0
 404 0032 0520     		movs	r0, #5
 405              	.LVL39:
 406              	.LBB30:
 407              	.LBB29:
 408              		.loc 2 49 0
 409 0034 5C60     		str	r4, [r3, #4]
 410 0036 1460     		str	r4, [r2]
 411              	.LBE29:
 412              	.LBE30:
 413              		.loc 1 198 0
 414 0038 FFF7FEFF 		bl	chSchGoSleepS
 415              	.LVL40:
 416              		.loc 1 199 0
 417 003c A46A     		ldr	r4, [r4, #40]
 418              	.LVL41:
 419              		.loc 1 200 0
 420 003e 3046     		mov	r0, r6
 421 0040 FFF7FEFF 		bl	chMtxLockS
 422              	.LVL42:
 423              		.loc 1 202 0
 424 0044 2046     		mov	r0, r4
 425 0046 70BD     		pop	{r4, r5, r6, pc}
 426              	.LVL43:
 427              	.L43:
 428              		.loc 1 190 0 discriminator 1
 429 0048 0448     		ldr	r0, .L46+4
 430 004a FFF7FEFF 		bl	chDbgPanic
 431              	.LVL44:
 432 004e DEE7     		b	.L35
 433              	.L44:
 434              		.loc 1 191 0 discriminator 1
 435 0050 0348     		ldr	r0, .L46+8
 436 0052 FFF7FEFF 		bl	chDbgPanic
 437              	.LVL45:
 438 0056 DCE7     		b	.L36
 439              	.L47:
 440              		.align	2
 441              	.L46:
 442 0058 00000000 		.word	rlist
 443 005c 50000000 		.word	.LC4
 444 0060 60000000 		.word	.LC5
 445              		.cfi_endproc
 446              	.LFE13:
 447              		.size	chCondWaitS, .-chCondWaitS
 448              		.section	.text.chCondWait,"ax",%progbits
 449              		.align	2
 450              		.p2align 4,,15
 451              		.global	chCondWait
 452              		.thumb
 453              		.thumb_func
 454              		.type	chCondWait, %function
 455              	chCondWait:
 456              	.LFB12:
ARM GAS  /tmp/cc47FwhE.s 			page 9


 457              		.loc 1 158 0
 458              		.cfi_startproc
 459              		@ args = 0, pretend = 0, frame = 0
 460              		@ frame_needed = 0, uses_anonymous_args = 0
 461              	.LVL46:
 462 0000 10B5     		push	{r4, lr}
 463              		.cfi_def_cfa_offset 8
 464              		.cfi_offset 4, -8
 465              		.cfi_offset 14, -4
 466              	.LBB31:
 467              		.loc 1 161 0
 468 0002 2023     		movs	r3, #32
 469              	.LBE31:
 470              		.loc 1 158 0
 471 0004 0446     		mov	r4, r0
 472              	.LBB32:
 473              		.loc 1 161 0
 474              	@ 161 "../../ChibiOS_2.6.5/os/kernel/src/chcond.c" 1
 475 0006 83F31188 		msr     BASEPRI, r3
 476              	@ 0 "" 2
 477              		.thumb
 478              	.LBE32:
 479 000a FFF7FEFF 		bl	dbg_check_lock
 480              	.LVL47:
 481              		.loc 1 162 0
 482 000e 2046     		mov	r0, r4
 483 0010 FFF7FEFF 		bl	chCondWaitS
 484              	.LVL48:
 485 0014 0446     		mov	r4, r0
 486              	.LVL49:
 487              		.loc 1 163 0
 488 0016 FFF7FEFF 		bl	dbg_check_unlock
 489              	.LVL50:
 490              	.LBB33:
 491 001a 0023     		movs	r3, #0
 492              	@ 163 "../../ChibiOS_2.6.5/os/kernel/src/chcond.c" 1
 493 001c 83F31188 		msr     BASEPRI, r3
 494              	@ 0 "" 2
 495              		.thumb
 496              	.LBE33:
 497              		.loc 1 165 0
 498 0020 2046     		mov	r0, r4
 499 0022 10BD     		pop	{r4, pc}
 500              		.cfi_endproc
 501              	.LFE12:
 502              		.size	chCondWait, .-chCondWait
 503              		.section	.text.chCondWaitTimeoutS,"ax",%progbits
 504              		.align	2
 505              		.p2align 4,,15
 506              		.global	chCondWaitTimeoutS
 507              		.thumb
 508              		.thumb_func
 509              		.type	chCondWaitTimeoutS, %function
 510              	chCondWaitTimeoutS:
 511              	.LFB15:
 512              		.loc 1 270 0
 513              		.cfi_startproc
ARM GAS  /tmp/cc47FwhE.s 			page 10


 514              		@ args = 0, pretend = 0, frame = 0
 515              		@ frame_needed = 0, uses_anonymous_args = 0
 516              	.LVL51:
 517 0000 F8B5     		push	{r3, r4, r5, r6, r7, lr}
 518              		.cfi_def_cfa_offset 24
 519              		.cfi_offset 3, -24
 520              		.cfi_offset 4, -20
 521              		.cfi_offset 5, -16
 522              		.cfi_offset 6, -12
 523              		.cfi_offset 7, -8
 524              		.cfi_offset 14, -4
 525              		.loc 1 270 0
 526 0002 0546     		mov	r5, r0
 527 0004 0F46     		mov	r7, r1
 528              		.loc 1 274 0
 529 0006 FFF7FEFF 		bl	chDbgCheckClassS
 530              	.LVL52:
 531              		.loc 1 275 0
 532 000a 1DB3     		cbz	r5, .L51
 533              		.loc 1 275 0 is_stmt 0 discriminator 2
 534 000c 17B3     		cbz	r7, .L51
 535              	.L52:
 536              		.loc 1 276 0 is_stmt 1
 537 000e 154C     		ldr	r4, .L65
 538 0010 A369     		ldr	r3, [r4, #24]
 539 0012 1B6C     		ldr	r3, [r3, #64]
 540 0014 13B3     		cbz	r3, .L64
 541              	.L53:
 542              		.loc 1 280 0
 543 0016 FFF7FEFF 		bl	chMtxUnlockS
 544              	.LVL53:
 545              		.loc 1 281 0
 546 001a A469     		ldr	r4, [r4, #24]
 547              		.loc 1 280 0
 548 001c 0646     		mov	r6, r0
 549              	.LVL54:
 550              	.LBB34:
 551              	.LBB35:
 552              		.loc 2 43 0
 553 001e 2B46     		mov	r3, r5
 554              	.LBE35:
 555              	.LBE34:
 556              		.loc 1 281 0
 557 0020 A562     		str	r5, [r4, #40]
 558              	.LVL55:
 559 0022 03E0     		b	.L57
 560              	.LVL56:
 561              	.L54:
 562              	.LBB39:
 563              	.LBB36:
 564              		.loc 2 46 0
 565 0024 9968     		ldr	r1, [r3, #8]
 566 0026 A268     		ldr	r2, [r4, #8]
 567 0028 9142     		cmp	r1, r2
 568 002a 02D3     		bcc	.L58
 569              	.L57:
 570              		.loc 2 45 0
ARM GAS  /tmp/cc47FwhE.s 			page 11


 571 002c 1B68     		ldr	r3, [r3]
 572              	.LVL57:
 573              		.loc 2 46 0
 574 002e 9D42     		cmp	r5, r3
 575 0030 F8D1     		bne	.L54
 576              	.L58:
 577              		.loc 2 48 0
 578 0032 5A68     		ldr	r2, [r3, #4]
 579 0034 6260     		str	r2, [r4, #4]
 580              		.loc 2 47 0
 581 0036 2360     		str	r3, [r4]
 582              	.LBE36:
 583              	.LBE39:
 584              		.loc 1 283 0
 585 0038 3946     		mov	r1, r7
 586              	.LBB40:
 587              	.LBB37:
 588              		.loc 2 49 0
 589 003a 5C60     		str	r4, [r3, #4]
 590              	.LBE37:
 591              	.LBE40:
 592              		.loc 1 283 0
 593 003c 0520     		movs	r0, #5
 594              	.LVL58:
 595              	.LBB41:
 596              	.LBB38:
 597              		.loc 2 49 0
 598 003e 1460     		str	r4, [r2]
 599              	.LBE38:
 600              	.LBE41:
 601              		.loc 1 283 0
 602 0040 FFF7FEFF 		bl	chSchGoSleepTimeoutS
 603              	.LVL59:
 604              		.loc 1 284 0
 605 0044 431C     		adds	r3, r0, #1
 606              		.loc 1 283 0
 607 0046 0446     		mov	r4, r0
 608              	.LVL60:
 609              		.loc 1 284 0
 610 0048 02D0     		beq	.L56
 611              		.loc 1 285 0
 612 004a 3046     		mov	r0, r6
 613              	.LVL61:
 614 004c FFF7FEFF 		bl	chMtxLockS
 615              	.LVL62:
 616              	.L56:
 617              		.loc 1 287 0
 618 0050 2046     		mov	r0, r4
 619 0052 F8BD     		pop	{r3, r4, r5, r6, r7, pc}
 620              	.LVL63:
 621              	.L51:
 622              		.loc 1 275 0 discriminator 3
 623 0054 0448     		ldr	r0, .L65+4
 624 0056 FFF7FEFF 		bl	chDbgPanic
 625              	.LVL64:
 626 005a D8E7     		b	.L52
 627              	.L64:
ARM GAS  /tmp/cc47FwhE.s 			page 12


 628              		.loc 1 276 0 discriminator 1
 629 005c 0348     		ldr	r0, .L65+8
 630 005e FFF7FEFF 		bl	chDbgPanic
 631              	.LVL65:
 632 0062 D8E7     		b	.L53
 633              	.L66:
 634              		.align	2
 635              	.L65:
 636 0064 00000000 		.word	rlist
 637 0068 74000000 		.word	.LC6
 638 006c 8C000000 		.word	.LC7
 639              		.cfi_endproc
 640              	.LFE15:
 641              		.size	chCondWaitTimeoutS, .-chCondWaitTimeoutS
 642              		.section	.text.chCondWaitTimeout,"ax",%progbits
 643              		.align	2
 644              		.p2align 4,,15
 645              		.global	chCondWaitTimeout
 646              		.thumb
 647              		.thumb_func
 648              		.type	chCondWaitTimeout, %function
 649              	chCondWaitTimeout:
 650              	.LFB14:
 651              		.loc 1 233 0
 652              		.cfi_startproc
 653              		@ args = 0, pretend = 0, frame = 0
 654              		@ frame_needed = 0, uses_anonymous_args = 0
 655              	.LVL66:
 656 0000 38B5     		push	{r3, r4, r5, lr}
 657              		.cfi_def_cfa_offset 16
 658              		.cfi_offset 3, -16
 659              		.cfi_offset 4, -12
 660              		.cfi_offset 5, -8
 661              		.cfi_offset 14, -4
 662              		.loc 1 233 0
 663 0002 0546     		mov	r5, r0
 664 0004 0C46     		mov	r4, r1
 665              	.LBB42:
 666              		.loc 1 236 0
 667 0006 2023     		movs	r3, #32
 668              	@ 236 "../../ChibiOS_2.6.5/os/kernel/src/chcond.c" 1
 669 0008 83F31188 		msr     BASEPRI, r3
 670              	@ 0 "" 2
 671              		.thumb
 672              	.LBE42:
 673 000c FFF7FEFF 		bl	dbg_check_lock
 674              	.LVL67:
 675              		.loc 1 237 0
 676 0010 2146     		mov	r1, r4
 677 0012 2846     		mov	r0, r5
 678 0014 FFF7FEFF 		bl	chCondWaitTimeoutS
 679              	.LVL68:
 680 0018 0446     		mov	r4, r0
 681              	.LVL69:
 682              		.loc 1 238 0
 683 001a FFF7FEFF 		bl	dbg_check_unlock
 684              	.LVL70:
ARM GAS  /tmp/cc47FwhE.s 			page 13


 685              	.LBB43:
 686 001e 0023     		movs	r3, #0
 687              	@ 238 "../../ChibiOS_2.6.5/os/kernel/src/chcond.c" 1
 688 0020 83F31188 		msr     BASEPRI, r3
 689              	@ 0 "" 2
 690              		.thumb
 691              	.LBE43:
 692              		.loc 1 240 0
 693 0024 2046     		mov	r0, r4
 694 0026 38BD     		pop	{r3, r4, r5, pc}
 695              		.cfi_endproc
 696              	.LFE14:
 697              		.size	chCondWaitTimeout, .-chCondWaitTimeout
 698              		.section	.rodata.str1.4,"aMS",%progbits,1
 699              		.align	2
 700              	.LC0:
 701 0000 22636843 		.ascii	"\"chCondInit\"()\000"
 701      6F6E6449 
 701      6E697422 
 701      282900
 702 000f 00       		.space	1
 703              	.LC1:
 704 0010 22636843 		.ascii	"\"chCondSignal\"()\000"
 704      6F6E6453 
 704      69676E61 
 704      6C222829 
 704      00
 705 0021 000000   		.space	3
 706              	.LC2:
 707 0024 22636843 		.ascii	"\"chCondSignalI\"()\000"
 707      6F6E6453 
 707      69676E61 
 707      6C492228 
 707      2900
 708 0036 0000     		.space	2
 709              	.LC3:
 710 0038 22636843 		.ascii	"\"chCondBroadcastI\"()\000"
 710      6F6E6442 
 710      726F6164 
 710      63617374 
 710      49222829 
 711 004d 000000   		.space	3
 712              	.LC4:
 713 0050 22636843 		.ascii	"\"chCondWaitS\"()\000"
 713      6F6E6457 
 713      61697453 
 713      22282900 
 714              	.LC5:
 715 0060 6368436F 		.ascii	"chCondWaitS(), #1\000"
 715      6E645761 
 715      69745328 
 715      292C2023 
 715      3100
 716 0072 0000     		.space	2
 717              	.LC6:
 718 0074 22636843 		.ascii	"\"chCondWaitTimeoutS\"()\000"
 718      6F6E6457 
ARM GAS  /tmp/cc47FwhE.s 			page 14


 718      61697454 
 718      696D656F 
 718      75745322 
 719 008b 00       		.space	1
 720              	.LC7:
 721 008c 6368436F 		.ascii	"chCondWaitTimeoutS(), #1\000"
 721      6E645761 
 721      69745469 
 721      6D656F75 
 721      74532829 
 722              		.text
 723              	.Letext0:
 724              		.file 3 "/usr/include/newlib/machine/_default_types.h"
 725              		.file 4 "/usr/include/newlib/sys/_stdint.h"
 726              		.file 5 "../../ChibiOS_2.6.5/os/ports/GCC/ARMCMx/chtypes.h"
 727              		.file 6 "../../ChibiOS_2.6.5/os/kernel/include/chlists.h"
 728              		.file 7 "../../ChibiOS_2.6.5/os/kernel/include/chthreads.h"
 729              		.file 8 "../../ChibiOS_2.6.5/os/ports/GCC/ARMCMx/chcore_v7m.h"
 730              		.file 9 "../../ChibiOS_2.6.5/os/kernel/include/chschd.h"
 731              		.file 10 "../../ChibiOS_2.6.5/os/kernel/include/chmtx.h"
 732              		.file 11 "../../ChibiOS_2.6.5/os/kernel/include/chcond.h"
 733              		.file 12 "../../ChibiOS_2.6.5/os/kernel/include/chdebug.h"