ARM GAS  /tmp/ccZeMwW6.s 			page 1


   1              		.syntax unified
   2              		.cpu cortex-m4
   3              		.fpu softvfp
   4              		.eabi_attribute 20, 1
   5              		.eabi_attribute 21, 1
   6              		.eabi_attribute 23, 3
   7              		.eabi_attribute 24, 1
   8              		.eabi_attribute 25, 1
   9              		.eabi_attribute 26, 1
  10              		.eabi_attribute 30, 2
  11              		.eabi_attribute 34, 1
  12              		.eabi_attribute 18, 4
  13              		.thumb
  14              		.file	"chcore_v7m.c"
  15              		.text
  16              	.Ltext0:
  17              		.cfi_sections	.debug_frame
  18              		.section	.text._port_switch_from_isr,"ax",%progbits
  19              		.align	2
  20              		.p2align 4,,15
  21              		.global	_port_switch_from_isr
  22              		.thumb
  23              		.thumb_func
  24              		.type	_port_switch_from_isr, %function
  25              	_port_switch_from_isr:
  26              	.LFB11:
  27              		.file 1 "../../ChibiOS_2.6.5/os/ports/GCC/ARMCMx/chcore_v7m.c"
  28              		.loc 1 197 0
  29              		.cfi_startproc
  30              		@ Naked Function: prologue and epilogue provided by programmer.
  31              		@ args = 0, pretend = 0, frame = 0
  32              		@ frame_needed = 0, uses_anonymous_args = 0
  33              		.loc 1 199 0
  34 0000 FFF7FEFF 		bl	dbg_check_lock
  35              	.LVL0:
  36              		.loc 1 200 0
  37 0004 FFF7FEFF 		bl	chSchDoReschedule
  38              	.LVL1:
  39              		.loc 1 201 0
  40 0008 FFF7FEFF 		bl	dbg_check_unlock
  41              	.LVL2:
  42              		.loc 1 202 0
  43              	@ 202 "../../ChibiOS_2.6.5/os/ports/GCC/ARMCMx/chcore_v7m.c" 1
  44              		_port_exit_from_isr:
  45              	@ 0 "" 2
  46              		.loc 1 204 0
  47              	@ 204 "../../ChibiOS_2.6.5/os/ports/GCC/ARMCMx/chcore_v7m.c" 1
  48 000c 00DF     		svc     #0
  49              	@ 0 "" 2
  50              		.loc 1 211 0
  51              		.thumb
  52              		.cfi_endproc
  53              	.LFE11:
  54              		.size	_port_switch_from_isr, .-_port_switch_from_isr
  55 000e 00BF     		.section	.text.SVCallVector,"ax",%progbits
  56              		.align	2
  57              		.p2align 4,,15
ARM GAS  /tmp/ccZeMwW6.s 			page 2


  58              		.global	SVCallVector
  59              		.thumb
  60              		.thumb_func
  61              		.type	SVCallVector, %function
  62              	SVCallVector:
  63              	.LFB8:
  64              		.loc 1 65 0
  65              		.cfi_startproc
  66              		@ args = 0, pretend = 0, frame = 0
  67              		@ frame_needed = 0, uses_anonymous_args = 0
  68              		@ link register save eliminated.
  69              		.loc 1 74 0
  70              	@ 74 "../../ChibiOS_2.6.5/os/ports/GCC/ARMCMx/chcore_v7m.c" 1
  71 0000 EFF30983 		mrs     r3, PSP
  72              	@ 0 "" 2
  73              	.LVL3:
  74              		.loc 1 78 0
  75              		.thumb
  76 0004 2033     		adds	r3, r3, #32
  77              	.LVL4:
  78              		.loc 1 81 0
  79              	@ 81 "../../ChibiOS_2.6.5/os/ports/GCC/ARMCMx/chcore_v7m.c" 1
  80 0006 83F30988 		msr     PSP, r3
  81              	@ 0 "" 2
  82              		.thumb
  83              	.LBB5:
  84              		.loc 1 82 0
  85 000a 0023     		movs	r3, #0
  86              	.LVL5:
  87              	@ 82 "../../ChibiOS_2.6.5/os/ports/GCC/ARMCMx/chcore_v7m.c" 1
  88 000c 83F31188 		msr     BASEPRI, r3
  89              	@ 0 "" 2
  90              		.thumb
  91 0010 7047     		bx	lr
  92              	.LBE5:
  93              		.cfi_endproc
  94              	.LFE8:
  95              		.size	SVCallVector, .-SVCallVector
  96 0012 00BF     		.section	.text._port_init,"ax",%progbits
  97              		.align	2
  98              		.p2align 4,,15
  99              		.global	_port_init
 100              		.thumb
 101              		.thumb_func
 102              		.type	_port_init, %function
 103              	_port_init:
 104              	.LFB9:
 105              		.loc 1 120 0
 106              		.cfi_startproc
 107              		@ args = 0, pretend = 0, frame = 0
 108              		@ frame_needed = 0, uses_anonymous_args = 0
 109 0000 08B5     		push	{r3, lr}
 110              		.cfi_def_cfa_offset 8
 111              		.cfi_offset 3, -8
 112              		.cfi_offset 14, -4
 113              		.loc 1 123 0
 114 0002 094B     		ldr	r3, .L5
ARM GAS  /tmp/ccZeMwW6.s 			page 3


 115              		.loc 1 124 0
 116 0004 094A     		ldr	r2, .L5+4
 117              		.loc 1 123 0
 118 0006 0021     		movs	r1, #0
 119 0008 9960     		str	r1, [r3, #8]
 120              		.loc 1 127 0
 121 000a 0720     		movs	r0, #7
 122              		.loc 1 124 0
 123 000c DA60     		str	r2, [r3, #12]
 124              		.loc 1 127 0
 125 000e 1021     		movs	r1, #16
 126 0010 FFF7FEFF 		bl	nvicSetSystemHandlerPriority
 127              	.LVL6:
 128              		.loc 1 129 0
 129 0014 0A20     		movs	r0, #10
 130 0016 2021     		movs	r1, #32
 131 0018 FFF7FEFF 		bl	nvicSetSystemHandlerPriority
 132              	.LVL7:
 133              		.loc 1 131 0
 134 001c 0B20     		movs	r0, #11
 135 001e 8021     		movs	r1, #128
 136              		.loc 1 133 0
 137 0020 BDE80840 		pop	{r3, lr}
 138              		.cfi_restore 14
 139              		.cfi_restore 3
 140              		.cfi_def_cfa_offset 0
 141              		.loc 1 131 0
 142 0024 FFF7FEBF 		b	nvicSetSystemHandlerPriority
 143              	.LVL8:
 144              	.L6:
 145              		.align	2
 146              	.L5:
 147 0028 00ED00E0 		.word	-536810240
 148 002c 0003FA05 		.word	100270848
 149              		.cfi_endproc
 150              	.LFE9:
 151              		.size	_port_init, .-_port_init
 152              		.section	.text._port_irq_epilogue,"ax",%progbits
 153              		.align	2
 154              		.p2align 4,,15
 155              		.global	_port_irq_epilogue
 156              		.thumb
 157              		.thumb_func
 158              		.type	_port_irq_epilogue, %function
 159              	_port_irq_epilogue:
 160              	.LFB10:
 161              		.loc 1 150 0
 162              		.cfi_startproc
 163              		@ args = 0, pretend = 0, frame = 0
 164              		@ frame_needed = 0, uses_anonymous_args = 0
 165              		@ link register save eliminated.
 166              	.LBB14:
 167              		.loc 1 152 0
 168 0000 2023     		movs	r3, #32
 169              	@ 152 "../../ChibiOS_2.6.5/os/ports/GCC/ARMCMx/chcore_v7m.c" 1
 170 0002 83F31188 		msr     BASEPRI, r3
 171              	@ 0 "" 2
ARM GAS  /tmp/ccZeMwW6.s 			page 4


 172              		.thumb
 173              	.LBE14:
 174              		.loc 1 153 0
 175 0006 184B     		ldr	r3, .L15
 176 0008 5B68     		ldr	r3, [r3, #4]
 177 000a 13F40063 		ands	r3, r3, #2048
 178 000e 1AD0     		beq	.L8
 179              	.LBB15:
 180              	.LBB16:
 181              		.loc 1 163 0
 182              	@ 163 "../../ChibiOS_2.6.5/os/ports/GCC/ARMCMx/chcore_v7m.c" 1
 183 0010 EFF30983 		mrs     r3, PSP
 184              	@ 0 "" 2
 185              	.LVL9:
 186              		.loc 1 168 0
 187              		.thumb
 188 0014 4FF08072 		mov	r2, #16777216
 189 0018 43F8042C 		str	r2, [r3, #-4]
 190              		.loc 1 167 0
 191 001c A3F12002 		sub	r2, r3, #32
 192              	.LVL10:
 193              		.loc 1 169 0
 194              	@ 169 "../../ChibiOS_2.6.5/os/ports/GCC/ARMCMx/chcore_v7m.c" 1
 195 0020 82F30988 		msr     PSP, r2
 196              	@ 0 "" 2
 197              		.loc 1 173 0
 198              		.thumb
 199 0024 1149     		ldr	r1, .L15+4
 200 0026 8A69     		ldr	r2, [r1, #24]
 201              	.LVL11:
 202 0028 92F82300 		ldrb	r0, [r2, #35]	@ zero_extendqisi2
 203 002c 70B1     		cbz	r0, .L9
 204 002e 0868     		ldr	r0, [r1]
 205 0030 9168     		ldr	r1, [r2, #8]
 206 0032 8268     		ldr	r2, [r0, #8]
 207 0034 8A42     		cmp	r2, r1
 208 0036 94BF     		ite	ls
 209 0038 0022     		movls	r2, #0
 210 003a 0122     		movhi	r2, #1
 211 003c 7AB1     		cbz	r2, .L11
 212              	.L14:
 213              		.loc 1 175 0
 214 003e 0C4A     		ldr	r2, .L15+8
 215 0040 43F8082C 		str	r2, [r3, #-8]
 216 0044 7047     		bx	lr
 217              	.LVL12:
 218              	.L8:
 219              	.LBE16:
 220              	.LBE15:
 221              	.LBB18:
 222              		.loc 1 187 0
 223              	@ 187 "../../ChibiOS_2.6.5/os/ports/GCC/ARMCMx/chcore_v7m.c" 1
 224 0046 83F31188 		msr     BASEPRI, r3
 225              	@ 0 "" 2
 226              		.thumb
 227 004a 7047     		bx	lr
 228              	.LVL13:
ARM GAS  /tmp/ccZeMwW6.s 			page 5


 229              	.L9:
 230              	.LBE18:
 231              	.LBB19:
 232              	.LBB17:
 233              		.loc 1 173 0
 234 004c 0868     		ldr	r0, [r1]
 235 004e 9168     		ldr	r1, [r2, #8]
 236 0050 8268     		ldr	r2, [r0, #8]
 237 0052 8A42     		cmp	r2, r1
 238 0054 34BF     		ite	cc
 239 0056 0022     		movcc	r2, #0
 240 0058 0122     		movcs	r2, #1
 241 005a 002A     		cmp	r2, #0
 242 005c EFD1     		bne	.L14
 243              	.L11:
 244              		.loc 1 180 0
 245 005e 054A     		ldr	r2, .L15+12
 246 0060 43F8082C 		str	r2, [r3, #-8]
 247 0064 7047     		bx	lr
 248              	.L16:
 249 0066 00BF     		.align	2
 250              	.L15:
 251 0068 00ED00E0 		.word	-536810240
 252 006c 00000000 		.word	rlist
 253 0070 00000000 		.word	_port_switch_from_isr
 254 0074 0C000000 		.word	_port_exit_from_isr
 255              	.LBE17:
 256              	.LBE19:
 257              		.cfi_endproc
 258              	.LFE10:
 259              		.size	_port_irq_epilogue, .-_port_irq_epilogue
 260              		.section	.text.SysTickVector,"ax",%progbits
 261              		.align	2
 262              		.p2align 4,,15
 263              		.global	SysTickVector
 264              		.thumb
 265              		.thumb_func
 266              		.type	SysTickVector, %function
 267              	SysTickVector:
 268              	.LFB7:
 269              		.loc 1 47 0
 270              		.cfi_startproc
 271              		@ args = 0, pretend = 0, frame = 0
 272              		@ frame_needed = 0, uses_anonymous_args = 0
 273 0000 08B5     		push	{r3, lr}
 274              		.cfi_def_cfa_offset 8
 275              		.cfi_offset 3, -8
 276              		.cfi_offset 14, -4
 277              		.loc 1 49 0
 278 0002 FFF7FEFF 		bl	dbg_check_enter_isr
 279              	.LVL14:
 280              	.LBB20:
 281              		.loc 1 51 0
 282 0006 2023     		movs	r3, #32
 283              	@ 51 "../../ChibiOS_2.6.5/os/ports/GCC/ARMCMx/chcore_v7m.c" 1
 284 0008 83F31188 		msr     BASEPRI, r3
 285              	@ 0 "" 2
ARM GAS  /tmp/ccZeMwW6.s 			page 6


 286              		.thumb
 287              	.LBE20:
 288 000c FFF7FEFF 		bl	dbg_check_lock_from_isr
 289              	.LVL15:
 290              		.loc 1 52 0
 291 0010 FFF7FEFF 		bl	chSysTimerHandlerI
 292              	.LVL16:
 293              		.loc 1 53 0
 294 0014 FFF7FEFF 		bl	dbg_check_unlock_from_isr
 295              	.LVL17:
 296              	.LBB21:
 297 0018 0023     		movs	r3, #0
 298              	@ 53 "../../ChibiOS_2.6.5/os/ports/GCC/ARMCMx/chcore_v7m.c" 1
 299 001a 83F31188 		msr     BASEPRI, r3
 300              	@ 0 "" 2
 301              		.thumb
 302              	.LBE21:
 303              		.loc 1 55 0
 304 001e FFF7FEFF 		bl	dbg_check_leave_isr
 305              	.LVL18:
 306              		.loc 1 56 0
 307 0022 BDE80840 		pop	{r3, lr}
 308              		.cfi_restore 14
 309              		.cfi_restore 3
 310              		.cfi_def_cfa_offset 0
 311              		.loc 1 55 0
 312 0026 FFF7FEBF 		b	_port_irq_epilogue
 313              	.LVL19:
 314              		.cfi_endproc
 315              	.LFE7:
 316              		.size	SysTickVector, .-SysTickVector
 317 002a 00BF     		.section	.text._port_switch,"ax",%progbits
 318              		.align	2
 319              		.p2align 4,,15
 320              		.global	_port_switch
 321              		.thumb
 322              		.thumb_func
 323              		.type	_port_switch, %function
 324              	_port_switch:
 325              	.LFB12:
 326              		.loc 1 226 0
 327              		.cfi_startproc
 328              		@ Naked Function: prologue and epilogue provided by programmer.
 329              		@ args = 0, pretend = 0, frame = 0
 330              		@ frame_needed = 0, uses_anonymous_args = 0
 331              	.LVL20:
 332              		.loc 1 228 0
 333              	@ 228 "../../ChibiOS_2.6.5/os/ports/GCC/ARMCMx/chcore_v7m.c" 1
 334 0000 2DE9F04F 		push    {r4, r5, r6, r7, r8, r9, r10, r11, lr}
 335              	@ 0 "" 2
 336              		.loc 1 234 0
 337              	@ 234 "../../ChibiOS_2.6.5/os/ports/GCC/ARMCMx/chcore_v7m.c" 1
 338 0004 C1F80CD0 		str     sp, [r1, #12]                          
 339 0008 D0F80CD0 		ldr     sp, [r0, #12]
 340              	@ 0 "" 2
 341              		.loc 1 240 0
 342              	@ 240 "../../ChibiOS_2.6.5/os/ports/GCC/ARMCMx/chcore_v7m.c" 1
ARM GAS  /tmp/ccZeMwW6.s 			page 7


 343 000c BDE8F08F 		pop     {r4, r5, r6, r7, r8, r9, r10, r11, pc}
 344              	@ 0 "" 2
 345              		.loc 1 242 0
 346              		.thumb
 347              		.cfi_endproc
 348              	.LFE12:
 349              		.size	_port_switch, .-_port_switch
 350              		.section	.text._port_thread_start,"ax",%progbits
 351              		.align	2
 352              		.p2align 4,,15
 353              		.global	_port_thread_start
 354              		.thumb
 355              		.thumb_func
 356              		.type	_port_thread_start, %function
 357              	_port_thread_start:
 358              	.LFB13:
 359              		.loc 1 249 0
 360              		.cfi_startproc
 361              		@ args = 0, pretend = 0, frame = 0
 362              		@ frame_needed = 0, uses_anonymous_args = 0
 363 0000 08B5     		push	{r3, lr}
 364              		.cfi_def_cfa_offset 8
 365              		.cfi_offset 3, -8
 366              		.cfi_offset 14, -4
 367              		.loc 1 251 0
 368 0002 FFF7FEFF 		bl	dbg_check_unlock
 369              	.LVL21:
 370              	.LBB22:
 371 0006 0023     		movs	r3, #0
 372              	@ 251 "../../ChibiOS_2.6.5/os/ports/GCC/ARMCMx/chcore_v7m.c" 1
 373 0008 83F31188 		msr     BASEPRI, r3
 374              	@ 0 "" 2
 375              		.thumb
 376              	.LBE22:
 377              		.loc 1 252 0
 378              	@ 252 "../../ChibiOS_2.6.5/os/ports/GCC/ARMCMx/chcore_v7m.c" 1
 379 000c 2846     		mov     r0, r5                                 
 380 000e A047     		blx     r4                                     
 381 0010 FFF7FEFF 		bl      chThdExit
 382              	@ 0 "" 2
 383              		.thumb
 384 0014 08BD     		pop	{r3, pc}
 385              		.cfi_endproc
 386              	.LFE13:
 387              		.size	_port_thread_start, .-_port_thread_start
 388 0016 00BF     		.text
 389              	.Letext0:
 390              		.file 2 "/usr/include/newlib/machine/_default_types.h"
 391              		.file 3 "/usr/include/newlib/sys/_stdint.h"
 392              		.file 4 "../../ChibiOS_2.6.5/os/ports/GCC/ARMCMx/chtypes.h"
 393              		.file 5 "../../ChibiOS_2.6.5/os/kernel/include/chlists.h"
 394              		.file 6 "../../ChibiOS_2.6.5/os/kernel/include/chthreads.h"
 395              		.file 7 "../../ChibiOS_2.6.5/os/ports/GCC/ARMCMx/chcore_v7m.h"
 396              		.file 8 "../../ChibiOS_2.6.5/os/ports/common/ARMCMx/nvic.h"
 397              		.file 9 "../../ChibiOS_2.6.5/os/kernel/include/chschd.h"
 398              		.file 10 "../../ChibiOS_2.6.5/os/kernel/include/chmtx.h"
 399              		.file 11 "../../ChibiOS_2.6.5/os/kernel/include/chdebug.h"
ARM GAS  /tmp/ccZeMwW6.s 			page 8


 400              		.file 12 "../../ChibiOS_2.6.5/os/kernel/include/chsys.h"