ARM GAS  /tmp/cckmbU6m.s 			page 1


   1              		.syntax unified
   2              		.cpu cortex-m4
   3              		.fpu softvfp
   4              		.eabi_attribute 20, 1
   5              		.eabi_attribute 21, 1
   6              		.eabi_attribute 23, 3
   7              		.eabi_attribute 24, 1
   8              		.eabi_attribute 25, 1
   9              		.eabi_attribute 26, 1
  10              		.eabi_attribute 30, 2
  11              		.eabi_attribute 34, 1
  12              		.eabi_attribute 18, 4
  13              		.thumb
  14              		.file	"chdynamic.c"
  15              		.text
  16              	.Ltext0:
  17              		.cfi_sections	.debug_frame
  18              		.section	.text.chThdAddRef,"ax",%progbits
  19              		.align	2
  20              		.p2align 4,,15
  21              		.global	chThdAddRef
  22              		.thumb
  23              		.thumb_func
  24              		.type	chThdAddRef, %function
  25              	chThdAddRef:
  26              	.LFB7:
  27              		.file 1 "../../ChibiOS_2.6.5/os/kernel/src/chdynamic.c"
  28              		.loc 1 52 0
  29              		.cfi_startproc
  30              		@ args = 0, pretend = 0, frame = 0
  31              		@ frame_needed = 0, uses_anonymous_args = 0
  32              	.LVL0:
  33 0000 10B5     		push	{r4, lr}
  34              		.cfi_def_cfa_offset 8
  35              		.cfi_offset 4, -8
  36              		.cfi_offset 14, -4
  37              	.LBB2:
  38              		.loc 1 54 0
  39 0002 2023     		movs	r3, #32
  40              	.LBE2:
  41              		.loc 1 52 0
  42 0004 0446     		mov	r4, r0
  43              	.LBB3:
  44              		.loc 1 54 0
  45              	@ 54 "../../ChibiOS_2.6.5/os/kernel/src/chdynamic.c" 1
  46 0006 83F31188 		msr     BASEPRI, r3
  47              	@ 0 "" 2
  48              		.thumb
  49              	.LBE3:
  50 000a FFF7FEFF 		bl	dbg_check_lock
  51              	.LVL1:
  52              		.loc 1 55 0
  53 000e 94F82230 		ldrb	r3, [r4, #34]	@ zero_extendqisi2
  54 0012 FF2B     		cmp	r3, #255
  55 0014 09D0     		beq	.L5
  56              	.L2:
  57              		.loc 1 56 0
ARM GAS  /tmp/cckmbU6m.s 			page 2


  58 0016 0133     		adds	r3, r3, #1
  59 0018 84F82230 		strb	r3, [r4, #34]
  60              		.loc 1 57 0
  61 001c FFF7FEFF 		bl	dbg_check_unlock
  62              	.LVL2:
  63              	.LBB4:
  64 0020 0023     		movs	r3, #0
  65              	@ 57 "../../ChibiOS_2.6.5/os/kernel/src/chdynamic.c" 1
  66 0022 83F31188 		msr     BASEPRI, r3
  67              	@ 0 "" 2
  68              		.thumb
  69              	.LBE4:
  70              		.loc 1 59 0
  71 0026 2046     		mov	r0, r4
  72 0028 10BD     		pop	{r4, pc}
  73              	.LVL3:
  74              	.L5:
  75              		.loc 1 55 0 discriminator 1
  76 002a 0348     		ldr	r0, .L6
  77 002c FFF7FEFF 		bl	chDbgPanic
  78              	.LVL4:
  79 0030 94F82230 		ldrb	r3, [r4, #34]	@ zero_extendqisi2
  80 0034 EFE7     		b	.L2
  81              	.L7:
  82 0036 00BF     		.align	2
  83              	.L6:
  84 0038 00000000 		.word	.LC0
  85              		.cfi_endproc
  86              	.LFE7:
  87              		.size	chThdAddRef, .-chThdAddRef
  88              		.section	.text.chThdRelease,"ax",%progbits
  89              		.align	2
  90              		.p2align 4,,15
  91              		.global	chThdRelease
  92              		.thumb
  93              		.thumb_func
  94              		.type	chThdRelease, %function
  95              	chThdRelease:
  96              	.LFB8:
  97              		.loc 1 74 0
  98              		.cfi_startproc
  99              		@ args = 0, pretend = 0, frame = 0
 100              		@ frame_needed = 0, uses_anonymous_args = 0
 101              	.LVL5:
 102 0000 38B5     		push	{r3, r4, r5, lr}
 103              		.cfi_def_cfa_offset 16
 104              		.cfi_offset 3, -16
 105              		.cfi_offset 4, -12
 106              		.cfi_offset 5, -8
 107              		.cfi_offset 14, -4
 108              		.loc 1 74 0
 109 0002 0546     		mov	r5, r0
 110              	.LBB5:
 111              		.loc 1 77 0
 112 0004 2023     		movs	r3, #32
 113              	@ 77 "../../ChibiOS_2.6.5/os/kernel/src/chdynamic.c" 1
 114 0006 83F31188 		msr     BASEPRI, r3
ARM GAS  /tmp/cckmbU6m.s 			page 3


 115              	@ 0 "" 2
 116              		.thumb
 117              	.LBE5:
 118 000a FFF7FEFF 		bl	dbg_check_lock
 119              	.LVL6:
 120              		.loc 1 78 0
 121 000e 95F82230 		ldrb	r3, [r5, #34]	@ zero_extendqisi2
 122 0012 BBB1     		cbz	r3, .L14
 123              	.L9:
 124              		.loc 1 79 0
 125 0014 013B     		subs	r3, r3, #1
 126 0016 DCB2     		uxtb	r4, r3
 127 0018 85F82240 		strb	r4, [r5, #34]
 128              	.LVL7:
 129              		.loc 1 80 0
 130 001c FFF7FEFF 		bl	dbg_check_unlock
 131              	.LVL8:
 132              	.LBB6:
 133 0020 0023     		movs	r3, #0
 134              	@ 80 "../../ChibiOS_2.6.5/os/kernel/src/chdynamic.c" 1
 135 0022 83F31188 		msr     BASEPRI, r3
 136              	@ 0 "" 2
 137              		.thumb
 138              	.LBE6:
 139              		.loc 1 85 0
 140 0026 1CB9     		cbnz	r4, .L8
 141              		.loc 1 85 0 is_stmt 0 discriminator 1
 142 0028 95F82030 		ldrb	r3, [r5, #32]	@ zero_extendqisi2
 143 002c 0E2B     		cmp	r3, #14
 144 002e 00D0     		beq	.L15
 145              	.L8:
 146 0030 38BD     		pop	{r3, r4, r5, pc}
 147              	.LVL9:
 148              	.L15:
 149              		.loc 1 86 0 is_stmt 1
 150 0032 95F82130 		ldrb	r3, [r5, #33]	@ zero_extendqisi2
 151 0036 03F00303 		and	r3, r3, #3
 152 003a 012B     		cmp	r3, #1
 153 003c 08D0     		beq	.L11
 154 003e 022B     		cmp	r3, #2
 155 0040 10D0     		beq	.L12
 156 0042 38BD     		pop	{r3, r4, r5, pc}
 157              	.LVL10:
 158              	.L14:
 159              		.loc 1 78 0 discriminator 1
 160 0044 0D48     		ldr	r0, .L16
 161 0046 FFF7FEFF 		bl	chDbgPanic
 162              	.LVL11:
 163 004a 95F82230 		ldrb	r3, [r5, #34]	@ zero_extendqisi2
 164 004e E1E7     		b	.L9
 165              	.LVL12:
 166              	.L11:
 167              		.loc 1 90 0
 168 0050 6B69     		ldr	r3, [r5, #20]
 169 0052 2A69     		ldr	r2, [r5, #16]
 170 0054 1A61     		str	r2, [r3, #16]
 171 0056 2A69     		ldr	r2, [r5, #16]
ARM GAS  /tmp/cckmbU6m.s 			page 4


 172              		.loc 1 92 0
 173 0058 2846     		mov	r0, r5
 174              		.loc 1 90 0
 175 005a 5361     		str	r3, [r2, #20]
 176              		.loc 1 105 0
 177 005c BDE83840 		pop	{r3, r4, r5, lr}
 178              		.cfi_remember_state
 179              		.cfi_restore 14
 180              		.cfi_restore 5
 181              		.cfi_restore 4
 182              		.cfi_restore 3
 183              		.cfi_def_cfa_offset 0
 184              	.LVL13:
 185              		.loc 1 92 0
 186 0060 FFF7FEBF 		b	chHeapFree
 187              	.LVL14:
 188              	.L12:
 189              		.cfi_restore_state
 190              		.loc 1 98 0
 191 0064 6B69     		ldr	r3, [r5, #20]
 192 0066 2A69     		ldr	r2, [r5, #16]
 193 0068 1A61     		str	r2, [r3, #16]
 194 006a 2A69     		ldr	r2, [r5, #16]
 195              		.loc 1 100 0
 196 006c A86C     		ldr	r0, [r5, #72]
 197              		.loc 1 98 0
 198 006e 5361     		str	r3, [r2, #20]
 199              		.loc 1 100 0
 200 0070 2946     		mov	r1, r5
 201              		.loc 1 105 0
 202 0072 BDE83840 		pop	{r3, r4, r5, lr}
 203              		.cfi_restore 14
 204              		.cfi_restore 5
 205              		.cfi_restore 4
 206              		.cfi_restore 3
 207              		.cfi_def_cfa_offset 0
 208              	.LVL15:
 209              		.loc 1 100 0
 210 0076 FFF7FEBF 		b	chPoolFree
 211              	.LVL16:
 212              	.L17:
 213 007a 00BF     		.align	2
 214              	.L16:
 215 007c 14000000 		.word	.LC1
 216              		.cfi_endproc
 217              	.LFE8:
 218              		.size	chThdRelease, .-chThdRelease
 219              		.section	.text.chThdCreateFromHeap,"ax",%progbits
 220              		.align	2
 221              		.p2align 4,,15
 222              		.global	chThdCreateFromHeap
 223              		.thumb
 224              		.thumb_func
 225              		.type	chThdCreateFromHeap, %function
 226              	chThdCreateFromHeap:
 227              	.LFB9:
 228              		.loc 1 131 0
ARM GAS  /tmp/cckmbU6m.s 			page 5


 229              		.cfi_startproc
 230              		@ args = 4, pretend = 0, frame = 0
 231              		@ frame_needed = 0, uses_anonymous_args = 0
 232              	.LVL17:
 233 0000 2DE9F041 		push	{r4, r5, r6, r7, r8, lr}
 234              		.cfi_def_cfa_offset 24
 235              		.cfi_offset 4, -24
 236              		.cfi_offset 5, -20
 237              		.cfi_offset 6, -16
 238              		.cfi_offset 7, -12
 239              		.cfi_offset 8, -8
 240              		.cfi_offset 14, -4
 241 0004 82B0     		sub	sp, sp, #8
 242              		.cfi_def_cfa_offset 32
 243              		.loc 1 131 0
 244 0006 9046     		mov	r8, r2
 245 0008 1F46     		mov	r7, r3
 246 000a 0D46     		mov	r5, r1
 247              		.loc 1 135 0
 248 000c FFF7FEFF 		bl	chHeapAlloc
 249              	.LVL18:
 250              		.loc 1 136 0
 251 0010 0446     		mov	r4, r0
 252 0012 20B3     		cbz	r0, .L19
 253              		.loc 1 140 0
 254 0014 00F14C06 		add	r6, r0, #76
 255 0018 3146     		mov	r1, r6
 256 001a FF22     		movs	r2, #255
 257 001c FFF7FEFF 		bl	_thread_memfill
 258              	.LVL19:
 259              		.loc 1 143 0
 260 0020 3046     		mov	r0, r6
 261 0022 6119     		adds	r1, r4, r5
 262 0024 5522     		movs	r2, #85
 263 0026 FFF7FEFF 		bl	_thread_memfill
 264              	.LVL20:
 265              	.LBB7:
 266              		.loc 1 148 0
 267 002a 2023     		movs	r3, #32
 268              	@ 148 "../../ChibiOS_2.6.5/os/kernel/src/chdynamic.c" 1
 269 002c 83F31188 		msr     BASEPRI, r3
 270              	@ 0 "" 2
 271              		.thumb
 272              	.LBE7:
 273 0030 FFF7FEFF 		bl	dbg_check_lock
 274              	.LVL21:
 275              		.loc 1 149 0
 276 0034 089B     		ldr	r3, [sp, #32]
 277 0036 0093     		str	r3, [sp]
 278 0038 4246     		mov	r2, r8
 279 003a 2946     		mov	r1, r5
 280 003c 3B46     		mov	r3, r7
 281 003e 2046     		mov	r0, r4
 282 0040 FFF7FEFF 		bl	chThdCreateI
 283              	.LVL22:
 284              		.loc 1 150 0
 285 0044 0123     		movs	r3, #1
ARM GAS  /tmp/cckmbU6m.s 			page 6


 286 0046 80F82130 		strb	r3, [r0, #33]
 287              		.loc 1 151 0
 288 004a 0021     		movs	r1, #0
 289              		.loc 1 149 0
 290 004c 0446     		mov	r4, r0
 291              	.LVL23:
 292              		.loc 1 151 0
 293 004e FFF7FEFF 		bl	chSchWakeupS
 294              	.LVL24:
 295              		.loc 1 152 0
 296 0052 FFF7FEFF 		bl	dbg_check_unlock
 297              	.LVL25:
 298              	.LBB8:
 299 0056 0023     		movs	r3, #0
 300              	@ 152 "../../ChibiOS_2.6.5/os/kernel/src/chdynamic.c" 1
 301 0058 83F31188 		msr     BASEPRI, r3
 302              	@ 0 "" 2
 303              		.thumb
 304              	.LBE8:
 305              		.loc 1 153 0
 306 005c 2046     		mov	r0, r4
 307              	.LVL26:
 308              	.L19:
 309              		.loc 1 154 0
 310 005e 02B0     		add	sp, sp, #8
 311              		.cfi_def_cfa_offset 24
 312              		@ sp needed
 313 0060 BDE8F081 		pop	{r4, r5, r6, r7, r8, pc}
 314              		.cfi_endproc
 315              	.LFE9:
 316              		.size	chThdCreateFromHeap, .-chThdCreateFromHeap
 317              		.section	.text.chThdCreateFromMemoryPool,"ax",%progbits
 318              		.align	2
 319              		.p2align 4,,15
 320              		.global	chThdCreateFromMemoryPool
 321              		.thumb
 322              		.thumb_func
 323              		.type	chThdCreateFromMemoryPool, %function
 324              	chThdCreateFromMemoryPool:
 325              	.LFB10:
 326              		.loc 1 180 0
 327              		.cfi_startproc
 328              		@ args = 0, pretend = 0, frame = 0
 329              		@ frame_needed = 0, uses_anonymous_args = 0
 330              	.LVL27:
 331 0000 2DE9F043 		push	{r4, r5, r6, r7, r8, r9, lr}
 332              		.cfi_def_cfa_offset 28
 333              		.cfi_offset 4, -28
 334              		.cfi_offset 5, -24
 335              		.cfi_offset 6, -20
 336              		.cfi_offset 7, -16
 337              		.cfi_offset 8, -12
 338              		.cfi_offset 9, -8
 339              		.cfi_offset 14, -4
 340 0004 8846     		mov	r8, r1
 341 0006 83B0     		sub	sp, sp, #12
 342              		.cfi_def_cfa_offset 40
ARM GAS  /tmp/cckmbU6m.s 			page 7


 343              		.loc 1 180 0
 344 0008 1746     		mov	r7, r2
 345 000a 9946     		mov	r9, r3
 346              		.loc 1 184 0
 347 000c 0546     		mov	r5, r0
 348 000e 70B3     		cbz	r0, .L27
 349              	.LVL28:
 350              	.L23:
 351              		.loc 1 186 0
 352 0010 2846     		mov	r0, r5
 353 0012 FFF7FEFF 		bl	chPoolAlloc
 354              	.LVL29:
 355              		.loc 1 187 0
 356 0016 0446     		mov	r4, r0
 357 0018 30B3     		cbz	r0, .L24
 358              		.loc 1 191 0
 359 001a 00F14C06 		add	r6, r0, #76
 360 001e 3146     		mov	r1, r6
 361 0020 FF22     		movs	r2, #255
 362 0022 FFF7FEFF 		bl	_thread_memfill
 363              	.LVL30:
 364              		.loc 1 194 0
 365 0026 6968     		ldr	r1, [r5, #4]
 366 0028 3046     		mov	r0, r6
 367 002a 2144     		add	r1, r1, r4
 368 002c 5522     		movs	r2, #85
 369 002e FFF7FEFF 		bl	_thread_memfill
 370              	.LVL31:
 371              	.LBB9:
 372              		.loc 1 199 0
 373 0032 2023     		movs	r3, #32
 374              	@ 199 "../../ChibiOS_2.6.5/os/kernel/src/chdynamic.c" 1
 375 0034 83F31188 		msr     BASEPRI, r3
 376              	@ 0 "" 2
 377              		.thumb
 378              	.LBE9:
 379 0038 FFF7FEFF 		bl	dbg_check_lock
 380              	.LVL32:
 381              		.loc 1 200 0
 382 003c 6968     		ldr	r1, [r5, #4]
 383 003e CDF80090 		str	r9, [sp]
 384 0042 4246     		mov	r2, r8
 385 0044 3B46     		mov	r3, r7
 386 0046 2046     		mov	r0, r4
 387 0048 FFF7FEFF 		bl	chThdCreateI
 388              	.LVL33:
 389              		.loc 1 201 0
 390 004c 0223     		movs	r3, #2
 391 004e 80F82130 		strb	r3, [r0, #33]
 392              		.loc 1 202 0
 393 0052 8564     		str	r5, [r0, #72]
 394              		.loc 1 203 0
 395 0054 0021     		movs	r1, #0
 396              		.loc 1 200 0
 397 0056 0446     		mov	r4, r0
 398              	.LVL34:
 399              		.loc 1 203 0
ARM GAS  /tmp/cckmbU6m.s 			page 8


 400 0058 FFF7FEFF 		bl	chSchWakeupS
 401              	.LVL35:
 402              		.loc 1 204 0
 403 005c FFF7FEFF 		bl	dbg_check_unlock
 404              	.LVL36:
 405              	.LBB10:
 406 0060 0023     		movs	r3, #0
 407              	@ 204 "../../ChibiOS_2.6.5/os/kernel/src/chdynamic.c" 1
 408 0062 83F31188 		msr     BASEPRI, r3
 409              	@ 0 "" 2
 410              		.thumb
 411              	.LBE10:
 412              		.loc 1 205 0
 413 0066 2046     		mov	r0, r4
 414              	.LVL37:
 415              	.L24:
 416              		.loc 1 206 0
 417 0068 03B0     		add	sp, sp, #12
 418              		.cfi_remember_state
 419              		.cfi_def_cfa_offset 28
 420              		@ sp needed
 421 006a BDE8F083 		pop	{r4, r5, r6, r7, r8, r9, pc}
 422              	.LVL38:
 423              	.L27:
 424              		.cfi_restore_state
 425              		.loc 1 184 0 discriminator 1
 426 006e 0248     		ldr	r0, .L28
 427              	.LVL39:
 428 0070 FFF7FEFF 		bl	chDbgPanic
 429              	.LVL40:
 430 0074 CCE7     		b	.L23
 431              	.L29:
 432 0076 00BF     		.align	2
 433              	.L28:
 434 0078 28000000 		.word	.LC2
 435              		.cfi_endproc
 436              	.LFE10:
 437              		.size	chThdCreateFromMemoryPool, .-chThdCreateFromMemoryPool
 438              		.section	.rodata.str1.4,"aMS",%progbits,1
 439              		.align	2
 440              	.LC0:
 441 0000 63685468 		.ascii	"chThdAddRef(), #1\000"
 441      64416464 
 441      52656628 
 441      292C2023 
 441      3100
 442 0012 0000     		.space	2
 443              	.LC1:
 444 0014 63685468 		.ascii	"chThdRelease(), #1\000"
 444      6452656C 
 444      65617365 
 444      28292C20 
 444      233100
 445 0027 00       		.space	1
 446              	.LC2:
 447 0028 22636854 		.ascii	"\"chThdCreateFromMemoryPool\"()\000"
 447      68644372 
ARM GAS  /tmp/cckmbU6m.s 			page 9


 447      65617465 
 447      46726F6D 
 447      4D656D6F 
 448              		.text
 449              	.Letext0:
 450              		.file 2 "/usr/lib/gcc/arm-none-eabi/4.9.3/include/stddef.h"
 451              		.file 3 "/usr/include/newlib/machine/_default_types.h"
 452              		.file 4 "/usr/include/newlib/sys/_stdint.h"
 453              		.file 5 "../../ChibiOS_2.6.5/os/ports/GCC/ARMCMx/chtypes.h"
 454              		.file 6 "../../ChibiOS_2.6.5/os/kernel/include/chlists.h"
 455              		.file 7 "../../ChibiOS_2.6.5/os/kernel/include/chthreads.h"
 456              		.file 8 "../../ChibiOS_2.6.5/os/ports/GCC/ARMCMx/chcore_v7m.h"
 457              		.file 9 "../../ChibiOS_2.6.5/os/kernel/include/chmtx.h"
 458              		.file 10 "../../ChibiOS_2.6.5/os/kernel/include/chmemcore.h"
 459              		.file 11 "../../ChibiOS_2.6.5/os/kernel/include/chheap.h"
 460              		.file 12 "../../ChibiOS_2.6.5/os/kernel/include/chmempools.h"
 461              		.file 13 "../../ChibiOS_2.6.5/os/kernel/include/chdebug.h"
 462              		.file 14 "../../ChibiOS_2.6.5/os/kernel/include/chschd.h"