ARM GAS  /tmp/cca3sVsG.s 			page 1


   1              		.syntax unified
   2              		.cpu cortex-m4
   3              		.fpu softvfp
   4              		.eabi_attribute 20, 1
   5              		.eabi_attribute 21, 1
   6              		.eabi_attribute 23, 3
   7              		.eabi_attribute 24, 1
   8              		.eabi_attribute 25, 1
   9              		.eabi_attribute 26, 1
  10              		.eabi_attribute 30, 2
  11              		.eabi_attribute 34, 1
  12              		.eabi_attribute 18, 4
  13              		.thumb
  14              		.file	"chevents.c"
  15              		.text
  16              	.Ltext0:
  17              		.cfi_sections	.debug_frame
  18              		.section	.text.chEvtRegisterMask,"ax",%progbits
  19              		.align	2
  20              		.p2align 4,,15
  21              		.global	chEvtRegisterMask
  22              		.thumb
  23              		.thumb_func
  24              		.type	chEvtRegisterMask, %function
  25              	chEvtRegisterMask:
  26              	.LFB7:
  27              		.file 1 "../../ChibiOS_2.6.5/os/kernel/src/chevents.c"
  28              		.loc 1 85 0
  29              		.cfi_startproc
  30              		@ args = 0, pretend = 0, frame = 0
  31              		@ frame_needed = 0, uses_anonymous_args = 0
  32              	.LVL0:
  33 0000 F8B5     		push	{r3, r4, r5, r6, r7, lr}
  34              		.cfi_def_cfa_offset 24
  35              		.cfi_offset 3, -24
  36              		.cfi_offset 4, -20
  37              		.cfi_offset 5, -16
  38              		.cfi_offset 6, -12
  39              		.cfi_offset 7, -8
  40              		.cfi_offset 14, -4
  41              		.loc 1 85 0
  42 0002 0C46     		mov	r4, r1
  43 0004 1746     		mov	r7, r2
  44              		.loc 1 87 0
  45 0006 0546     		mov	r5, r0
  46 0008 A0B1     		cbz	r0, .L2
  47              		.loc 1 87 0 is_stmt 0 discriminator 2
  48 000a 99B1     		cbz	r1, .L2
  49              	.LVL1:
  50              	.L3:
  51              	.LBB2:
  52              		.loc 1 89 0 is_stmt 1
  53 000c 2023     		movs	r3, #32
  54              	@ 89 "../../ChibiOS_2.6.5/os/kernel/src/chevents.c" 1
  55 000e 83F31188 		msr     BASEPRI, r3
  56              	@ 0 "" 2
  57              		.thumb
ARM GAS  /tmp/cca3sVsG.s 			page 2


  58              	.LBE2:
  59 0012 FFF7FEFF 		bl	dbg_check_lock
  60              	.LVL2:
  61              		.loc 1 92 0
  62 0016 094B     		ldr	r3, .L9
  63              		.loc 1 90 0
  64 0018 2A68     		ldr	r2, [r5]
  65              		.loc 1 92 0
  66 001a 9B69     		ldr	r3, [r3, #24]
  67              		.loc 1 90 0
  68 001c 2260     		str	r2, [r4]
  69              		.loc 1 94 0
  70 001e 0026     		movs	r6, #0
  71              		.loc 1 91 0
  72 0020 2C60     		str	r4, [r5]
  73              		.loc 1 92 0
  74 0022 6360     		str	r3, [r4, #4]
  75              		.loc 1 93 0
  76 0024 A760     		str	r7, [r4, #8]
  77              		.loc 1 94 0
  78 0026 E660     		str	r6, [r4, #12]
  79              		.loc 1 95 0
  80 0028 FFF7FEFF 		bl	dbg_check_unlock
  81              	.LVL3:
  82              	.LBB3:
  83 002c 3346     		mov	r3, r6
  84              	@ 95 "../../ChibiOS_2.6.5/os/kernel/src/chevents.c" 1
  85 002e 83F31188 		msr     BASEPRI, r3
  86              	@ 0 "" 2
  87              		.thumb
  88 0032 F8BD     		pop	{r3, r4, r5, r6, r7, pc}
  89              	.LVL4:
  90              	.L2:
  91              	.LBE3:
  92              		.loc 1 87 0 discriminator 3
  93 0034 0248     		ldr	r0, .L9+4
  94              	.LVL5:
  95 0036 FFF7FEFF 		bl	chDbgPanic
  96              	.LVL6:
  97 003a E7E7     		b	.L3
  98              	.L10:
  99              		.align	2
 100              	.L9:
 101 003c 00000000 		.word	rlist
 102 0040 00000000 		.word	.LC0
 103              		.cfi_endproc
 104              	.LFE7:
 105              		.size	chEvtRegisterMask, .-chEvtRegisterMask
 106              		.section	.text.chEvtUnregister,"ax",%progbits
 107              		.align	2
 108              		.p2align 4,,15
 109              		.global	chEvtUnregister
 110              		.thumb
 111              		.thumb_func
 112              		.type	chEvtUnregister, %function
 113              	chEvtUnregister:
 114              	.LFB8:
ARM GAS  /tmp/cca3sVsG.s 			page 3


 115              		.loc 1 111 0
 116              		.cfi_startproc
 117              		@ args = 0, pretend = 0, frame = 0
 118              		@ frame_needed = 0, uses_anonymous_args = 0
 119              	.LVL7:
 120 0000 38B5     		push	{r3, r4, r5, lr}
 121              		.cfi_def_cfa_offset 16
 122              		.cfi_offset 3, -16
 123              		.cfi_offset 4, -12
 124              		.cfi_offset 5, -8
 125              		.cfi_offset 14, -4
 126              		.loc 1 111 0
 127 0002 0D46     		mov	r5, r1
 128              		.loc 1 114 0
 129 0004 0446     		mov	r4, r0
 130 0006 D8B1     		cbz	r0, .L12
 131              		.loc 1 114 0 is_stmt 0 discriminator 2
 132 0008 D1B1     		cbz	r1, .L12
 133              	.LVL8:
 134              	.L13:
 135              	.LBB4:
 136              		.loc 1 117 0 is_stmt 1
 137 000a 2023     		movs	r3, #32
 138              	@ 117 "../../ChibiOS_2.6.5/os/kernel/src/chevents.c" 1
 139 000c 83F31188 		msr     BASEPRI, r3
 140              	@ 0 "" 2
 141              		.thumb
 142              	.LBE4:
 143 0010 FFF7FEFF 		bl	dbg_check_lock
 144              	.LVL9:
 145              		.loc 1 118 0
 146 0014 2246     		mov	r2, r4
 147 0016 02E0     		b	.L14
 148              	.LVL10:
 149              	.L16:
 150              		.loc 1 119 0
 151 0018 9D42     		cmp	r5, r3
 152 001a 09D0     		beq	.L22
 153 001c 1A46     		mov	r2, r3
 154              	.LVL11:
 155              	.L14:
 156              		.loc 1 118 0
 157 001e 1368     		ldr	r3, [r2]
 158 0020 A342     		cmp	r3, r4
 159 0022 F9D1     		bne	.L16
 160              		.loc 1 125 0
 161 0024 FFF7FEFF 		bl	dbg_check_unlock
 162              	.LVL12:
 163              	.LBB5:
 164 0028 0023     		movs	r3, #0
 165              	@ 125 "../../ChibiOS_2.6.5/os/kernel/src/chevents.c" 1
 166 002a 83F31188 		msr     BASEPRI, r3
 167              	@ 0 "" 2
 168              		.thumb
 169 002e 38BD     		pop	{r3, r4, r5, pc}
 170              	.LVL13:
 171              	.L22:
ARM GAS  /tmp/cca3sVsG.s 			page 4


 172              	.LBE5:
 173              		.loc 1 120 0
 174 0030 2B68     		ldr	r3, [r5]
 175 0032 1360     		str	r3, [r2]
 176              		.loc 1 125 0
 177 0034 FFF7FEFF 		bl	dbg_check_unlock
 178              	.LVL14:
 179              	.LBB6:
 180 0038 0023     		movs	r3, #0
 181              	@ 125 "../../ChibiOS_2.6.5/os/kernel/src/chevents.c" 1
 182 003a 83F31188 		msr     BASEPRI, r3
 183              	@ 0 "" 2
 184              		.thumb
 185 003e 38BD     		pop	{r3, r4, r5, pc}
 186              	.LVL15:
 187              	.L12:
 188              	.LBE6:
 189              		.loc 1 114 0 discriminator 3
 190 0040 0148     		ldr	r0, .L23
 191              	.LVL16:
 192 0042 FFF7FEFF 		bl	chDbgPanic
 193              	.LVL17:
 194 0046 E0E7     		b	.L13
 195              	.L24:
 196              		.align	2
 197              	.L23:
 198 0048 18000000 		.word	.LC1
 199              		.cfi_endproc
 200              	.LFE8:
 201              		.size	chEvtUnregister, .-chEvtUnregister
 202              		.section	.text.chEvtGetAndClearEvents,"ax",%progbits
 203              		.align	2
 204              		.p2align 4,,15
 205              		.global	chEvtGetAndClearEvents
 206              		.thumb
 207              		.thumb_func
 208              		.type	chEvtGetAndClearEvents, %function
 209              	chEvtGetAndClearEvents:
 210              	.LFB9:
 211              		.loc 1 136 0
 212              		.cfi_startproc
 213              		@ args = 0, pretend = 0, frame = 0
 214              		@ frame_needed = 0, uses_anonymous_args = 0
 215              	.LVL18:
 216 0000 10B5     		push	{r4, lr}
 217              		.cfi_def_cfa_offset 8
 218              		.cfi_offset 4, -8
 219              		.cfi_offset 14, -4
 220              	.LBB7:
 221              		.loc 1 139 0
 222 0002 2023     		movs	r3, #32
 223              	.LBE7:
 224              		.loc 1 136 0
 225 0004 0446     		mov	r4, r0
 226              	.LBB8:
 227              		.loc 1 139 0
 228              	@ 139 "../../ChibiOS_2.6.5/os/kernel/src/chevents.c" 1
ARM GAS  /tmp/cca3sVsG.s 			page 5


 229 0006 83F31188 		msr     BASEPRI, r3
 230              	@ 0 "" 2
 231              		.thumb
 232              	.LBE8:
 233 000a FFF7FEFF 		bl	dbg_check_lock
 234              	.LVL19:
 235              		.loc 1 141 0
 236 000e 074B     		ldr	r3, .L27
 237 0010 9A69     		ldr	r2, [r3, #24]
 238 0012 D36B     		ldr	r3, [r2, #60]
 239              		.loc 1 142 0
 240 0014 23EA0401 		bic	r1, r3, r4
 241 0018 D163     		str	r1, [r2, #60]
 242              		.loc 1 141 0
 243 001a 1C40     		ands	r4, r4, r3
 244              	.LVL20:
 245              		.loc 1 144 0
 246 001c FFF7FEFF 		bl	dbg_check_unlock
 247              	.LVL21:
 248              	.LBB9:
 249 0020 0023     		movs	r3, #0
 250              	@ 144 "../../ChibiOS_2.6.5/os/kernel/src/chevents.c" 1
 251 0022 83F31188 		msr     BASEPRI, r3
 252              	@ 0 "" 2
 253              		.thumb
 254              	.LBE9:
 255              		.loc 1 146 0
 256 0026 2046     		mov	r0, r4
 257 0028 10BD     		pop	{r4, pc}
 258              	.LVL22:
 259              	.L28:
 260 002a 00BF     		.align	2
 261              	.L27:
 262 002c 00000000 		.word	rlist
 263              		.cfi_endproc
 264              	.LFE9:
 265              		.size	chEvtGetAndClearEvents, .-chEvtGetAndClearEvents
 266              		.section	.text.chEvtAddEvents,"ax",%progbits
 267              		.align	2
 268              		.p2align 4,,15
 269              		.global	chEvtAddEvents
 270              		.thumb
 271              		.thumb_func
 272              		.type	chEvtAddEvents, %function
 273              	chEvtAddEvents:
 274              	.LFB10:
 275              		.loc 1 157 0
 276              		.cfi_startproc
 277              		@ args = 0, pretend = 0, frame = 0
 278              		@ frame_needed = 0, uses_anonymous_args = 0
 279              	.LVL23:
 280 0000 10B5     		push	{r4, lr}
 281              		.cfi_def_cfa_offset 8
 282              		.cfi_offset 4, -8
 283              		.cfi_offset 14, -4
 284              	.LBB10:
 285              		.loc 1 159 0
ARM GAS  /tmp/cca3sVsG.s 			page 6


 286 0002 2023     		movs	r3, #32
 287              	.LBE10:
 288              		.loc 1 157 0
 289 0004 0446     		mov	r4, r0
 290              	.LBB11:
 291              		.loc 1 159 0
 292              	@ 159 "../../ChibiOS_2.6.5/os/kernel/src/chevents.c" 1
 293 0006 83F31188 		msr     BASEPRI, r3
 294              	@ 0 "" 2
 295              		.thumb
 296              	.LBE11:
 297 000a FFF7FEFF 		bl	dbg_check_lock
 298              	.LVL24:
 299              		.loc 1 161 0
 300 000e 064B     		ldr	r3, .L31
 301 0010 9A69     		ldr	r2, [r3, #24]
 302 0012 D36B     		ldr	r3, [r2, #60]
 303 0014 1C43     		orrs	r4, r4, r3
 304              	.LVL25:
 305 0016 D463     		str	r4, [r2, #60]
 306              	.LVL26:
 307              		.loc 1 163 0
 308 0018 FFF7FEFF 		bl	dbg_check_unlock
 309              	.LVL27:
 310              	.LBB12:
 311 001c 0023     		movs	r3, #0
 312              	@ 163 "../../ChibiOS_2.6.5/os/kernel/src/chevents.c" 1
 313 001e 83F31188 		msr     BASEPRI, r3
 314              	@ 0 "" 2
 315              		.thumb
 316              	.LBE12:
 317              		.loc 1 165 0
 318 0022 2046     		mov	r0, r4
 319 0024 10BD     		pop	{r4, pc}
 320              	.LVL28:
 321              	.L32:
 322 0026 00BF     		.align	2
 323              	.L31:
 324 0028 00000000 		.word	rlist
 325              		.cfi_endproc
 326              	.LFE10:
 327              		.size	chEvtAddEvents, .-chEvtAddEvents
 328              		.section	.text.chEvtGetAndClearFlags,"ax",%progbits
 329              		.align	2
 330              		.p2align 4,,15
 331              		.global	chEvtGetAndClearFlags
 332              		.thumb
 333              		.thumb_func
 334              		.type	chEvtGetAndClearFlags, %function
 335              	chEvtGetAndClearFlags:
 336              	.LFB12:
 337              		.loc 1 209 0
 338              		.cfi_startproc
 339              		@ args = 0, pretend = 0, frame = 0
 340              		@ frame_needed = 0, uses_anonymous_args = 0
 341              	.LVL29:
 342 0000 70B5     		push	{r4, r5, r6, lr}
ARM GAS  /tmp/cca3sVsG.s 			page 7


 343              		.cfi_def_cfa_offset 16
 344              		.cfi_offset 4, -16
 345              		.cfi_offset 5, -12
 346              		.cfi_offset 6, -8
 347              		.cfi_offset 14, -4
 348              	.LBB13:
 349              		.loc 1 212 0
 350 0002 2023     		movs	r3, #32
 351              	.LBE13:
 352              		.loc 1 209 0
 353 0004 0546     		mov	r5, r0
 354              	.LBB14:
 355              		.loc 1 212 0
 356              	@ 212 "../../ChibiOS_2.6.5/os/kernel/src/chevents.c" 1
 357 0006 83F31188 		msr     BASEPRI, r3
 358              	@ 0 "" 2
 359              		.thumb
 360              	.LBE14:
 361              		.loc 1 215 0
 362 000a 0024     		movs	r4, #0
 363              		.loc 1 212 0
 364 000c FFF7FEFF 		bl	dbg_check_lock
 365              	.LVL30:
 366              		.loc 1 214 0
 367 0010 EE68     		ldr	r6, [r5, #12]
 368              	.LVL31:
 369              		.loc 1 215 0
 370 0012 EC60     		str	r4, [r5, #12]
 371              		.loc 1 217 0
 372 0014 FFF7FEFF 		bl	dbg_check_unlock
 373              	.LVL32:
 374              	.LBB15:
 375 0018 2346     		mov	r3, r4
 376              	@ 217 "../../ChibiOS_2.6.5/os/kernel/src/chevents.c" 1
 377 001a 83F31188 		msr     BASEPRI, r3
 378              	@ 0 "" 2
 379              		.thumb
 380              	.LBE15:
 381              		.loc 1 219 0
 382 001e 3046     		mov	r0, r6
 383 0020 70BD     		pop	{r4, r5, r6, pc}
 384              		.cfi_endproc
 385              	.LFE12:
 386              		.size	chEvtGetAndClearFlags, .-chEvtGetAndClearFlags
 387 0022 00BF     		.section	.text.chEvtSignalI,"ax",%progbits
 388              		.align	2
 389              		.p2align 4,,15
 390              		.global	chEvtSignalI
 391              		.thumb
 392              		.thumb_func
 393              		.type	chEvtSignalI, %function
 394              	chEvtSignalI:
 395              	.LFB14:
 396              		.loc 1 251 0
 397              		.cfi_startproc
 398              		@ args = 0, pretend = 0, frame = 0
 399              		@ frame_needed = 0, uses_anonymous_args = 0
ARM GAS  /tmp/cca3sVsG.s 			page 8


 400              	.LVL33:
 401 0000 38B5     		push	{r3, r4, r5, lr}
 402              		.cfi_def_cfa_offset 16
 403              		.cfi_offset 3, -16
 404              		.cfi_offset 4, -12
 405              		.cfi_offset 5, -8
 406              		.cfi_offset 14, -4
 407              		.loc 1 251 0
 408 0002 0446     		mov	r4, r0
 409 0004 0D46     		mov	r5, r1
 410              		.loc 1 253 0
 411 0006 FFF7FEFF 		bl	chDbgCheckClassI
 412              	.LVL34:
 413              		.loc 1 254 0
 414 000a C4B1     		cbz	r4, .L41
 415              	.L36:
 416              		.loc 1 256 0
 417 000c E36B     		ldr	r3, [r4, #60]
 418              		.loc 1 258 0
 419 000e 94F82020 		ldrb	r2, [r4, #32]	@ zero_extendqisi2
 420              		.loc 1 256 0
 421 0012 45EA0301 		orr	r1, r5, r3
 422              		.loc 1 258 0
 423 0016 082A     		cmp	r2, #8
 424              		.loc 1 256 0
 425 0018 E163     		str	r1, [r4, #60]
 426              		.loc 1 258 0
 427 001a 0CD0     		beq	.L42
 428              		.loc 1 259 0
 429 001c 092A     		cmp	r2, #9
 430 001e 00D0     		beq	.L43
 431              	.L35:
 432 0020 38BD     		pop	{r3, r4, r5, pc}
 433              	.LVL35:
 434              	.L43:
 435              		.loc 1 261 0
 436 0022 A36A     		ldr	r3, [r4, #40]
 437 0024 1940     		ands	r1, r1, r3
 438              		.loc 1 260 0
 439 0026 8B42     		cmp	r3, r1
 440 0028 FAD1     		bne	.L35
 441              	.L38:
 442              	.LVL36:
 443              	.LBB18:
 444              	.LBB19:
 445              		.loc 1 262 0
 446 002a 2046     		mov	r0, r4
 447 002c FFF7FEFF 		bl	chSchReadyI
 448              	.LVL37:
 449 0030 0023     		movs	r3, #0
 450 0032 8362     		str	r3, [r0, #40]
 451 0034 38BD     		pop	{r3, r4, r5, pc}
 452              	.LVL38:
 453              	.L42:
 454              	.LBE19:
 455              	.LBE18:
 456              		.loc 1 259 0 discriminator 1
ARM GAS  /tmp/cca3sVsG.s 			page 9


 457 0036 A36A     		ldr	r3, [r4, #40]
 458              		.loc 1 258 0 discriminator 1
 459 0038 1942     		tst	r1, r3
 460 003a F6D1     		bne	.L38
 461 003c 38BD     		pop	{r3, r4, r5, pc}
 462              	.LVL39:
 463              	.L41:
 464              		.loc 1 254 0 discriminator 1
 465 003e 0248     		ldr	r0, .L44
 466 0040 FFF7FEFF 		bl	chDbgPanic
 467              	.LVL40:
 468 0044 E2E7     		b	.L36
 469              	.L45:
 470 0046 00BF     		.align	2
 471              	.L44:
 472 0048 2C000000 		.word	.LC2
 473              		.cfi_endproc
 474              	.LFE14:
 475              		.size	chEvtSignalI, .-chEvtSignalI
 476              		.section	.text.chEvtBroadcastFlagsI,"ax",%progbits
 477              		.align	2
 478              		.p2align 4,,15
 479              		.global	chEvtBroadcastFlagsI
 480              		.thumb
 481              		.thumb_func
 482              		.type	chEvtBroadcastFlagsI, %function
 483              	chEvtBroadcastFlagsI:
 484              	.LFB11:
 485              		.loc 1 184 0
 486              		.cfi_startproc
 487              		@ args = 0, pretend = 0, frame = 0
 488              		@ frame_needed = 0, uses_anonymous_args = 0
 489              	.LVL41:
 490 0000 70B5     		push	{r4, r5, r6, lr}
 491              		.cfi_def_cfa_offset 16
 492              		.cfi_offset 4, -16
 493              		.cfi_offset 5, -12
 494              		.cfi_offset 6, -8
 495              		.cfi_offset 14, -4
 496              		.loc 1 184 0
 497 0002 0546     		mov	r5, r0
 498 0004 0E46     		mov	r6, r1
 499              		.loc 1 187 0
 500 0006 FFF7FEFF 		bl	chDbgCheckClassI
 501              	.LVL42:
 502              		.loc 1 188 0
 503 000a 65B1     		cbz	r5, .L53
 504              	.L47:
 505              		.loc 1 190 0
 506 000c 2C68     		ldr	r4, [r5]
 507              	.LVL43:
 508              		.loc 1 191 0
 509 000e A542     		cmp	r5, r4
 510 0010 08D0     		beq	.L46
 511              	.L49:
 512              		.loc 1 193 0
 513 0012 201D     		adds	r0, r4, #4
ARM GAS  /tmp/cca3sVsG.s 			page 10


 514 0014 0BC8     		ldmia	r0, {r0, r1, r3}
 515              		.loc 1 192 0
 516 0016 3343     		orrs	r3, r3, r6
 517 0018 E360     		str	r3, [r4, #12]
 518              		.loc 1 193 0
 519 001a FFF7FEFF 		bl	chEvtSignalI
 520              	.LVL44:
 521              		.loc 1 194 0
 522 001e 2468     		ldr	r4, [r4]
 523              	.LVL45:
 524              		.loc 1 191 0
 525 0020 A542     		cmp	r5, r4
 526 0022 F6D1     		bne	.L49
 527              	.L46:
 528 0024 70BD     		pop	{r4, r5, r6, pc}
 529              	.LVL46:
 530              	.L53:
 531              		.loc 1 188 0 discriminator 1
 532 0026 0248     		ldr	r0, .L54
 533 0028 FFF7FEFF 		bl	chDbgPanic
 534              	.LVL47:
 535 002c EEE7     		b	.L47
 536              	.L55:
 537 002e 00BF     		.align	2
 538              	.L54:
 539 0030 40000000 		.word	.LC3
 540              		.cfi_endproc
 541              	.LFE11:
 542              		.size	chEvtBroadcastFlagsI, .-chEvtBroadcastFlagsI
 543              		.section	.text.chEvtSignal,"ax",%progbits
 544              		.align	2
 545              		.p2align 4,,15
 546              		.global	chEvtSignal
 547              		.thumb
 548              		.thumb_func
 549              		.type	chEvtSignal, %function
 550              	chEvtSignal:
 551              	.LFB13:
 552              		.loc 1 229 0
 553              		.cfi_startproc
 554              		@ args = 0, pretend = 0, frame = 0
 555              		@ frame_needed = 0, uses_anonymous_args = 0
 556              	.LVL48:
 557 0000 38B5     		push	{r3, r4, r5, lr}
 558              		.cfi_def_cfa_offset 16
 559              		.cfi_offset 3, -16
 560              		.cfi_offset 4, -12
 561              		.cfi_offset 5, -8
 562              		.cfi_offset 14, -4
 563              		.loc 1 229 0
 564 0002 0D46     		mov	r5, r1
 565              		.loc 1 231 0
 566 0004 0446     		mov	r4, r0
 567 0006 80B1     		cbz	r0, .L59
 568              	.LVL49:
 569              	.L57:
 570              	.LBB20:
ARM GAS  /tmp/cca3sVsG.s 			page 11


 571              		.loc 1 233 0
 572 0008 2023     		movs	r3, #32
 573              	@ 233 "../../ChibiOS_2.6.5/os/kernel/src/chevents.c" 1
 574 000a 83F31188 		msr     BASEPRI, r3
 575              	@ 0 "" 2
 576              		.thumb
 577              	.LBE20:
 578 000e FFF7FEFF 		bl	dbg_check_lock
 579              	.LVL50:
 580              		.loc 1 234 0
 581 0012 2046     		mov	r0, r4
 582 0014 2946     		mov	r1, r5
 583 0016 FFF7FEFF 		bl	chEvtSignalI
 584              	.LVL51:
 585              		.loc 1 235 0
 586 001a FFF7FEFF 		bl	chSchRescheduleS
 587              	.LVL52:
 588              		.loc 1 236 0
 589 001e FFF7FEFF 		bl	dbg_check_unlock
 590              	.LVL53:
 591              	.LBB21:
 592 0022 0023     		movs	r3, #0
 593              	@ 236 "../../ChibiOS_2.6.5/os/kernel/src/chevents.c" 1
 594 0024 83F31188 		msr     BASEPRI, r3
 595              	@ 0 "" 2
 596              		.thumb
 597 0028 38BD     		pop	{r3, r4, r5, pc}
 598              	.LVL54:
 599              	.L59:
 600              	.LBE21:
 601              		.loc 1 231 0 discriminator 1
 602 002a 0248     		ldr	r0, .L60
 603              	.LVL55:
 604 002c FFF7FEFF 		bl	chDbgPanic
 605              	.LVL56:
 606 0030 EAE7     		b	.L57
 607              	.L61:
 608 0032 00BF     		.align	2
 609              	.L60:
 610 0034 58000000 		.word	.LC4
 611              		.cfi_endproc
 612              	.LFE13:
 613              		.size	chEvtSignal, .-chEvtSignal
 614              		.section	.text.chEvtBroadcastFlags,"ax",%progbits
 615              		.align	2
 616              		.p2align 4,,15
 617              		.global	chEvtBroadcastFlags
 618              		.thumb
 619              		.thumb_func
 620              		.type	chEvtBroadcastFlags, %function
 621              	chEvtBroadcastFlags:
 622              	.LFB15:
 623              		.loc 1 278 0
 624              		.cfi_startproc
 625              		@ args = 0, pretend = 0, frame = 0
 626              		@ frame_needed = 0, uses_anonymous_args = 0
 627              	.LVL57:
ARM GAS  /tmp/cca3sVsG.s 			page 12


 628 0000 38B5     		push	{r3, r4, r5, lr}
 629              		.cfi_def_cfa_offset 16
 630              		.cfi_offset 3, -16
 631              		.cfi_offset 4, -12
 632              		.cfi_offset 5, -8
 633              		.cfi_offset 14, -4
 634              		.loc 1 278 0
 635 0002 0546     		mov	r5, r0
 636 0004 0C46     		mov	r4, r1
 637              	.LBB22:
 638              		.loc 1 280 0
 639 0006 2023     		movs	r3, #32
 640              	@ 280 "../../ChibiOS_2.6.5/os/kernel/src/chevents.c" 1
 641 0008 83F31188 		msr     BASEPRI, r3
 642              	@ 0 "" 2
 643              		.thumb
 644              	.LBE22:
 645 000c FFF7FEFF 		bl	dbg_check_lock
 646              	.LVL58:
 647              		.loc 1 281 0
 648 0010 2846     		mov	r0, r5
 649 0012 2146     		mov	r1, r4
 650 0014 FFF7FEFF 		bl	chEvtBroadcastFlagsI
 651              	.LVL59:
 652              		.loc 1 282 0
 653 0018 FFF7FEFF 		bl	chSchRescheduleS
 654              	.LVL60:
 655              		.loc 1 283 0
 656 001c FFF7FEFF 		bl	dbg_check_unlock
 657              	.LVL61:
 658              	.LBB23:
 659 0020 0023     		movs	r3, #0
 660              	@ 283 "../../ChibiOS_2.6.5/os/kernel/src/chevents.c" 1
 661 0022 83F31188 		msr     BASEPRI, r3
 662              	@ 0 "" 2
 663              		.thumb
 664 0026 38BD     		pop	{r3, r4, r5, pc}
 665              	.LBE23:
 666              		.cfi_endproc
 667              	.LFE15:
 668              		.size	chEvtBroadcastFlags, .-chEvtBroadcastFlags
 669              		.section	.text.chEvtGetAndClearFlagsI,"ax",%progbits
 670              		.align	2
 671              		.p2align 4,,15
 672              		.global	chEvtGetAndClearFlagsI
 673              		.thumb
 674              		.thumb_func
 675              		.type	chEvtGetAndClearFlagsI, %function
 676              	chEvtGetAndClearFlagsI:
 677              	.LFB16:
 678              		.loc 1 297 0
 679              		.cfi_startproc
 680              		@ args = 0, pretend = 0, frame = 0
 681              		@ frame_needed = 0, uses_anonymous_args = 0
 682              		@ link register save eliminated.
 683              	.LVL62:
 684              		.loc 1 297 0
ARM GAS  /tmp/cca3sVsG.s 			page 13


 685 0000 0346     		mov	r3, r0
 686              		.loc 1 301 0
 687 0002 0022     		movs	r2, #0
 688              		.loc 1 300 0
 689 0004 C068     		ldr	r0, [r0, #12]
 690              	.LVL63:
 691              		.loc 1 301 0
 692 0006 DA60     		str	r2, [r3, #12]
 693              		.loc 1 304 0
 694 0008 7047     		bx	lr
 695              		.cfi_endproc
 696              	.LFE16:
 697              		.size	chEvtGetAndClearFlagsI, .-chEvtGetAndClearFlagsI
 698 000a 00BF     		.section	.text.chEvtDispatch,"ax",%progbits
 699              		.align	2
 700              		.p2align 4,,15
 701              		.global	chEvtDispatch
 702              		.thumb
 703              		.thumb_func
 704              		.type	chEvtDispatch, %function
 705              	chEvtDispatch:
 706              	.LFB17:
 707              		.loc 1 315 0
 708              		.cfi_startproc
 709              		@ args = 0, pretend = 0, frame = 0
 710              		@ frame_needed = 0, uses_anonymous_args = 0
 711              	.LVL64:
 712 0000 2DE9F041 		push	{r4, r5, r6, r7, r8, lr}
 713              		.cfi_def_cfa_offset 24
 714              		.cfi_offset 4, -24
 715              		.cfi_offset 5, -20
 716              		.cfi_offset 6, -16
 717              		.cfi_offset 7, -12
 718              		.cfi_offset 8, -8
 719              		.cfi_offset 14, -4
 720              		.loc 1 315 0
 721 0004 0E46     		mov	r6, r1
 722              		.loc 1 318 0
 723 0006 0546     		mov	r5, r0
 724 0008 E8B1     		cbz	r0, .L75
 725              	.LVL65:
 726              	.L66:
 727              		.loc 1 321 0
 728 000a AEB1     		cbz	r6, .L65
 729 000c 0024     		movs	r4, #0
 730              		.loc 1 322 0
 731 000e 4FF00108 		mov	r8, #1
 732              	.LVL66:
 733              	.L68:
 734 0012 08FA04F7 		lsl	r7, r8, r4
 735 0016 3742     		tst	r7, r6
 736 0018 0BD0     		beq	.L69
 737              		.loc 1 323 0
 738 001a 2B68     		ldr	r3, [r5]
 739 001c 73B1     		cbz	r3, .L76
 740              	.L70:
 741              		.loc 1 327 0
ARM GAS  /tmp/cca3sVsG.s 			page 14


 742 001e 2046     		mov	r0, r4
 743              		.loc 1 326 0
 744 0020 26EA0706 		bic	r6, r6, r7
 745              	.LVL67:
 746 0024 0435     		adds	r5, r5, #4
 747              		.loc 1 327 0
 748 0026 9847     		blx	r3
 749              	.LVL68:
 750              		.loc 1 329 0
 751 0028 0134     		adds	r4, r4, #1
 752              	.LVL69:
 753              		.loc 1 321 0
 754 002a 002E     		cmp	r6, #0
 755 002c F1D1     		bne	.L68
 756 002e BDE8F081 		pop	{r4, r5, r6, r7, r8, pc}
 757              	.LVL70:
 758              	.L69:
 759              		.loc 1 329 0
 760 0032 0134     		adds	r4, r4, #1
 761              	.LVL71:
 762 0034 0435     		adds	r5, r5, #4
 763 0036 ECE7     		b	.L68
 764              	.LVL72:
 765              	.L65:
 766 0038 BDE8F081 		pop	{r4, r5, r6, r7, r8, pc}
 767              	.LVL73:
 768              	.L76:
 769              		.loc 1 323 0 discriminator 1
 770 003c 0448     		ldr	r0, .L77
 771 003e FFF7FEFF 		bl	chDbgPanic
 772              	.LVL74:
 773 0042 2B68     		ldr	r3, [r5]
 774 0044 EBE7     		b	.L70
 775              	.LVL75:
 776              	.L75:
 777              		.loc 1 318 0 discriminator 1
 778 0046 0348     		ldr	r0, .L77+4
 779              	.LVL76:
 780 0048 FFF7FEFF 		bl	chDbgPanic
 781              	.LVL77:
 782 004c DDE7     		b	.L66
 783              	.L78:
 784 004e 00BF     		.align	2
 785              	.L77:
 786 0050 7C000000 		.word	.LC6
 787 0054 68000000 		.word	.LC5
 788              		.cfi_endproc
 789              	.LFE17:
 790              		.size	chEvtDispatch, .-chEvtDispatch
 791              		.section	.text.chEvtWaitOne,"ax",%progbits
 792              		.align	2
 793              		.p2align 4,,15
 794              		.global	chEvtWaitOne
 795              		.thumb
 796              		.thumb_func
 797              		.type	chEvtWaitOne, %function
 798              	chEvtWaitOne:
ARM GAS  /tmp/cca3sVsG.s 			page 15


 799              	.LFB18:
 800              		.loc 1 350 0
 801              		.cfi_startproc
 802              		@ args = 0, pretend = 0, frame = 0
 803              		@ frame_needed = 0, uses_anonymous_args = 0
 804              	.LVL78:
 805 0000 38B5     		push	{r3, r4, r5, lr}
 806              		.cfi_def_cfa_offset 16
 807              		.cfi_offset 3, -16
 808              		.cfi_offset 4, -12
 809              		.cfi_offset 5, -8
 810              		.cfi_offset 14, -4
 811              		.loc 1 351 0
 812 0002 0F4B     		ldr	r3, .L82
 813              		.loc 1 350 0
 814 0004 0446     		mov	r4, r0
 815              		.loc 1 351 0
 816 0006 9D69     		ldr	r5, [r3, #24]
 817              	.LVL79:
 818              	.LBB24:
 819              		.loc 1 354 0
 820 0008 2023     		movs	r3, #32
 821              	@ 354 "../../ChibiOS_2.6.5/os/kernel/src/chevents.c" 1
 822 000a 83F31188 		msr     BASEPRI, r3
 823              	@ 0 "" 2
 824              		.thumb
 825              	.LBE24:
 826 000e FFF7FEFF 		bl	dbg_check_lock
 827              	.LVL80:
 828              		.loc 1 356 0
 829 0012 EB6B     		ldr	r3, [r5, #60]
 830              	.LVL81:
 831 0014 14EA0302 		ands	r2, r4, r3
 832              	.LVL82:
 833 0018 06D1     		bne	.L80
 834              		.loc 1 357 0
 835 001a AC62     		str	r4, [r5, #40]
 836              		.loc 1 358 0
 837 001c 0820     		movs	r0, #8
 838 001e FFF7FEFF 		bl	chSchGoSleepS
 839              	.LVL83:
 840              		.loc 1 359 0
 841 0022 EB6B     		ldr	r3, [r5, #60]
 842 0024 04EA0302 		and	r2, r4, r3
 843              	.LVL84:
 844              	.L80:
 845              		.loc 1 361 0
 846 0028 5442     		negs	r4, r2
 847              	.LVL85:
 848 002a 1440     		ands	r4, r4, r2
 849              	.LVL86:
 850              		.loc 1 362 0
 851 002c 23EA0403 		bic	r3, r3, r4
 852 0030 EB63     		str	r3, [r5, #60]
 853              		.loc 1 364 0
 854 0032 FFF7FEFF 		bl	dbg_check_unlock
 855              	.LVL87:
ARM GAS  /tmp/cca3sVsG.s 			page 16


 856              	.LBB25:
 857 0036 0023     		movs	r3, #0
 858              	@ 364 "../../ChibiOS_2.6.5/os/kernel/src/chevents.c" 1
 859 0038 83F31188 		msr     BASEPRI, r3
 860              	@ 0 "" 2
 861              		.thumb
 862              	.LBE25:
 863              		.loc 1 366 0
 864 003c 2046     		mov	r0, r4
 865 003e 38BD     		pop	{r3, r4, r5, pc}
 866              	.LVL88:
 867              	.L83:
 868              		.align	2
 869              	.L82:
 870 0040 00000000 		.word	rlist
 871              		.cfi_endproc
 872              	.LFE18:
 873              		.size	chEvtWaitOne, .-chEvtWaitOne
 874              		.section	.text.chEvtWaitAny,"ax",%progbits
 875              		.align	2
 876              		.p2align 4,,15
 877              		.global	chEvtWaitAny
 878              		.thumb
 879              		.thumb_func
 880              		.type	chEvtWaitAny, %function
 881              	chEvtWaitAny:
 882              	.LFB19:
 883              		.loc 1 379 0
 884              		.cfi_startproc
 885              		@ args = 0, pretend = 0, frame = 0
 886              		@ frame_needed = 0, uses_anonymous_args = 0
 887              	.LVL89:
 888              		.loc 1 380 0
 889 0000 0E4B     		ldr	r3, .L87
 890              		.loc 1 379 0
 891 0002 70B5     		push	{r4, r5, r6, lr}
 892              		.cfi_def_cfa_offset 16
 893              		.cfi_offset 4, -16
 894              		.cfi_offset 5, -12
 895              		.cfi_offset 6, -8
 896              		.cfi_offset 14, -4
 897              		.loc 1 380 0
 898 0004 9C69     		ldr	r4, [r3, #24]
 899              	.LVL90:
 900              		.loc 1 379 0
 901 0006 0546     		mov	r5, r0
 902              	.LBB26:
 903              		.loc 1 383 0
 904 0008 2023     		movs	r3, #32
 905              	@ 383 "../../ChibiOS_2.6.5/os/kernel/src/chevents.c" 1
 906 000a 83F31188 		msr     BASEPRI, r3
 907              	@ 0 "" 2
 908              		.thumb
 909              	.LBE26:
 910 000e FFF7FEFF 		bl	dbg_check_lock
 911              	.LVL91:
 912              		.loc 1 385 0
ARM GAS  /tmp/cca3sVsG.s 			page 17


 913 0012 E36B     		ldr	r3, [r4, #60]
 914              	.LVL92:
 915 0014 15EA0306 		ands	r6, r5, r3
 916              	.LVL93:
 917 0018 06D1     		bne	.L85
 918              		.loc 1 386 0
 919 001a A562     		str	r5, [r4, #40]
 920              		.loc 1 387 0
 921 001c 0820     		movs	r0, #8
 922 001e FFF7FEFF 		bl	chSchGoSleepS
 923              	.LVL94:
 924              		.loc 1 388 0
 925 0022 E36B     		ldr	r3, [r4, #60]
 926 0024 05EA0306 		and	r6, r5, r3
 927              	.LVL95:
 928              	.L85:
 929              		.loc 1 390 0
 930 0028 23EA0603 		bic	r3, r3, r6
 931 002c E363     		str	r3, [r4, #60]
 932              		.loc 1 392 0
 933 002e FFF7FEFF 		bl	dbg_check_unlock
 934              	.LVL96:
 935              	.LBB27:
 936 0032 0023     		movs	r3, #0
 937              	@ 392 "../../ChibiOS_2.6.5/os/kernel/src/chevents.c" 1
 938 0034 83F31188 		msr     BASEPRI, r3
 939              	@ 0 "" 2
 940              		.thumb
 941              	.LBE27:
 942              		.loc 1 394 0
 943 0038 3046     		mov	r0, r6
 944 003a 70BD     		pop	{r4, r5, r6, pc}
 945              	.LVL97:
 946              	.L88:
 947              		.align	2
 948              	.L87:
 949 003c 00000000 		.word	rlist
 950              		.cfi_endproc
 951              	.LFE19:
 952              		.size	chEvtWaitAny, .-chEvtWaitAny
 953              		.section	.text.chEvtWaitAll,"ax",%progbits
 954              		.align	2
 955              		.p2align 4,,15
 956              		.global	chEvtWaitAll
 957              		.thumb
 958              		.thumb_func
 959              		.type	chEvtWaitAll, %function
 960              	chEvtWaitAll:
 961              	.LFB20:
 962              		.loc 1 407 0
 963              		.cfi_startproc
 964              		@ args = 0, pretend = 0, frame = 0
 965              		@ frame_needed = 0, uses_anonymous_args = 0
 966              	.LVL98:
 967 0000 38B5     		push	{r3, r4, r5, lr}
 968              		.cfi_def_cfa_offset 16
 969              		.cfi_offset 3, -16
ARM GAS  /tmp/cca3sVsG.s 			page 18


 970              		.cfi_offset 4, -12
 971              		.cfi_offset 5, -8
 972              		.cfi_offset 14, -4
 973              		.loc 1 408 0
 974 0002 0E4B     		ldr	r3, .L92
 975              		.loc 1 407 0
 976 0004 0446     		mov	r4, r0
 977              		.loc 1 408 0
 978 0006 9D69     		ldr	r5, [r3, #24]
 979              	.LVL99:
 980              	.LBB28:
 981              		.loc 1 410 0
 982 0008 2023     		movs	r3, #32
 983              	@ 410 "../../ChibiOS_2.6.5/os/kernel/src/chevents.c" 1
 984 000a 83F31188 		msr     BASEPRI, r3
 985              	@ 0 "" 2
 986              		.thumb
 987              	.LBE28:
 988 000e FFF7FEFF 		bl	dbg_check_lock
 989              	.LVL100:
 990              		.loc 1 412 0
 991 0012 EB6B     		ldr	r3, [r5, #60]
 992 0014 04EA0302 		and	r2, r4, r3
 993 0018 A242     		cmp	r2, r4
 994 001a 04D0     		beq	.L90
 995              		.loc 1 413 0
 996 001c AC62     		str	r4, [r5, #40]
 997              		.loc 1 414 0
 998 001e 0920     		movs	r0, #9
 999 0020 FFF7FEFF 		bl	chSchGoSleepS
 1000              	.LVL101:
 1001 0024 EB6B     		ldr	r3, [r5, #60]
 1002              	.L90:
 1003              		.loc 1 416 0
 1004 0026 23EA0403 		bic	r3, r3, r4
 1005 002a EB63     		str	r3, [r5, #60]
 1006              		.loc 1 418 0
 1007 002c FFF7FEFF 		bl	dbg_check_unlock
 1008              	.LVL102:
 1009              	.LBB29:
 1010 0030 0023     		movs	r3, #0
 1011              	@ 418 "../../ChibiOS_2.6.5/os/kernel/src/chevents.c" 1
 1012 0032 83F31188 		msr     BASEPRI, r3
 1013              	@ 0 "" 2
 1014              		.thumb
 1015              	.LBE29:
 1016              		.loc 1 420 0
 1017 0036 2046     		mov	r0, r4
 1018 0038 38BD     		pop	{r3, r4, r5, pc}
 1019              	.LVL103:
 1020              	.L93:
 1021 003a 00BF     		.align	2
 1022              	.L92:
 1023 003c 00000000 		.word	rlist
 1024              		.cfi_endproc
 1025              	.LFE20:
 1026              		.size	chEvtWaitAll, .-chEvtWaitAll
ARM GAS  /tmp/cca3sVsG.s 			page 19


 1027              		.section	.text.chEvtWaitOneTimeout,"ax",%progbits
 1028              		.align	2
 1029              		.p2align 4,,15
 1030              		.global	chEvtWaitOneTimeout
 1031              		.thumb
 1032              		.thumb_func
 1033              		.type	chEvtWaitOneTimeout, %function
 1034              	chEvtWaitOneTimeout:
 1035              	.LFB21:
 1036              		.loc 1 446 0
 1037              		.cfi_startproc
 1038              		@ args = 0, pretend = 0, frame = 0
 1039              		@ frame_needed = 0, uses_anonymous_args = 0
 1040              	.LVL104:
 1041 0000 F8B5     		push	{r3, r4, r5, r6, r7, lr}
 1042              		.cfi_def_cfa_offset 24
 1043              		.cfi_offset 3, -24
 1044              		.cfi_offset 4, -20
 1045              		.cfi_offset 5, -16
 1046              		.cfi_offset 6, -12
 1047              		.cfi_offset 7, -8
 1048              		.cfi_offset 14, -4
 1049              		.loc 1 447 0
 1050 0002 194B     		ldr	r3, .L102
 1051              		.loc 1 446 0
 1052 0004 0546     		mov	r5, r0
 1053              		.loc 1 447 0
 1054 0006 9E69     		ldr	r6, [r3, #24]
 1055              	.LVL105:
 1056              		.loc 1 446 0
 1057 0008 0F46     		mov	r7, r1
 1058              	.LBB30:
 1059              		.loc 1 450 0
 1060 000a 2023     		movs	r3, #32
 1061              	@ 450 "../../ChibiOS_2.6.5/os/kernel/src/chevents.c" 1
 1062 000c 83F31188 		msr     BASEPRI, r3
 1063              	@ 0 "" 2
 1064              		.thumb
 1065              	.LBE30:
 1066 0010 FFF7FEFF 		bl	dbg_check_lock
 1067              	.LVL106:
 1068              		.loc 1 452 0
 1069 0014 F26B     		ldr	r2, [r6, #60]
 1070              	.LVL107:
 1071 0016 15EA0204 		ands	r4, r5, r2
 1072              	.LVL108:
 1073 001a 0AD1     		bne	.L95
 1074              		.loc 1 453 0
 1075 001c AFB1     		cbz	r7, .L100
 1076              		.loc 1 457 0
 1077 001e B562     		str	r5, [r6, #40]
 1078              		.loc 1 458 0
 1079 0020 3946     		mov	r1, r7
 1080 0022 0820     		movs	r0, #8
 1081 0024 FFF7FEFF 		bl	chSchGoSleepTimeoutS
 1082              	.LVL109:
 1083 0028 0028     		cmp	r0, #0
ARM GAS  /tmp/cca3sVsG.s 			page 20


 1084 002a 15DB     		blt	.L101
 1085              		.loc 1 462 0
 1086 002c F26B     		ldr	r2, [r6, #60]
 1087 002e 05EA0204 		and	r4, r5, r2
 1088              	.LVL110:
 1089              	.L95:
 1090              		.loc 1 464 0
 1091 0032 6342     		negs	r3, r4
 1092 0034 1C40     		ands	r4, r4, r3
 1093              	.LVL111:
 1094              		.loc 1 465 0
 1095 0036 22EA0402 		bic	r2, r2, r4
 1096 003a F263     		str	r2, [r6, #60]
 1097              		.loc 1 467 0
 1098 003c FFF7FEFF 		bl	dbg_check_unlock
 1099              	.LVL112:
 1100              	.LBB31:
 1101 0040 0023     		movs	r3, #0
 1102              	@ 467 "../../ChibiOS_2.6.5/os/kernel/src/chevents.c" 1
 1103 0042 83F31188 		msr     BASEPRI, r3
 1104              	@ 0 "" 2
 1105              		.thumb
 1106              	.LBE31:
 1107              		.loc 1 468 0
 1108 0046 2046     		mov	r0, r4
 1109              		.loc 1 469 0
 1110 0048 F8BD     		pop	{r3, r4, r5, r6, r7, pc}
 1111              	.LVL113:
 1112              	.L100:
 1113              		.loc 1 454 0
 1114 004a FFF7FEFF 		bl	dbg_check_unlock
 1115              	.LVL114:
 1116              	.LBB32:
 1117 004e 3B46     		mov	r3, r7
 1118              	@ 454 "../../ChibiOS_2.6.5/os/kernel/src/chevents.c" 1
 1119 0050 83F31188 		msr     BASEPRI, r3
 1120              	@ 0 "" 2
 1121              		.thumb
 1122              	.LBE32:
 1123              		.loc 1 455 0
 1124 0054 3846     		mov	r0, r7
 1125 0056 F8BD     		pop	{r3, r4, r5, r6, r7, pc}
 1126              	.LVL115:
 1127              	.L101:
 1128              		.loc 1 459 0
 1129 0058 FFF7FEFF 		bl	dbg_check_unlock
 1130              	.LVL116:
 1131              	.LBB33:
 1132 005c 2346     		mov	r3, r4
 1133              	@ 459 "../../ChibiOS_2.6.5/os/kernel/src/chevents.c" 1
 1134 005e 83F31188 		msr     BASEPRI, r3
 1135              	@ 0 "" 2
 1136              		.thumb
 1137              	.LBE33:
 1138              		.loc 1 460 0
 1139 0062 2046     		mov	r0, r4
 1140 0064 F8BD     		pop	{r3, r4, r5, r6, r7, pc}
ARM GAS  /tmp/cca3sVsG.s 			page 21


 1141              	.LVL117:
 1142              	.L103:
 1143 0066 00BF     		.align	2
 1144              	.L102:
 1145 0068 00000000 		.word	rlist
 1146              		.cfi_endproc
 1147              	.LFE21:
 1148              		.size	chEvtWaitOneTimeout, .-chEvtWaitOneTimeout
 1149              		.section	.text.chEvtWaitAnyTimeout,"ax",%progbits
 1150              		.align	2
 1151              		.p2align 4,,15
 1152              		.global	chEvtWaitAnyTimeout
 1153              		.thumb
 1154              		.thumb_func
 1155              		.type	chEvtWaitAnyTimeout, %function
 1156              	chEvtWaitAnyTimeout:
 1157              	.LFB22:
 1158              		.loc 1 489 0
 1159              		.cfi_startproc
 1160              		@ args = 0, pretend = 0, frame = 0
 1161              		@ frame_needed = 0, uses_anonymous_args = 0
 1162              	.LVL118:
 1163 0000 F8B5     		push	{r3, r4, r5, r6, r7, lr}
 1164              		.cfi_def_cfa_offset 24
 1165              		.cfi_offset 3, -24
 1166              		.cfi_offset 4, -20
 1167              		.cfi_offset 5, -16
 1168              		.cfi_offset 6, -12
 1169              		.cfi_offset 7, -8
 1170              		.cfi_offset 14, -4
 1171              		.loc 1 490 0
 1172 0002 184B     		ldr	r3, .L112
 1173              		.loc 1 489 0
 1174 0004 0546     		mov	r5, r0
 1175              		.loc 1 490 0
 1176 0006 9E69     		ldr	r6, [r3, #24]
 1177              	.LVL119:
 1178              		.loc 1 489 0
 1179 0008 0F46     		mov	r7, r1
 1180              	.LBB34:
 1181              		.loc 1 493 0
 1182 000a 2023     		movs	r3, #32
 1183              	@ 493 "../../ChibiOS_2.6.5/os/kernel/src/chevents.c" 1
 1184 000c 83F31188 		msr     BASEPRI, r3
 1185              	@ 0 "" 2
 1186              		.thumb
 1187              	.LBE34:
 1188 0010 FFF7FEFF 		bl	dbg_check_lock
 1189              	.LVL120:
 1190              		.loc 1 495 0
 1191 0014 F26B     		ldr	r2, [r6, #60]
 1192              	.LVL121:
 1193 0016 15EA0204 		ands	r4, r5, r2
 1194              	.LVL122:
 1195 001a 0AD1     		bne	.L105
 1196              		.loc 1 496 0
 1197 001c 9FB1     		cbz	r7, .L110
ARM GAS  /tmp/cca3sVsG.s 			page 22


 1198              		.loc 1 500 0
 1199 001e B562     		str	r5, [r6, #40]
 1200              		.loc 1 501 0
 1201 0020 3946     		mov	r1, r7
 1202 0022 0820     		movs	r0, #8
 1203 0024 FFF7FEFF 		bl	chSchGoSleepTimeoutS
 1204              	.LVL123:
 1205 0028 0028     		cmp	r0, #0
 1206 002a 13DB     		blt	.L111
 1207              		.loc 1 505 0
 1208 002c F26B     		ldr	r2, [r6, #60]
 1209 002e 05EA0204 		and	r4, r5, r2
 1210              	.LVL124:
 1211              	.L105:
 1212              		.loc 1 507 0
 1213 0032 22EA0402 		bic	r2, r2, r4
 1214 0036 F263     		str	r2, [r6, #60]
 1215              		.loc 1 509 0
 1216 0038 FFF7FEFF 		bl	dbg_check_unlock
 1217              	.LVL125:
 1218              	.LBB35:
 1219 003c 0023     		movs	r3, #0
 1220              	@ 509 "../../ChibiOS_2.6.5/os/kernel/src/chevents.c" 1
 1221 003e 83F31188 		msr     BASEPRI, r3
 1222              	@ 0 "" 2
 1223              		.thumb
 1224              	.LBE35:
 1225              		.loc 1 510 0
 1226 0042 2046     		mov	r0, r4
 1227              		.loc 1 511 0
 1228 0044 F8BD     		pop	{r3, r4, r5, r6, r7, pc}
 1229              	.LVL126:
 1230              	.L110:
 1231              		.loc 1 497 0
 1232 0046 FFF7FEFF 		bl	dbg_check_unlock
 1233              	.LVL127:
 1234              	.LBB36:
 1235 004a 3B46     		mov	r3, r7
 1236              	@ 497 "../../ChibiOS_2.6.5/os/kernel/src/chevents.c" 1
 1237 004c 83F31188 		msr     BASEPRI, r3
 1238              	@ 0 "" 2
 1239              		.thumb
 1240              	.LBE36:
 1241              		.loc 1 498 0
 1242 0050 3846     		mov	r0, r7
 1243 0052 F8BD     		pop	{r3, r4, r5, r6, r7, pc}
 1244              	.LVL128:
 1245              	.L111:
 1246              		.loc 1 502 0
 1247 0054 FFF7FEFF 		bl	dbg_check_unlock
 1248              	.LVL129:
 1249              	.LBB37:
 1250 0058 2346     		mov	r3, r4
 1251              	@ 502 "../../ChibiOS_2.6.5/os/kernel/src/chevents.c" 1
 1252 005a 83F31188 		msr     BASEPRI, r3
 1253              	@ 0 "" 2
 1254              		.thumb
ARM GAS  /tmp/cca3sVsG.s 			page 23


 1255              	.LBE37:
 1256              		.loc 1 503 0
 1257 005e 2046     		mov	r0, r4
 1258 0060 F8BD     		pop	{r3, r4, r5, r6, r7, pc}
 1259              	.LVL130:
 1260              	.L113:
 1261 0062 00BF     		.align	2
 1262              	.L112:
 1263 0064 00000000 		.word	rlist
 1264              		.cfi_endproc
 1265              	.LFE22:
 1266              		.size	chEvtWaitAnyTimeout, .-chEvtWaitAnyTimeout
 1267              		.section	.text.chEvtWaitAllTimeout,"ax",%progbits
 1268              		.align	2
 1269              		.p2align 4,,15
 1270              		.global	chEvtWaitAllTimeout
 1271              		.thumb
 1272              		.thumb_func
 1273              		.type	chEvtWaitAllTimeout, %function
 1274              	chEvtWaitAllTimeout:
 1275              	.LFB23:
 1276              		.loc 1 530 0
 1277              		.cfi_startproc
 1278              		@ args = 0, pretend = 0, frame = 0
 1279              		@ frame_needed = 0, uses_anonymous_args = 0
 1280              	.LVL131:
 1281              		.loc 1 531 0
 1282 0000 174B     		ldr	r3, .L121
 1283              		.loc 1 530 0
 1284 0002 70B5     		push	{r4, r5, r6, lr}
 1285              		.cfi_def_cfa_offset 16
 1286              		.cfi_offset 4, -16
 1287              		.cfi_offset 5, -12
 1288              		.cfi_offset 6, -8
 1289              		.cfi_offset 14, -4
 1290              		.loc 1 531 0
 1291 0004 9D69     		ldr	r5, [r3, #24]
 1292              	.LVL132:
 1293              		.loc 1 530 0
 1294 0006 0446     		mov	r4, r0
 1295 0008 0E46     		mov	r6, r1
 1296              	.LBB38:
 1297              		.loc 1 533 0
 1298 000a 2023     		movs	r3, #32
 1299              	@ 533 "../../ChibiOS_2.6.5/os/kernel/src/chevents.c" 1
 1300 000c 83F31188 		msr     BASEPRI, r3
 1301              	@ 0 "" 2
 1302              		.thumb
 1303              	.LBE38:
 1304 0010 FFF7FEFF 		bl	dbg_check_lock
 1305              	.LVL133:
 1306              		.loc 1 535 0
 1307 0014 EB6B     		ldr	r3, [r5, #60]
 1308 0016 04EA0302 		and	r2, r4, r3
 1309 001a A242     		cmp	r2, r4
 1310 001c 08D0     		beq	.L115
 1311              		.loc 1 536 0
ARM GAS  /tmp/cca3sVsG.s 			page 24


 1312 001e 8EB1     		cbz	r6, .L120
 1313              		.loc 1 540 0
 1314 0020 AC62     		str	r4, [r5, #40]
 1315              		.loc 1 541 0
 1316 0022 3146     		mov	r1, r6
 1317 0024 0920     		movs	r0, #9
 1318 0026 FFF7FEFF 		bl	chSchGoSleepTimeoutS
 1319              	.LVL134:
 1320 002a 0028     		cmp	r0, #0
 1321 002c 11DB     		blt	.L118
 1322 002e EB6B     		ldr	r3, [r5, #60]
 1323              	.L115:
 1324              		.loc 1 546 0
 1325 0030 23EA0403 		bic	r3, r3, r4
 1326 0034 EB63     		str	r3, [r5, #60]
 1327              		.loc 1 548 0
 1328 0036 FFF7FEFF 		bl	dbg_check_unlock
 1329              	.LVL135:
 1330              	.LBB39:
 1331 003a 0023     		movs	r3, #0
 1332              	@ 548 "../../ChibiOS_2.6.5/os/kernel/src/chevents.c" 1
 1333 003c 83F31188 		msr     BASEPRI, r3
 1334              	@ 0 "" 2
 1335              		.thumb
 1336              	.LBE39:
 1337              		.loc 1 549 0
 1338 0040 2046     		mov	r0, r4
 1339              		.loc 1 550 0
 1340 0042 70BD     		pop	{r4, r5, r6, pc}
 1341              	.LVL136:
 1342              	.L120:
 1343              		.loc 1 537 0
 1344 0044 FFF7FEFF 		bl	dbg_check_unlock
 1345              	.LVL137:
 1346              	.LBB40:
 1347 0048 3346     		mov	r3, r6
 1348              	@ 537 "../../ChibiOS_2.6.5/os/kernel/src/chevents.c" 1
 1349 004a 83F31188 		msr     BASEPRI, r3
 1350              	@ 0 "" 2
 1351              		.thumb
 1352              	.LBE40:
 1353              		.loc 1 538 0
 1354 004e 3046     		mov	r0, r6
 1355 0050 70BD     		pop	{r4, r5, r6, pc}
 1356              	.LVL138:
 1357              	.L118:
 1358              		.loc 1 542 0
 1359 0052 FFF7FEFF 		bl	dbg_check_unlock
 1360              	.LVL139:
 1361              	.LBB41:
 1362 0056 0023     		movs	r3, #0
 1363              	@ 542 "../../ChibiOS_2.6.5/os/kernel/src/chevents.c" 1
 1364 0058 83F31188 		msr     BASEPRI, r3
 1365              	@ 0 "" 2
 1366              		.thumb
 1367              	.LBE41:
 1368              		.loc 1 543 0
ARM GAS  /tmp/cca3sVsG.s 			page 25


 1369 005c 1846     		mov	r0, r3
 1370 005e 70BD     		pop	{r4, r5, r6, pc}
 1371              	.LVL140:
 1372              	.L122:
 1373              		.align	2
 1374              	.L121:
 1375 0060 00000000 		.word	rlist
 1376              		.cfi_endproc
 1377              	.LFE23:
 1378              		.size	chEvtWaitAllTimeout, .-chEvtWaitAllTimeout
 1379              		.section	.rodata.str1.4,"aMS",%progbits,1
 1380              		.align	2
 1381              	.LC0:
 1382 0000 22636845 		.ascii	"\"chEvtRegisterMask\"()\000"
 1382      76745265 
 1382      67697374 
 1382      65724D61 
 1382      736B2228 
 1383 0016 0000     		.space	2
 1384              	.LC1:
 1385 0018 22636845 		.ascii	"\"chEvtUnregister\"()\000"
 1385      7674556E 
 1385      72656769 
 1385      73746572 
 1385      22282900 
 1386              	.LC2:
 1387 002c 22636845 		.ascii	"\"chEvtSignalI\"()\000"
 1387      76745369 
 1387      676E616C 
 1387      49222829 
 1387      00
 1388 003d 000000   		.space	3
 1389              	.LC3:
 1390 0040 22636845 		.ascii	"\"chEvtBroadcastMaskI\"()\000"
 1390      76744272 
 1390      6F616463 
 1390      6173744D 
 1390      61736B49 
 1391              	.LC4:
 1392 0058 22636845 		.ascii	"\"chEvtSignal\"()\000"
 1392      76745369 
 1392      676E616C 
 1392      22282900 
 1393              	.LC5:
 1394 0068 22636845 		.ascii	"\"chEvtDispatch\"()\000"
 1394      76744469 
 1394      73706174 
 1394      63682228 
 1394      2900
 1395 007a 0000     		.space	2
 1396              	.LC6:
 1397 007c 63684576 		.ascii	"chEvtDispatch(), #1\000"
 1397      74446973 
 1397      70617463 
 1397      6828292C 
 1397      20233100 
 1398              		.text
ARM GAS  /tmp/cca3sVsG.s 			page 26


 1399              	.Letext0:
 1400              		.file 2 "/usr/include/newlib/machine/_default_types.h"
 1401              		.file 3 "/usr/include/newlib/sys/_stdint.h"
 1402              		.file 4 "../../ChibiOS_2.6.5/os/ports/GCC/ARMCMx/chtypes.h"
 1403              		.file 5 "../../ChibiOS_2.6.5/os/kernel/include/chlists.h"
 1404              		.file 6 "../../ChibiOS_2.6.5/os/kernel/include/chthreads.h"
 1405              		.file 7 "../../ChibiOS_2.6.5/os/ports/GCC/ARMCMx/chcore_v7m.h"
 1406              		.file 8 "../../ChibiOS_2.6.5/os/kernel/include/chschd.h"
 1407              		.file 9 "../../ChibiOS_2.6.5/os/kernel/include/chmtx.h"
 1408              		.file 10 "../../ChibiOS_2.6.5/os/kernel/include/chevents.h"
 1409              		.file 11 "../../ChibiOS_2.6.5/os/kernel/include/chdebug.h"