ARM GAS  /tmp/cc2eAqjR.s 			page 1


   1              		.syntax unified
   2              		.cpu cortex-m4
   3              		.fpu softvfp
   4              		.eabi_attribute 20, 1
   5              		.eabi_attribute 21, 1
   6              		.eabi_attribute 23, 3
   7              		.eabi_attribute 24, 1
   8              		.eabi_attribute 25, 1
   9              		.eabi_attribute 26, 1
  10              		.eabi_attribute 30, 2
  11              		.eabi_attribute 34, 1
  12              		.eabi_attribute 18, 4
  13              		.thumb
  14              		.file	"chmboxes.c"
  15              		.text
  16              	.Ltext0:
  17              		.cfi_sections	.debug_frame
  18              		.section	.text.chMBInit,"ax",%progbits
  19              		.align	2
  20              		.p2align 4,,15
  21              		.global	chMBInit
  22              		.thumb
  23              		.thumb_func
  24              		.type	chMBInit, %function
  25              	chMBInit:
  26              	.LFB7:
  27              		.file 1 "../../ChibiOS_2.6.5/os/kernel/src/chmboxes.c"
  28              		.loc 1 72 0
  29              		.cfi_startproc
  30              		@ args = 0, pretend = 0, frame = 0
  31              		@ frame_needed = 0, uses_anonymous_args = 0
  32              	.LVL0:
  33 0000 70B5     		push	{r4, r5, r6, lr}
  34              		.cfi_def_cfa_offset 16
  35              		.cfi_offset 4, -16
  36              		.cfi_offset 5, -12
  37              		.cfi_offset 6, -8
  38              		.cfi_offset 14, -4
  39              		.loc 1 72 0
  40 0002 0D46     		mov	r5, r1
  41 0004 1646     		mov	r6, r2
  42              		.loc 1 74 0
  43 0006 0446     		mov	r4, r0
  44 0008 A0B1     		cbz	r0, .L2
  45              		.loc 1 74 0 is_stmt 0 discriminator 2
  46 000a 99B1     		cbz	r1, .L2
  47              		.loc 1 74 0 discriminator 4
  48 000c 002A     		cmp	r2, #0
  49 000e 11DD     		ble	.L2
  50              	.LVL1:
  51              	.L3:
  52              		.loc 1 77 0 is_stmt 1
  53 0010 05EB8603 		add	r3, r5, r6, lsl #2
  54              		.loc 1 78 0
  55 0014 3146     		mov	r1, r6
  56 0016 04F11C00 		add	r0, r4, #28
  57              		.loc 1 76 0
ARM GAS  /tmp/cc2eAqjR.s 			page 2


  58 001a E560     		str	r5, [r4, #12]
  59 001c A560     		str	r5, [r4, #8]
  60 001e 2560     		str	r5, [r4]
  61              		.loc 1 77 0
  62 0020 6360     		str	r3, [r4, #4]
  63              		.loc 1 78 0
  64 0022 FFF7FEFF 		bl	chSemInit
  65              	.LVL2:
  66              		.loc 1 79 0
  67 0026 04F11000 		add	r0, r4, #16
  68 002a 0021     		movs	r1, #0
  69              		.loc 1 80 0
  70 002c BDE87040 		pop	{r4, r5, r6, lr}
  71              		.cfi_remember_state
  72              		.cfi_restore 14
  73              		.cfi_restore 6
  74              		.cfi_restore 5
  75              		.cfi_restore 4
  76              		.cfi_def_cfa_offset 0
  77              	.LVL3:
  78              		.loc 1 79 0
  79 0030 FFF7FEBF 		b	chSemInit
  80              	.LVL4:
  81              	.L2:
  82              		.cfi_restore_state
  83              		.loc 1 74 0 discriminator 5
  84 0034 0148     		ldr	r0, .L12
  85              	.LVL5:
  86 0036 FFF7FEFF 		bl	chDbgPanic
  87              	.LVL6:
  88 003a E9E7     		b	.L3
  89              	.L13:
  90              		.align	2
  91              	.L12:
  92 003c 00000000 		.word	.LC0
  93              		.cfi_endproc
  94              	.LFE7:
  95              		.size	chMBInit, .-chMBInit
  96              		.section	.text.chMBReset,"ax",%progbits
  97              		.align	2
  98              		.p2align 4,,15
  99              		.global	chMBReset
 100              		.thumb
 101              		.thumb_func
 102              		.type	chMBReset, %function
 103              	chMBReset:
 104              	.LFB8:
 105              		.loc 1 91 0
 106              		.cfi_startproc
 107              		@ args = 0, pretend = 0, frame = 0
 108              		@ frame_needed = 0, uses_anonymous_args = 0
 109              	.LVL7:
 110 0000 10B5     		push	{r4, lr}
 111              		.cfi_def_cfa_offset 8
 112              		.cfi_offset 4, -8
 113              		.cfi_offset 14, -4
 114              		.loc 1 93 0
ARM GAS  /tmp/cc2eAqjR.s 			page 3


 115 0002 0446     		mov	r4, r0
 116 0004 D8B1     		cbz	r0, .L17
 117              	.LVL8:
 118              	.L15:
 119              	.LBB2:
 120              		.loc 1 95 0
 121 0006 2023     		movs	r3, #32
 122              	@ 95 "../../ChibiOS_2.6.5/os/kernel/src/chmboxes.c" 1
 123 0008 83F31188 		msr     BASEPRI, r3
 124              	@ 0 "" 2
 125              		.thumb
 126              	.LBE2:
 127 000c FFF7FEFF 		bl	dbg_check_lock
 128              	.LVL9:
 129              		.loc 1 96 0
 130 0010 2368     		ldr	r3, [r4]
 131              		.loc 1 97 0
 132 0012 6168     		ldr	r1, [r4, #4]
 133              		.loc 1 96 0
 134 0014 E360     		str	r3, [r4, #12]
 135              		.loc 1 97 0
 136 0016 C91A     		subs	r1, r1, r3
 137              		.loc 1 96 0
 138 0018 A360     		str	r3, [r4, #8]
 139              		.loc 1 97 0
 140 001a 04F11C00 		add	r0, r4, #28
 141 001e 8910     		asrs	r1, r1, #2
 142 0020 FFF7FEFF 		bl	chSemResetI
 143              	.LVL10:
 144              		.loc 1 98 0
 145 0024 04F11000 		add	r0, r4, #16
 146 0028 0021     		movs	r1, #0
 147 002a FFF7FEFF 		bl	chSemResetI
 148              	.LVL11:
 149              		.loc 1 99 0
 150 002e FFF7FEFF 		bl	chSchRescheduleS
 151              	.LVL12:
 152              		.loc 1 100 0
 153 0032 FFF7FEFF 		bl	dbg_check_unlock
 154              	.LVL13:
 155              	.LBB3:
 156 0036 0023     		movs	r3, #0
 157              	@ 100 "../../ChibiOS_2.6.5/os/kernel/src/chmboxes.c" 1
 158 0038 83F31188 		msr     BASEPRI, r3
 159              	@ 0 "" 2
 160              		.thumb
 161 003c 10BD     		pop	{r4, pc}
 162              	.LVL14:
 163              	.L17:
 164              	.LBE3:
 165              		.loc 1 93 0 discriminator 1
 166 003e 0248     		ldr	r0, .L18
 167              	.LVL15:
 168 0040 FFF7FEFF 		bl	chDbgPanic
 169              	.LVL16:
 170 0044 DFE7     		b	.L15
 171              	.L19:
ARM GAS  /tmp/cc2eAqjR.s 			page 4


 172 0046 00BF     		.align	2
 173              	.L18:
 174 0048 10000000 		.word	.LC1
 175              		.cfi_endproc
 176              	.LFE8:
 177              		.size	chMBReset, .-chMBReset
 178              		.section	.text.chMBPostS,"ax",%progbits
 179              		.align	2
 180              		.p2align 4,,15
 181              		.global	chMBPostS
 182              		.thumb
 183              		.thumb_func
 184              		.type	chMBPostS, %function
 185              	chMBPostS:
 186              	.LFB10:
 187              		.loc 1 150 0
 188              		.cfi_startproc
 189              		@ args = 0, pretend = 0, frame = 0
 190              		@ frame_needed = 0, uses_anonymous_args = 0
 191              	.LVL17:
 192 0000 70B5     		push	{r4, r5, r6, lr}
 193              		.cfi_def_cfa_offset 16
 194              		.cfi_offset 4, -16
 195              		.cfi_offset 5, -12
 196              		.cfi_offset 6, -8
 197              		.cfi_offset 14, -4
 198              		.loc 1 150 0
 199 0002 0446     		mov	r4, r0
 200 0004 0E46     		mov	r6, r1
 201 0006 1546     		mov	r5, r2
 202              		.loc 1 153 0
 203 0008 FFF7FEFF 		bl	chDbgCheckClassS
 204              	.LVL18:
 205              		.loc 1 154 0
 206 000c C4B1     		cbz	r4, .L25
 207              	.L21:
 208              		.loc 1 156 0
 209 000e 2946     		mov	r1, r5
 210 0010 04F11C00 		add	r0, r4, #28
 211 0014 FFF7FEFF 		bl	chSemWaitTimeoutS
 212              	.LVL19:
 213              		.loc 1 157 0
 214 0018 0546     		mov	r5, r0
 215              	.LVL20:
 216 001a 78B9     		cbnz	r0, .L22
 217              	.LVL21:
 218              	.LBB6:
 219              	.LBB7:
 220              		.loc 1 158 0
 221 001c A268     		ldr	r2, [r4, #8]
 222              		.loc 1 159 0
 223 001e 6168     		ldr	r1, [r4, #4]
 224              		.loc 1 158 0
 225 0020 131D     		adds	r3, r2, #4
 226              		.loc 1 159 0
 227 0022 8B42     		cmp	r3, r1
 228              		.loc 1 158 0
ARM GAS  /tmp/cc2eAqjR.s 			page 5


 229 0024 A360     		str	r3, [r4, #8]
 230              		.loc 1 160 0
 231 0026 28BF     		it	cs
 232 0028 2368     		ldrcs	r3, [r4]
 233              		.loc 1 158 0
 234 002a 1660     		str	r6, [r2]
 235              		.loc 1 161 0
 236 002c 04F11000 		add	r0, r4, #16
 237              	.LVL22:
 238              		.loc 1 160 0
 239 0030 28BF     		it	cs
 240 0032 A360     		strcs	r3, [r4, #8]
 241              		.loc 1 161 0
 242 0034 FFF7FEFF 		bl	chSemSignalI
 243              	.LVL23:
 244              		.loc 1 162 0
 245 0038 FFF7FEFF 		bl	chSchRescheduleS
 246              	.LVL24:
 247              	.L22:
 248              	.LBE7:
 249              	.LBE6:
 250              		.loc 1 165 0
 251 003c 2846     		mov	r0, r5
 252 003e 70BD     		pop	{r4, r5, r6, pc}
 253              	.LVL25:
 254              	.L25:
 255              		.loc 1 154 0 discriminator 1
 256 0040 0148     		ldr	r0, .L26
 257 0042 FFF7FEFF 		bl	chDbgPanic
 258              	.LVL26:
 259 0046 E2E7     		b	.L21
 260              	.L27:
 261              		.align	2
 262              	.L26:
 263 0048 20000000 		.word	.LC2
 264              		.cfi_endproc
 265              	.LFE10:
 266              		.size	chMBPostS, .-chMBPostS
 267              		.section	.text.chMBPost,"ax",%progbits
 268              		.align	2
 269              		.p2align 4,,15
 270              		.global	chMBPost
 271              		.thumb
 272              		.thumb_func
 273              		.type	chMBPost, %function
 274              	chMBPost:
 275              	.LFB9:
 276              		.loc 1 122 0
 277              		.cfi_startproc
 278              		@ args = 0, pretend = 0, frame = 0
 279              		@ frame_needed = 0, uses_anonymous_args = 0
 280              	.LVL27:
 281 0000 70B5     		push	{r4, r5, r6, lr}
 282              		.cfi_def_cfa_offset 16
 283              		.cfi_offset 4, -16
 284              		.cfi_offset 5, -12
 285              		.cfi_offset 6, -8
ARM GAS  /tmp/cc2eAqjR.s 			page 6


 286              		.cfi_offset 14, -4
 287              	.LBB8:
 288              		.loc 1 125 0
 289 0002 2023     		movs	r3, #32
 290              	.LBE8:
 291              		.loc 1 122 0
 292 0004 0646     		mov	r6, r0
 293 0006 0D46     		mov	r5, r1
 294 0008 1446     		mov	r4, r2
 295              	.LBB9:
 296              		.loc 1 125 0
 297              	@ 125 "../../ChibiOS_2.6.5/os/kernel/src/chmboxes.c" 1
 298 000a 83F31188 		msr     BASEPRI, r3
 299              	@ 0 "" 2
 300              		.thumb
 301              	.LBE9:
 302 000e FFF7FEFF 		bl	dbg_check_lock
 303              	.LVL28:
 304              		.loc 1 126 0
 305 0012 2246     		mov	r2, r4
 306 0014 2946     		mov	r1, r5
 307 0016 3046     		mov	r0, r6
 308 0018 FFF7FEFF 		bl	chMBPostS
 309              	.LVL29:
 310 001c 0446     		mov	r4, r0
 311              	.LVL30:
 312              		.loc 1 127 0
 313 001e FFF7FEFF 		bl	dbg_check_unlock
 314              	.LVL31:
 315              	.LBB10:
 316 0022 0023     		movs	r3, #0
 317              	@ 127 "../../ChibiOS_2.6.5/os/kernel/src/chmboxes.c" 1
 318 0024 83F31188 		msr     BASEPRI, r3
 319              	@ 0 "" 2
 320              		.thumb
 321              	.LBE10:
 322              		.loc 1 129 0
 323 0028 2046     		mov	r0, r4
 324 002a 70BD     		pop	{r4, r5, r6, pc}
 325              		.cfi_endproc
 326              	.LFE9:
 327              		.size	chMBPost, .-chMBPost
 328              		.section	.text.chMBPostI,"ax",%progbits
 329              		.align	2
 330              		.p2align 4,,15
 331              		.global	chMBPostI
 332              		.thumb
 333              		.thumb_func
 334              		.type	chMBPostI, %function
 335              	chMBPostI:
 336              	.LFB11:
 337              		.loc 1 181 0
 338              		.cfi_startproc
 339              		@ args = 0, pretend = 0, frame = 0
 340              		@ frame_needed = 0, uses_anonymous_args = 0
 341              	.LVL32:
 342 0000 38B5     		push	{r3, r4, r5, lr}
ARM GAS  /tmp/cc2eAqjR.s 			page 7


 343              		.cfi_def_cfa_offset 16
 344              		.cfi_offset 3, -16
 345              		.cfi_offset 4, -12
 346              		.cfi_offset 5, -8
 347              		.cfi_offset 14, -4
 348              		.loc 1 181 0
 349 0002 0446     		mov	r4, r0
 350 0004 0D46     		mov	r5, r1
 351              		.loc 1 183 0
 352 0006 FFF7FEFF 		bl	chDbgCheckClassI
 353              	.LVL33:
 354              		.loc 1 184 0
 355 000a A4B1     		cbz	r4, .L36
 356              	.L31:
 357              		.loc 1 186 0
 358 000c 636A     		ldr	r3, [r4, #36]
 359 000e 002B     		cmp	r3, #0
 360 0010 15DD     		ble	.L34
 361              		.loc 1 189 0
 362 0012 A068     		ldr	r0, [r4, #8]
 363              		.loc 1 190 0
 364 0014 6168     		ldr	r1, [r4, #4]
 365              		.loc 1 189 0
 366 0016 021D     		adds	r2, r0, #4
 367              		.loc 1 188 0
 368 0018 013B     		subs	r3, r3, #1
 369              		.loc 1 190 0
 370 001a 8A42     		cmp	r2, r1
 371              		.loc 1 188 0
 372 001c 6362     		str	r3, [r4, #36]
 373              		.loc 1 191 0
 374 001e 28BF     		it	cs
 375 0020 2368     		ldrcs	r3, [r4]
 376              		.loc 1 189 0
 377 0022 A260     		str	r2, [r4, #8]
 378 0024 0560     		str	r5, [r0]
 379              		.loc 1 192 0
 380 0026 04F11000 		add	r0, r4, #16
 381              		.loc 1 191 0
 382 002a 28BF     		it	cs
 383 002c A360     		strcs	r3, [r4, #8]
 384              		.loc 1 192 0
 385 002e FFF7FEFF 		bl	chSemSignalI
 386              	.LVL34:
 387              		.loc 1 193 0
 388 0032 0020     		movs	r0, #0
 389 0034 38BD     		pop	{r3, r4, r5, pc}
 390              	.LVL35:
 391              	.L36:
 392              		.loc 1 184 0 discriminator 1
 393 0036 0348     		ldr	r0, .L37
 394 0038 FFF7FEFF 		bl	chDbgPanic
 395              	.LVL36:
 396 003c E6E7     		b	.L31
 397              	.L34:
 398              		.loc 1 187 0
 399 003e 4FF0FF30 		mov	r0, #-1
ARM GAS  /tmp/cc2eAqjR.s 			page 8


 400              		.loc 1 194 0
 401 0042 38BD     		pop	{r3, r4, r5, pc}
 402              	.LVL37:
 403              	.L38:
 404              		.align	2
 405              	.L37:
 406 0044 30000000 		.word	.LC3
 407              		.cfi_endproc
 408              	.LFE11:
 409              		.size	chMBPostI, .-chMBPostI
 410              		.section	.text.chMBPostAheadS,"ax",%progbits
 411              		.align	2
 412              		.p2align 4,,15
 413              		.global	chMBPostAheadS
 414              		.thumb
 415              		.thumb_func
 416              		.type	chMBPostAheadS, %function
 417              	chMBPostAheadS:
 418              	.LFB13:
 419              		.loc 1 243 0
 420              		.cfi_startproc
 421              		@ args = 0, pretend = 0, frame = 0
 422              		@ frame_needed = 0, uses_anonymous_args = 0
 423              	.LVL38:
 424 0000 70B5     		push	{r4, r5, r6, lr}
 425              		.cfi_def_cfa_offset 16
 426              		.cfi_offset 4, -16
 427              		.cfi_offset 5, -12
 428              		.cfi_offset 6, -8
 429              		.cfi_offset 14, -4
 430              		.loc 1 243 0
 431 0002 0446     		mov	r4, r0
 432 0004 0E46     		mov	r6, r1
 433 0006 1546     		mov	r5, r2
 434              		.loc 1 246 0
 435 0008 FFF7FEFF 		bl	chDbgCheckClassS
 436              	.LVL39:
 437              		.loc 1 247 0
 438 000c CCB1     		cbz	r4, .L44
 439              	.L40:
 440              		.loc 1 249 0
 441 000e 2946     		mov	r1, r5
 442 0010 04F11C00 		add	r0, r4, #28
 443 0014 FFF7FEFF 		bl	chSemWaitTimeoutS
 444              	.LVL40:
 445              		.loc 1 250 0
 446 0018 0546     		mov	r5, r0
 447              	.LVL41:
 448 001a 60B9     		cbnz	r0, .L41
 449              	.LVL42:
 450              	.LBB13:
 451              	.LBB14:
 452              		.loc 1 251 0
 453 001c E368     		ldr	r3, [r4, #12]
 454 001e 2268     		ldr	r2, [r4]
 455 0020 043B     		subs	r3, r3, #4
 456 0022 9342     		cmp	r3, r2
ARM GAS  /tmp/cc2eAqjR.s 			page 9


 457 0024 E360     		str	r3, [r4, #12]
 458 0026 08D3     		bcc	.L45
 459              	.L42:
 460              		.loc 1 253 0
 461 0028 1E60     		str	r6, [r3]
 462              		.loc 1 254 0
 463 002a 04F11000 		add	r0, r4, #16
 464              	.LVL43:
 465 002e FFF7FEFF 		bl	chSemSignalI
 466              	.LVL44:
 467              		.loc 1 255 0
 468 0032 FFF7FEFF 		bl	chSchRescheduleS
 469              	.LVL45:
 470              	.L41:
 471              	.LBE14:
 472              	.LBE13:
 473              		.loc 1 258 0
 474 0036 2846     		mov	r0, r5
 475 0038 70BD     		pop	{r4, r5, r6, pc}
 476              	.LVL46:
 477              	.L45:
 478              	.LBB16:
 479              	.LBB15:
 480              		.loc 1 252 0
 481 003a 6368     		ldr	r3, [r4, #4]
 482 003c 043B     		subs	r3, r3, #4
 483 003e E360     		str	r3, [r4, #12]
 484 0040 F2E7     		b	.L42
 485              	.LVL47:
 486              	.L44:
 487              	.LBE15:
 488              	.LBE16:
 489              		.loc 1 247 0 discriminator 1
 490 0042 0248     		ldr	r0, .L46
 491 0044 FFF7FEFF 		bl	chDbgPanic
 492              	.LVL48:
 493 0048 E1E7     		b	.L40
 494              	.L47:
 495 004a 00BF     		.align	2
 496              	.L46:
 497 004c 40000000 		.word	.LC4
 498              		.cfi_endproc
 499              	.LFE13:
 500              		.size	chMBPostAheadS, .-chMBPostAheadS
 501              		.section	.text.chMBPostAhead,"ax",%progbits
 502              		.align	2
 503              		.p2align 4,,15
 504              		.global	chMBPostAhead
 505              		.thumb
 506              		.thumb_func
 507              		.type	chMBPostAhead, %function
 508              	chMBPostAhead:
 509              	.LFB12:
 510              		.loc 1 215 0
 511              		.cfi_startproc
 512              		@ args = 0, pretend = 0, frame = 0
 513              		@ frame_needed = 0, uses_anonymous_args = 0
ARM GAS  /tmp/cc2eAqjR.s 			page 10


 514              	.LVL49:
 515 0000 70B5     		push	{r4, r5, r6, lr}
 516              		.cfi_def_cfa_offset 16
 517              		.cfi_offset 4, -16
 518              		.cfi_offset 5, -12
 519              		.cfi_offset 6, -8
 520              		.cfi_offset 14, -4
 521              	.LBB17:
 522              		.loc 1 218 0
 523 0002 2023     		movs	r3, #32
 524              	.LBE17:
 525              		.loc 1 215 0
 526 0004 0646     		mov	r6, r0
 527 0006 0D46     		mov	r5, r1
 528 0008 1446     		mov	r4, r2
 529              	.LBB18:
 530              		.loc 1 218 0
 531              	@ 218 "../../ChibiOS_2.6.5/os/kernel/src/chmboxes.c" 1
 532 000a 83F31188 		msr     BASEPRI, r3
 533              	@ 0 "" 2
 534              		.thumb
 535              	.LBE18:
 536 000e FFF7FEFF 		bl	dbg_check_lock
 537              	.LVL50:
 538              		.loc 1 219 0
 539 0012 2246     		mov	r2, r4
 540 0014 2946     		mov	r1, r5
 541 0016 3046     		mov	r0, r6
 542 0018 FFF7FEFF 		bl	chMBPostAheadS
 543              	.LVL51:
 544 001c 0446     		mov	r4, r0
 545              	.LVL52:
 546              		.loc 1 220 0
 547 001e FFF7FEFF 		bl	dbg_check_unlock
 548              	.LVL53:
 549              	.LBB19:
 550 0022 0023     		movs	r3, #0
 551              	@ 220 "../../ChibiOS_2.6.5/os/kernel/src/chmboxes.c" 1
 552 0024 83F31188 		msr     BASEPRI, r3
 553              	@ 0 "" 2
 554              		.thumb
 555              	.LBE19:
 556              		.loc 1 222 0
 557 0028 2046     		mov	r0, r4
 558 002a 70BD     		pop	{r4, r5, r6, pc}
 559              		.cfi_endproc
 560              	.LFE12:
 561              		.size	chMBPostAhead, .-chMBPostAhead
 562              		.section	.text.chMBPostAheadI,"ax",%progbits
 563              		.align	2
 564              		.p2align 4,,15
 565              		.global	chMBPostAheadI
 566              		.thumb
 567              		.thumb_func
 568              		.type	chMBPostAheadI, %function
 569              	chMBPostAheadI:
 570              	.LFB14:
ARM GAS  /tmp/cc2eAqjR.s 			page 11


 571              		.loc 1 274 0
 572              		.cfi_startproc
 573              		@ args = 0, pretend = 0, frame = 0
 574              		@ frame_needed = 0, uses_anonymous_args = 0
 575              	.LVL54:
 576 0000 38B5     		push	{r3, r4, r5, lr}
 577              		.cfi_def_cfa_offset 16
 578              		.cfi_offset 3, -16
 579              		.cfi_offset 4, -12
 580              		.cfi_offset 5, -8
 581              		.cfi_offset 14, -4
 582              		.loc 1 274 0
 583 0002 0446     		mov	r4, r0
 584 0004 0D46     		mov	r5, r1
 585              		.loc 1 276 0
 586 0006 FFF7FEFF 		bl	chDbgCheckClassI
 587              	.LVL55:
 588              		.loc 1 277 0
 589 000a A4B1     		cbz	r4, .L56
 590              	.L51:
 591              		.loc 1 279 0
 592 000c 626A     		ldr	r2, [r4, #36]
 593 000e 002A     		cmp	r2, #0
 594 0010 15DD     		ble	.L54
 595              		.loc 1 282 0
 596 0012 E368     		ldr	r3, [r4, #12]
 597 0014 2168     		ldr	r1, [r4]
 598 0016 043B     		subs	r3, r3, #4
 599              		.loc 1 281 0
 600 0018 013A     		subs	r2, r2, #1
 601              		.loc 1 282 0
 602 001a 8B42     		cmp	r3, r1
 603              		.loc 1 281 0
 604 001c 6262     		str	r2, [r4, #36]
 605              		.loc 1 282 0
 606 001e E360     		str	r3, [r4, #12]
 607 0020 02D2     		bcs	.L53
 608              		.loc 1 283 0
 609 0022 6368     		ldr	r3, [r4, #4]
 610 0024 043B     		subs	r3, r3, #4
 611 0026 E360     		str	r3, [r4, #12]
 612              	.L53:
 613              		.loc 1 285 0
 614 0028 04F11000 		add	r0, r4, #16
 615              		.loc 1 284 0
 616 002c 1D60     		str	r5, [r3]
 617              		.loc 1 285 0
 618 002e FFF7FEFF 		bl	chSemSignalI
 619              	.LVL56:
 620              		.loc 1 286 0
 621 0032 0020     		movs	r0, #0
 622 0034 38BD     		pop	{r3, r4, r5, pc}
 623              	.LVL57:
 624              	.L56:
 625              		.loc 1 277 0 discriminator 1
 626 0036 0348     		ldr	r0, .L57
 627 0038 FFF7FEFF 		bl	chDbgPanic
ARM GAS  /tmp/cc2eAqjR.s 			page 12


 628              	.LVL58:
 629 003c E6E7     		b	.L51
 630              	.L54:
 631              		.loc 1 280 0
 632 003e 4FF0FF30 		mov	r0, #-1
 633              		.loc 1 287 0
 634 0042 38BD     		pop	{r3, r4, r5, pc}
 635              	.LVL59:
 636              	.L58:
 637              		.align	2
 638              	.L57:
 639 0044 54000000 		.word	.LC5
 640              		.cfi_endproc
 641              	.LFE14:
 642              		.size	chMBPostAheadI, .-chMBPostAheadI
 643              		.section	.text.chMBFetchS,"ax",%progbits
 644              		.align	2
 645              		.p2align 4,,15
 646              		.global	chMBFetchS
 647              		.thumb
 648              		.thumb_func
 649              		.type	chMBFetchS, %function
 650              	chMBFetchS:
 651              	.LFB16:
 652              		.loc 1 336 0
 653              		.cfi_startproc
 654              		@ args = 0, pretend = 0, frame = 0
 655              		@ frame_needed = 0, uses_anonymous_args = 0
 656              	.LVL60:
 657 0000 70B5     		push	{r4, r5, r6, lr}
 658              		.cfi_def_cfa_offset 16
 659              		.cfi_offset 4, -16
 660              		.cfi_offset 5, -12
 661              		.cfi_offset 6, -8
 662              		.cfi_offset 14, -4
 663              		.loc 1 336 0
 664 0002 0446     		mov	r4, r0
 665 0004 0E46     		mov	r6, r1
 666 0006 1546     		mov	r5, r2
 667              		.loc 1 339 0
 668 0008 FFF7FEFF 		bl	chDbgCheckClassS
 669              	.LVL61:
 670              		.loc 1 340 0
 671 000c D4B1     		cbz	r4, .L60
 672              		.loc 1 340 0 is_stmt 0 discriminator 2
 673 000e CEB1     		cbz	r6, .L60
 674              	.L61:
 675              		.loc 1 342 0 is_stmt 1
 676 0010 2946     		mov	r1, r5
 677 0012 04F11000 		add	r0, r4, #16
 678 0016 FFF7FEFF 		bl	chSemWaitTimeoutS
 679              	.LVL62:
 680              		.loc 1 343 0
 681 001a 0546     		mov	r5, r0
 682              	.LVL63:
 683 001c 80B9     		cbnz	r0, .L62
 684              	.LVL64:
ARM GAS  /tmp/cc2eAqjR.s 			page 13


 685              	.LBB22:
 686              	.LBB23:
 687              		.loc 1 344 0
 688 001e E368     		ldr	r3, [r4, #12]
 689              		.loc 1 345 0
 690 0020 6268     		ldr	r2, [r4, #4]
 691              		.loc 1 344 0
 692 0022 1968     		ldr	r1, [r3]
 693 0024 0433     		adds	r3, r3, #4
 694              		.loc 1 345 0
 695 0026 9342     		cmp	r3, r2
 696              		.loc 1 344 0
 697 0028 E360     		str	r3, [r4, #12]
 698              		.loc 1 346 0
 699 002a 28BF     		it	cs
 700 002c 2368     		ldrcs	r3, [r4]
 701              		.loc 1 344 0
 702 002e 3160     		str	r1, [r6]
 703              		.loc 1 347 0
 704 0030 04F11C00 		add	r0, r4, #28
 705              	.LVL65:
 706              		.loc 1 346 0
 707 0034 28BF     		it	cs
 708 0036 E360     		strcs	r3, [r4, #12]
 709              		.loc 1 347 0
 710 0038 FFF7FEFF 		bl	chSemSignalI
 711              	.LVL66:
 712              		.loc 1 348 0
 713 003c FFF7FEFF 		bl	chSchRescheduleS
 714              	.LVL67:
 715              	.L62:
 716              	.LBE23:
 717              	.LBE22:
 718              		.loc 1 351 0
 719 0040 2846     		mov	r0, r5
 720 0042 70BD     		pop	{r4, r5, r6, pc}
 721              	.LVL68:
 722              	.L60:
 723              		.loc 1 340 0 discriminator 3
 724 0044 0148     		ldr	r0, .L68
 725 0046 FFF7FEFF 		bl	chDbgPanic
 726              	.LVL69:
 727 004a E1E7     		b	.L61
 728              	.L69:
 729              		.align	2
 730              	.L68:
 731 004c 68000000 		.word	.LC6
 732              		.cfi_endproc
 733              	.LFE16:
 734              		.size	chMBFetchS, .-chMBFetchS
 735              		.section	.text.chMBFetch,"ax",%progbits
 736              		.align	2
 737              		.p2align 4,,15
 738              		.global	chMBFetch
 739              		.thumb
 740              		.thumb_func
 741              		.type	chMBFetch, %function
ARM GAS  /tmp/cc2eAqjR.s 			page 14


 742              	chMBFetch:
 743              	.LFB15:
 744              		.loc 1 308 0
 745              		.cfi_startproc
 746              		@ args = 0, pretend = 0, frame = 0
 747              		@ frame_needed = 0, uses_anonymous_args = 0
 748              	.LVL70:
 749 0000 70B5     		push	{r4, r5, r6, lr}
 750              		.cfi_def_cfa_offset 16
 751              		.cfi_offset 4, -16
 752              		.cfi_offset 5, -12
 753              		.cfi_offset 6, -8
 754              		.cfi_offset 14, -4
 755              	.LBB24:
 756              		.loc 1 311 0
 757 0002 2023     		movs	r3, #32
 758              	.LBE24:
 759              		.loc 1 308 0
 760 0004 0646     		mov	r6, r0
 761 0006 0D46     		mov	r5, r1
 762 0008 1446     		mov	r4, r2
 763              	.LBB25:
 764              		.loc 1 311 0
 765              	@ 311 "../../ChibiOS_2.6.5/os/kernel/src/chmboxes.c" 1
 766 000a 83F31188 		msr     BASEPRI, r3
 767              	@ 0 "" 2
 768              		.thumb
 769              	.LBE25:
 770 000e FFF7FEFF 		bl	dbg_check_lock
 771              	.LVL71:
 772              		.loc 1 312 0
 773 0012 2246     		mov	r2, r4
 774 0014 2946     		mov	r1, r5
 775 0016 3046     		mov	r0, r6
 776 0018 FFF7FEFF 		bl	chMBFetchS
 777              	.LVL72:
 778 001c 0446     		mov	r4, r0
 779              	.LVL73:
 780              		.loc 1 313 0
 781 001e FFF7FEFF 		bl	dbg_check_unlock
 782              	.LVL74:
 783              	.LBB26:
 784 0022 0023     		movs	r3, #0
 785              	@ 313 "../../ChibiOS_2.6.5/os/kernel/src/chmboxes.c" 1
 786 0024 83F31188 		msr     BASEPRI, r3
 787              	@ 0 "" 2
 788              		.thumb
 789              	.LBE26:
 790              		.loc 1 315 0
 791 0028 2046     		mov	r0, r4
 792 002a 70BD     		pop	{r4, r5, r6, pc}
 793              		.cfi_endproc
 794              	.LFE15:
 795              		.size	chMBFetch, .-chMBFetch
 796              		.section	.text.chMBFetchI,"ax",%progbits
 797              		.align	2
 798              		.p2align 4,,15
ARM GAS  /tmp/cc2eAqjR.s 			page 15


 799              		.global	chMBFetchI
 800              		.thumb
 801              		.thumb_func
 802              		.type	chMBFetchI, %function
 803              	chMBFetchI:
 804              	.LFB17:
 805              		.loc 1 367 0
 806              		.cfi_startproc
 807              		@ args = 0, pretend = 0, frame = 0
 808              		@ frame_needed = 0, uses_anonymous_args = 0
 809              	.LVL75:
 810 0000 38B5     		push	{r3, r4, r5, lr}
 811              		.cfi_def_cfa_offset 16
 812              		.cfi_offset 3, -16
 813              		.cfi_offset 4, -12
 814              		.cfi_offset 5, -8
 815              		.cfi_offset 14, -4
 816              		.loc 1 367 0
 817 0002 0446     		mov	r4, r0
 818 0004 0D46     		mov	r5, r1
 819              		.loc 1 369 0
 820 0006 FFF7FEFF 		bl	chDbgCheckClassI
 821              	.LVL76:
 822              		.loc 1 370 0
 823 000a B4B1     		cbz	r4, .L73
 824              		.loc 1 370 0 is_stmt 0 discriminator 2
 825 000c ADB1     		cbz	r5, .L73
 826              	.L74:
 827              		.loc 1 372 0 is_stmt 1
 828 000e A369     		ldr	r3, [r4, #24]
 829 0010 002B     		cmp	r3, #0
 830 0012 16DD     		ble	.L77
 831              		.loc 1 374 0
 832 0014 5A1E     		subs	r2, r3, #1
 833              		.loc 1 375 0
 834 0016 E368     		ldr	r3, [r4, #12]
 835              		.loc 1 374 0
 836 0018 A261     		str	r2, [r4, #24]
 837              		.loc 1 376 0
 838 001a 6268     		ldr	r2, [r4, #4]
 839              		.loc 1 375 0
 840 001c 1968     		ldr	r1, [r3]
 841 001e 0433     		adds	r3, r3, #4
 842              		.loc 1 376 0
 843 0020 9342     		cmp	r3, r2
 844              		.loc 1 375 0
 845 0022 E360     		str	r3, [r4, #12]
 846              		.loc 1 377 0
 847 0024 28BF     		it	cs
 848 0026 2368     		ldrcs	r3, [r4]
 849              		.loc 1 375 0
 850 0028 2960     		str	r1, [r5]
 851              		.loc 1 378 0
 852 002a 04F11C00 		add	r0, r4, #28
 853              		.loc 1 377 0
 854 002e 28BF     		it	cs
 855 0030 E360     		strcs	r3, [r4, #12]
ARM GAS  /tmp/cc2eAqjR.s 			page 16


 856              		.loc 1 378 0
 857 0032 FFF7FEFF 		bl	chSemSignalI
 858              	.LVL77:
 859              		.loc 1 379 0
 860 0036 0020     		movs	r0, #0
 861 0038 38BD     		pop	{r3, r4, r5, pc}
 862              	.LVL78:
 863              	.L73:
 864              		.loc 1 370 0 discriminator 3
 865 003a 0348     		ldr	r0, .L82
 866 003c FFF7FEFF 		bl	chDbgPanic
 867              	.LVL79:
 868 0040 E5E7     		b	.L74
 869              	.L77:
 870              		.loc 1 373 0
 871 0042 4FF0FF30 		mov	r0, #-1
 872              		.loc 1 380 0
 873 0046 38BD     		pop	{r3, r4, r5, pc}
 874              	.LVL80:
 875              	.L83:
 876              		.align	2
 877              	.L82:
 878 0048 78000000 		.word	.LC7
 879              		.cfi_endproc
 880              	.LFE17:
 881              		.size	chMBFetchI, .-chMBFetchI
 882              		.section	.rodata.str1.4,"aMS",%progbits,1
 883              		.align	2
 884              	.LC0:
 885 0000 2263684D 		.ascii	"\"chMBInit\"()\000"
 885      42496E69 
 885      74222829 
 885      00
 886 000d 000000   		.space	3
 887              	.LC1:
 888 0010 2263684D 		.ascii	"\"chMBReset\"()\000"
 888      42526573 
 888      65742228 
 888      2900
 889 001e 0000     		.space	2
 890              	.LC2:
 891 0020 2263684D 		.ascii	"\"chMBPostS\"()\000"
 891      42506F73 
 891      74532228 
 891      2900
 892 002e 0000     		.space	2
 893              	.LC3:
 894 0030 2263684D 		.ascii	"\"chMBPostI\"()\000"
 894      42506F73 
 894      74492228 
 894      2900
 895 003e 0000     		.space	2
 896              	.LC4:
 897 0040 2263684D 		.ascii	"\"chMBPostAheadS\"()\000"
 897      42506F73 
 897      74416865 
 897      61645322 
ARM GAS  /tmp/cc2eAqjR.s 			page 17


 897      282900
 898 0053 00       		.space	1
 899              	.LC5:
 900 0054 2263684D 		.ascii	"\"chMBPostAheadI\"()\000"
 900      42506F73 
 900      74416865 
 900      61644922 
 900      282900
 901 0067 00       		.space	1
 902              	.LC6:
 903 0068 2263684D 		.ascii	"\"chMBFetchS\"()\000"
 903      42466574 
 903      63685322 
 903      282900
 904 0077 00       		.space	1
 905              	.LC7:
 906 0078 2263684D 		.ascii	"\"chMBFetchI\"()\000"
 906      42466574 
 906      63684922 
 906      282900
 907              		.text
 908              	.Letext0:
 909              		.file 2 "/usr/include/newlib/machine/_default_types.h"
 910              		.file 3 "/usr/include/newlib/sys/_stdint.h"
 911              		.file 4 "../../ChibiOS_2.6.5/os/ports/GCC/ARMCMx/chtypes.h"
 912              		.file 5 "../../ChibiOS_2.6.5/os/kernel/include/chlists.h"
 913              		.file 6 "../../ChibiOS_2.6.5/os/kernel/include/chthreads.h"
 914              		.file 7 "../../ChibiOS_2.6.5/os/ports/GCC/ARMCMx/chcore_v7m.h"
 915              		.file 8 "../../ChibiOS_2.6.5/os/kernel/include/chsem.h"
 916              		.file 9 "../../ChibiOS_2.6.5/os/kernel/include/chmtx.h"
 917              		.file 10 "../../ChibiOS_2.6.5/os/kernel/include/chmboxes.h"
 918              		.file 11 "../../ChibiOS_2.6.5/os/kernel/include/chdebug.h"
 919              		.file 12 "../../ChibiOS_2.6.5/os/kernel/include/chschd.h"