ARM GAS  /tmp/cc2eAqjR.s 			page 1


   1              		.syntax unified
   2              		.cpu cortex-m4
   3              		.fpu softvfp
   4              		.eabi_attribute 20, 1
   5              		.eabi_attribute 21, 1
   6              		.eabi_attribute 23, 3
   7              		.eabi_attribute 24, 1
   8              		.eabi_attribute 25, 1
   9              		.eabi_attribute 26, 1
  10              		.eabi_attribute 30, 2
  11              		.eabi_attribute 34, 1
  12              		.eabi_attribute 18, 4
  13              		.thumb
  14              		.file	"chmboxes.c"
  15              		.text
  16              	.Ltext0:
  17              		.cfi_sections	.debug_frame
  18              		.section	.text.chMBInit,"ax",%progbits
  19              		.align	2
  20              		.p2align 4,,15
  21              		.global	chMBInit
  22              		.thumb
  23              		.thumb_func
  24              		.type	chMBInit, %function
  25              	chMBInit:
  26              	.LFB7:
  27              		.file 1 "../../ChibiOS_2.6.5/os/kernel/src/chmboxes.c"
  28              		.loc 1 72 0
  29              		.cfi_startproc
  30              		@ args = 0, pretend = 0, frame = 0
  31              		@ frame_needed = 0, uses_anonymous_args = 0
  32              	.LVL0:
  33 0000 70B5     		push	{r4, r5, r6, lr}
  34              		.cfi_def_cfa_offset 16
  35              		.cfi_offset 4, -16
  36              		.cfi_offset 5, -12
  37              		.cfi_offset 6, -8
  38              		.cfi_offset 14, -4
  39              		.loc 1 72 0
  40 0002 0D46     		mov	r5, r1
  41 0004 1646     		mov	r6, r2
  42              		.loc 1 74 0
  43 0006 0446     		mov	r4, r0
  44 0008 A0B1     		cbz	r0, .L2
  45              		.loc 1 74 0 is_stmt 0 discriminator 2
  46 000a 99B1     		cbz	r1, .L2
  47              		.loc 1 74 0 discriminator 4
  48 000c 002A     		cmp	r2, #0
  49 000e 11DD     		ble	.L2
  50              	.LVL1:
  51              	.L3:
  52              		.loc 1 77 0 is_stmt 1
  53 0010 05EB8603 		add	r3, r5, r6, lsl #2
  54              		.loc 1 78 0
  55 0014 3146     		mov	r1, r6
  56 0016 04F11C00 		add	r0, r4, #28
  57              		.loc 1 76 0
ARM GAS  /tmp/cc2eAqjR.s 			page 2


  58 001a E560     		str	r5, [r4, #12]
  59 001c A560     		str	r5, [r4, #8]
  60 001e 2560     		str	r5, [r4]
  61              		.loc 1 77 0
  62 0020 6360     		str	r3, [r4, #4]
  63              		.loc 1 78 0
  64 0022 FFF7FEFF 		bl	chSemInit
  65              	.LVL2:
  66              		.loc 1 79 0
  67 0026 04F11000 		add	r0, r4, #16
  68 002a 0021     		movs	r1, #0
  69              		.loc 1 80 0
  70 002c BDE87040 		pop	{r4, r5, r6, lr}
  71              		.cfi_remember_state
  72              		.cfi_restore 14
  73              		.cfi_restore 6
  74              		.cfi_restore 5
  75              		.cfi_restore 4
  76              		.cfi_def_cfa_offset 0
  77              	.LVL3:
  78              		.loc 1 79 0
  79 0030 FFF7FEBF 		b	chSemInit
  80              	.LVL4:
  81              	.L2:
  82              		.cfi_restore_state
  83              		.loc 1 74 0 discriminator 5
  84 0034 0148     		ldr	r0, .L12
  85              	.LVL5:
  86 0036 FFF7FEFF 		bl	chDbgPanic
  87              	.LVL6:
  88 003a E9E7     		b	.L3
  89              	.L13:
  90              		.align	2
  91              	.L12:
  92 003c 00000000 		.word	.LC0
  93              		.cfi_endproc
  94              	.LFE7:
  95              		.size	chMBInit, .-chMBInit
  96              		.section	.text.chMBReset,"ax",%progbits
  97              		.align	2
  98              		.p2align 4,,15
  99              		.global	chMBReset
 100              		.thumb
 101              		.thumb_func
 102              		.type	chMBReset, %function
 103              	chMBReset:
 104              	.LFB8:
 105              		.loc 1 91 0
 106              		.cfi_startproc
 107              		@ args = 0, pretend = 0, frame = 0
 108              		@ frame_needed = 0, uses_anonymous_args = 0
 109              	.LVL7:
 110 0000 10B5     		push	{r4, lr}
 111              		.cfi_def_cfa_offset 8
 112              		.cfi_offset 4, -8
 113              		.cfi_offset 14, -4
 114              		.loc 1 93 0
ARM GAS  /tmp/cc2eAqjR.s 			page 3


 115 0002 0446     		mov	r4, r0
 116 0004 D8B1     		cbz	r0, .L17
 117              	.LVL8:
 118              	.L15:
 119              	.LBB2:
 120              		.loc 1 95 0
 121 0006 2023     		movs	r3, #32
 122              	@ 95 "../../ChibiOS_2.6.5/os/kernel/src/chmboxes.c" 1
 123 0008 83F31188 		msr     BASEPRI, r3
 124              	@ 0 "" 2
 125              		.thumb
 126              	.LBE2:
 127 000c FFF7FEFF 		bl	dbg_check_lock
 128              	.LVL9:
 129              		.loc 1 96 0
 130 0010 2368     		ldr	r3, [r4]
 131              		.loc 1 97 0
 132 0012 6168     		ldr	r1, [r4, #4]
 133              		.loc 1 96 0
 134 0014 E360     		str	r3, [r4, #12]
 135              		.loc 1 97 0
 136 0016 C91A     		subs	r1, r1, r3
 137              		.loc 1 96 0
 138 0018 A360     		str	r3, [r4, #8]
 139              		.loc 1 97 0
 140 001a 04F11C00 		add	r0, r4, #28
 141 001e 8910     		asrs	r1, r1, #2
 142 0020 FFF7FEFF 		bl	chSemResetI
 143              	.LVL10:
 144              		.loc 1 98 0
 145 0024 04F11000 		add	r0, r4, #16
 146 0028 0021     		movs	r1, #0
 147 002a FFF7FEFF 		bl	chSemResetI
 148              	.LVL11:
 149              		.loc 1 99 0
 150 002e FFF7FEFF 		bl	chSchRescheduleS
 151              	.LVL12:
 152              		.loc 1 100 0
 153 0032 FFF7FEFF 		bl	dbg_check_unlock
 154              	.LVL13:
 155              	.LBB3:
 156 0036 0023     		movs	r3, #0
 157              	@ 100 "../../ChibiOS_2.6.5/os/kernel/src/chmboxes.c" 1
 158 0038 83F31188 		msr     BASEPRI, r3
 159              	@ 0 "" 2
 160              		.thumb
 161 003c 10BD     		pop	{r4, pc}
 162              	.LVL14:
 163              	.L17:
 164              	.LBE3:
 165              		.loc 1 93 0 discriminator 1
 166 003e 0248     		ldr	r0, .L18
 167              	.LVL15:
 168 0040 FFF7FEFF 		bl	chDbgPanic
 169              	.LVL16:
 170 0044 DFE7     		b	.L15
 171              	.L19:
ARM GAS  /tmp/cc2eAqjR.s 			page 4


 172 0046 00BF     		.align	2
 173              	.L18:
 174 0048 10000000 		.word	.LC1
 175              		.cfi_endproc
 176              	.LFE8:
 177              		.size	chMBReset, .-chMBReset
 178              		.section	.text.chMBPostS,"ax",%progbits
 179              		.align	2
 180              		.p2align 4,,15
 181              		.global	chMBPostS
 182              		.thumb
 183              		.thumb_func
 184              		.type	chMBPostS, %function
 185              	chMBPostS:
 186              	.LFB10:
 187              		.loc 1 150 0
 188              		.cfi_startproc
 189              		@ args = 0, pretend = 0, frame = 0
 190              		@ frame_needed = 0, uses_anonymous_args = 0
 191              	.LVL17:
 192 0000 70B5     		push	{r4, r5, r6, lr}
 193              		.cfi_def_cfa_offset 16
 194              		.cfi_offset 4, -16
 195              		.cfi_offset 5, -12
 196              		.cfi_offset 6, -8
 197              		.cfi_offset 14, -4
 198              		.loc 1 150 0
 199 0002 0446     		mov	r4, r0
 200 0004 0E46     		mov	r6, r1
 201 0006 1546     		mov	r5, r2
 202              		.loc 1 153 0
 203 0008 FFF7FEFF 		bl	chDbgCheckClassS
 204              	.LVL18:
 205              		.loc 1 154 0
 206 000c C4B1     		cbz	r4, .L25
 207              	.L21:
 208              		.loc 1 156 0
 209 000e 2946     		mov	r1, r5
 210 0010 04F11C00 		add	r0, r4, #28
 211 0014 FFF7FEFF 		bl	chSemWaitTimeoutS
 212              	.LVL19:
 213              		.loc 1 157 0
 214 0018 0546     		mov	r5, r0
 215              	.LVL20:
 216 001a 78B9     		cbnz	r0, .L22
 217              	.LVL21:
 218              	.LBB6:
 219              	.LBB7:
 220              		.loc 1 158 0
 221 001c A268     		ldr	r2, [r4, #8]
 222              		.loc 1 159 0
 223 001e 6168     		ldr	r1, [r4, #4]
 224              		.loc 1 158 0
 225 0020 131D     		adds	r3, r2, #4
 226              		.loc 1 159 0
 227 0022 8B42     		cmp	r3, r1
 228              		.loc 1 158 0
ARM GAS  /tmp/cc2eAqjR.s 			page 5


 229 0024 A360     		str	r3, [r4, #8]
 230              		.loc 1 160 0
 231 0026 28BF     		it	cs
 232 0028 2368     		ldrcs	r3, [r4]
 233              		.loc 1 158 0
 234 002a 1660     		str	r6, [r2]
 235              		.loc 1 161 0
 236 002c 04F11000 		add	r0, r4, #16
 237              	.LVL22:
 238              		.loc 1 160 0
 239 0030 28BF     		it	cs
 240 0032 A360     		strcs	r3, [r4, #8]
 241              		.loc 1 161 0
 242 0034 FFF7FEFF 		bl	chSemSignalI
 243              	.LVL23:
 244              		.loc 1 162 0
 245 0038 FFF7FEFF 		bl	chSchRescheduleS
 246              	.LVL24:
 247              	.L22:
 248              	.LBE7:
 249              	.LBE6:
 250              		.loc 1 165 0
 251 003c 2846     		mov	r0, r5
 252 003e 70BD     		pop	{r4, r5, r6, pc}
 253              	.LVL25:
 254              	.L25:
 255              		.loc 1 154 0 discriminator 1
 256 0040 0148     		ldr	r0, .L26
 257 0042 FFF7FEFF 		bl	chDbgPanic
 258              	.LVL26:
 259 0046 E2E7     		b	.L21
 260              	.L27:
 261              		.align	2
 262              	.L26:
 263 0048 20000000 		.word	.LC2
 264              		.cfi_endproc
 265              	.LFE10:
 266              		.size	chMBPostS, .-chMBPostS
 267              		.section	.text.chMBPost,"ax",%progbits
 268              		.align	2
 269              		.p2align 4,,15
 270              		.global	chMBPost
 271              		.thumb
 272              		.thumb_func
 273              		.type	chMBPost, %function
 274              	chMBPost:
 275              	.LFB9:
 276              		.loc 1 122 0
 277              		.cfi_startproc
 278              		@ args = 0, pretend = 0, frame = 0
 279              		@ frame_needed = 0, uses_anonymous_args = 0
 280              	.LVL27:
 281 0000 70B5     		push	{r4, r5, r6, lr}
 282              		.cfi_def_cfa_offset 16
 283              		.cfi_offset 4, -16
 284              		.cfi_offset 5, -12
 285              		.cfi_offset 6, -8
ARM GAS  /tmp/cc2eAqjR.s 			page 6


 286              		.cfi_offset 14, -4
 287              	.LBB8:
 288              		.loc 1 125 0
 289 0002 2023     		movs	r3, #32
 290              	.LBE8:
 291              		.loc 1 122 0
 292 0004 0646     		mov	r6, r0
 293 0006 0D46     		mov	r5, r1
 294 0008 1446     		mov	r4, r2
 295              	.LBB9:
 296              		.loc 1 125 0
 297              	@ 125 "../../ChibiOS_2.6.5/os/kernel/src/chmboxes.c" 1
 298 000a 83F31188 		msr     BASEPRI, r3
 299              	@ 0 "" 2
 300              		.thumb
 301              	.LBE9:
 302 000e FFF7FEFF 		bl	dbg_check_lock
 303              	.LVL28:
 304              		.loc 1 126 0
 305 0012 2246     		mov	r2, r4
 306 0014 2946     		mov	r1, r5
 307 0016 3046     		mov	r0, r6
 308 0018 FFF7FEFF 		bl	chMBPostS
 309              	.LVL29:
 310 001c 0446     		mov	r4, r0
 311              	.LVL30:
 312              		.loc 1 127 0
 313 001e FFF7FEFF 		bl	dbg_check_unlock
 314              	.LVL31:
 315              	.LBB10:
 316 0022 0023     		movs	r3, #0
 317              	@ 127 "../../ChibiOS_2.6.5/os/kernel/src/chmboxes.c" 1
 318 0024 83F31188 		msr     BASEPRI, r3
 319              	@ 0 "" 2
 320              		.thumb
 321              	.LBE10:
 322              		.loc 1 129 0
 323 0028 2046     		mov	r0, r4
 324 002a 70BD     		pop	{r4, r5, r6, pc}
 325              		.cfi_endproc
 326              	.LFE9:
 327              		.size	chMBPost, .-chMBPost
 328              		.section	.text.chMBPostI,"ax",%progbits
 329              		.align	2
 330              		.p2align 4,,15
 331              		.global	chMBPostI
 332              		.thumb
 333              		.thumb_func
 334              		.type	chMBPostI, %function
 335              	chMBPostI:
 336              	.LFB11:
 337              		.loc 1 181 0
 338              		.cfi_startproc
 339              		@ args = 0, pretend = 0, frame = 0
 340              		@ frame_needed = 0, uses_anonymous_args = 0
 341              	.LVL32:
 342 0000 38B5     		push	{r3, r4, r5, lr}
ARM GAS  /tmp/cc2eAqjR.s 			page 7


 343              		.cfi_def_cfa_offset 16
 344              		.cfi_offset 3, -16
 345              		.cfi_offset 4, -12
 346              		.cfi_offset 5, -8
 347              		.cfi_offset 14, -4
 348              		.loc 1 181 0
 349 0002 0446     		mov	r4, r0
 350 0004 0D46     		mov	r5, r1
 351              		.loc 1 183 0
 352 0006 FFF7FEFF 		bl	chDbgCheckClassI
 353              	.LVL33:
 354              		.loc 1 184 0
 355 000a A4B1     		cbz	r4, .L36
 356              	.L31:
 357              		.loc 1 186 0
 358 000c 636A     		ldr	r3, [r4, #36]
 359 000e 002B     		cmp	r3, #0
 360 0010 15DD     		ble	.L34
 361              		.loc 1 189 0
 362 0012 A068     		ldr	r0, [r4, #8]
 363              		.loc 1 190 0
 364 0014 6168     		ldr	r1, [r4, #4]
 365              		.loc 1 189 0
 366 0016 021D     		adds	r2, r0, #4
 367              		.loc 1 188 0
 368 0018 013B     		subs	r3, r3, #1
 369              		.loc 1 190 0
 370 001a 8A42     		cmp	r2, r1
 371              		.loc 1 188 0
 372 001c 6362     		str	r3, [r4, #36]
 373              		.loc 1 191 0
 374 001e 28BF     		it	cs
 375 0020 2368     		ldrcs	r3, [r4]
 376              		.loc 1 189 0
 377 0022 A260     		str	r2, [r4, #8]
 378 0024 0560     		str	r5, [r0]
 379              		.loc 1 192 0
 380 0026 04F11000 		add	r0, r4, #16
 381              		.loc 1 191 0
 382 002a 28BF     		it	cs
 383 002c A360     		strcs	r3, [r4, #8]
 384              		.loc 1 192 0
 385 002e FFF7FEFF 		bl	chSemSignalI
 386              	.LVL34:
 387              		.loc 1 193 0
 388 0032 0020     		movs	r0, #0
 389 0034 38BD     		pop	{r3, r4, r5, pc}
 390              	.LVL35:
 391              	.L36:
 392              		.loc 1 184 0 discriminator 1
 393 0036 0348     		ldr	r0, .L37
 394 0038 FFF7FEFF 		bl	chDbgPanic
 395              	.LVL36:
 396 003c E6E7     		b	.L31
 397              	.L34:
 398              		.loc 1 187 0
 399 003e 4FF0FF30 		mov	r0, #-1
ARM GAS  /tmp/cc2eAqjR.s 			page 8


 400              		.loc 1 194 0
 401 0042 38BD     		pop	{r3, r4, r5, pc}
 402              	.LVL37:
 403              	.L38:
 404              		.align	2
 405              	.L37:
 406 0044 30000000 		.word	.LC3
 407              		.cfi_endproc
 408              	.LFE11:
 409              		.size	chMBPostI, .-chMBPostI
 410              		.section	.text.chMBPostAheadS,"ax",%progbits
 411              		.align	2
 412              		.p2align 4,,15
 413              		.global	chMBPostAheadS
 414              		.thumb
 415              		.thumb_func
 416              		.type	chMBPostAheadS, %function
 417              	chMBPostAheadS:
 418              	.LFB13:
 419              		.loc 1 243 0
 420              		.cfi_startproc
 421              		@ args = 0, pretend = 0, frame = 0
 422              		@ frame_needed = 0, uses_anonymous_args = 0
 423              	.LVL38:
 424 0000 70B5     		push	{r4, r5, r6, lr}
 425              		.cfi_def_cfa_offset 16
 426              		.cfi_offset 4, -16
 427              		.cfi_offset 5, -12
 428              		.cfi_offset 6, -8
 429              		.cfi_offset 14, -4
 430              		.loc 1 243 0
 431 0002 0446     		mov	r4, r0
 432 0004 0E46     		mov	r6, r1
 433 0006 1546     		mov	r5, r2
 434              		.loc 1 246 0
 435 0008 FFF7FEFF 		bl	chDbgCheckClassS
 436              	.LVL39:
 437              		.loc 1 247 0
 438 000c CCB1     		cbz	r4, .L44
 439              	.L40:
 440              		.loc 1 249 0
 441 000e 2946     		mov	r1, r5
 442 0010 04F11C00 		add	r0, r4, #28
 443 0014 FFF7FEFF 		bl	chSemWaitTimeoutS
 444              	.LVL40:
 445              		.loc 1 250 0
 446 0018 0546     		mov	r5, r0
 447              	.LVL41:
 448 001a 60B9     		cbnz	r0, .L41
 449              	.LVL42:
 450              	.LBB13:
 451              	.LBB14:
 452              		.loc 1 251 0
 453 001c E368     		ldr	r3, [r4, #12]
 454 001e 2268     		ldr	r2, [r4]
 455 0020 043B     		subs	r3, r3, #4
 456 0022 9342     		cmp	r3, r2
ARM GAS  /tmp/cc2eAqjR.s 			page 9


 457 0024 E360     		str	r3, [r4, #12]
 458 0026 08D3     		bcc	.L45
 459              	.L42:
 460              		.loc 1 253 0
 461 0028 1E60     		str	r6, [r3]
 462              		.loc 1 254 0
 463 002a 04F11000 		add	r0, r4, #16
 464              	.LVL43:
 465 002e FFF7FEFF 		bl	chSemSignalI
 466              	.LVL44:
 467              		.loc 1 255 0
 468 0032 FFF7FEFF 		bl	chSchRescheduleS
 469              	.LVL45:
 470              	.L41:
 471              	.LBE14:
 472              	.LBE13:
 473              		.loc 1 258 0
 474 0036 2846     		mov	r0, r5
 475 0038 70BD     		pop	{r4, r5, r6, pc}
 476              	.LVL46:
 477              	.L45:
 478              	.LBB16:
 479              	.LBB15:
 480              		.loc 1 252 0
 481 003a 6368     		ldr	r3, [r4, #4]
 482 003c 043B     		subs	r3, r3, #4
 483 003e E360     		str	r3, [r4, #12]
 484 0040 F2E7     		b	.L42
 485              	.LVL47:
 486              	.L44:
 487              	.LBE15:
 488              	.LBE16:
 489              		.loc 1 247 0 discriminator 1
 490 0042 0248     		ldr	r0, .L46
 491 0044 FFF7FEFF 		bl	chDbgPanic
 492              	.LVL48:
 493 0048 E1E7     		b	.L40
 494              	.L47:
 495 004a 00BF     		.align	2
 496              	.L46:
 497 004c 40000000 		.word	.LC4
 498              		.cfi_endproc
 499              	.LFE13:
 500              		.size	chMBPostAheadS, .-chMBPostAheadS
 501              		.section	.text.chMBPostAhead,"ax",%progbits
 502              		.align	2
 503              		.p2align 4,,15
 504              		.global	chMBPostAhead
 505              		.thumb
 506              		.thumb_func
 507              		.type	chMBPostAhead, %function
 508              	chMBPostAhead:
 509              	.LFB12:
 510              		.loc 1 215 0
 511              		.cfi_startproc
 512              		@ args = 0, pretend = 0, frame = 0
 513              		@ frame_needed = 0, uses_anonymous_args = 0
ARM GAS  /tmp/cc2eAqjR.s 			page 10


 514              	.LVL49:
 515 0000 70B5     		push	{r4, r5, r6, lr}
 516              		.cfi_def_cfa_offset 16
 517              		.cfi_offset 4, -16
 518              		.cfi_offset 5, -12
 519              		.cfi_offset 6, -8
 520              		.cfi_offset 14, -4
 521              	.LBB17:
 522              		.loc 1 218 0
 523 0002 2023     		movs	r3, #32
 524              	.LBE17:
 525              		.loc 1 215 0
 526 0004 0646     		mov	r6, r0
 527 0006 0D46     		mov	r5, r1
 528 0008 1446     		mov	r4, r2
 529              	.LBB18:
 530              		.loc 1 218 0
 531              	@ 218 "../../ChibiOS_2.6.5/os/kernel/src/chmboxes.c" 1
 532 000a 83F31188 		msr     BASEPRI, r3
 533              	@ 0 "" 2
 534              		.thumb
 535              	.LBE18:
 536 000e FFF7FEFF 		bl	dbg_check_lock
 537              	.LVL50:
 538              		.loc 1 219 0
 539 0012 2246     		mov	r2, r4
 540 0014 2946     		mov	r1, r5
 541 0016 3046     		mov	r0, r6
 542 0018 FFF7FEFF 		bl	chMBPostAheadS
 543              	.LVL51:
 544 001c 0446     		mov	r4, r0
 545              	.LVL52:
 546              		.loc 1 220 0
 547 001e FFF7FEFF 		bl	dbg_check_unlock
 548              	.LVL53:
 549              	.LBB19:
 550 0022 0023     		movs	r3, #0
 551              	@ 220 "../../ChibiOS_2.6.5/os/kernel/src/chmboxes.c" 1
 552 0024 83F31188 		msr     BASEPRI, r3
 553              	@ 0 "" 2
 554              		.thumb
 555              	.LBE19:
 556              		.loc 1 222 0
 557 0028 2046     		mov	r0, r4
 558 002a 70BD     		pop	{r4, r5, r6, pc}
 559              		.cfi_endproc
 560              	.LFE12:
 561              		.size	chMBPostAhead, .-chMBPostAhead
 562              		.section	.text.chMBPostAheadI,"ax",%progbits
 563              		.align	2
 564              		.p2align 4,,15
 565              		.global	chMBPostAheadI
 566              		.thumb
 567              		.thumb_func
 568              		.type	chMBPostAheadI, %function
 569              	chMBPostAheadI:
 570              	.LFB14:
ARM GAS  /tmp/cc2eAqjR.s 			page 11


 571              		.loc 1 274 0
 572              		.cfi_startproc
 573              		@ args = 0, pretend = 0, frame = 0
 574              		@ frame_needed = 0, uses_anonymous_args = 0
 575              	.LVL54:
 576 0000 38B5     		push	{r3, r4, r5, lr}
 577              		.cfi_def_cfa_offset 16
 578              		.cfi_offset 3, -16
 579              		.cfi_offset 4, -12
 580              		.cfi_offset 5, -8
 581              		.cfi_offset 14, -4
 582              		.loc 1 274 0
 583 0002 0446     		mov	r4, r0
 584 0004 0D46     		mov	r5, r1
 585              		.loc 1 276 0
 586 0006 FFF7FEFF 		bl	chDbgCheckClassI
 587              	.LVL55:
 588              		.loc 1 277 0
 589 000a A4B1     		cbz	r4, .L56
 590              	.L51:
 591              		.loc 1 279 0
 592 000c 626A     		ldr	r2, [r4, #36]
 593 000e 002A     		cmp	r2, #0
 594 0010 15DD     		ble	.L54
 595              		.loc 1 282 0
 596 0012 E368     		ldr	r3, [r4, #12]
 597 0014 2168     		ldr	r1, [r4]
 598 0016 043B     		subs	r3, r3, #4
 599              		.loc 1 281 0
 600 0018 013A     		subs	r2, r2, #1
 601              		.loc 1 282 0
 602 001a 8B42     		cmp	r3, r1
 603              		.loc 1 281 0
 604 001c 6262     		str	r2, [r4, #36]
 605              		.loc 1 282 0
 606 001e E360     		str	r3, [r4, #12]
 607 0020 02D2     		bcs	.L53
 608              		.loc 1 283 0
 609 0022 6368     		ldr	r3, [r4, #4]
 610 0024 043B     		subs	r3, r3, #4
 611 0026 E360     		str	r3, [r4, #12]
 612              	.L53:
 613              		.loc 1 285 0
 614 0028 04F11000 		add	r0, r4, #16
 615              		.loc 1 284 0
 616 002c 1D60     		str	r5, [r3]
 617              		.loc 1 285 0
 618 002e FFF7FEFF 		bl	chSemSignalI
 619              	.LVL56:
 620              		.loc 1 286 0
 621 0032 0020     		movs	r0, #0
 622 0034 38BD     		pop	{r3, r4, r5, pc}
 623              	.LVL57:
 624              	.L56:
 625              		.loc 1 277 0 discriminator 1
 626 0036 0348     		ldr	r0, .L57
 627 0038 FFF7FEFF 		bl	chDbgPanic
ARM GAS  /tmp/cc2eAqjR.s 			page 12


 628              	.LVL58:
 629 003c E6E7     		b	.L51
 630              	.L54:
 631              		.loc 1 280 0
 632 003e 4FF0FF30 		mov	r0, #-1
 633              		.loc 1 287 0
 634 0042 38BD     		pop	{r3, r4, r5, pc}
 635              	.LVL59:
 636              	.L58:
 637              		.align	2
 638              	.L57:
 639 0044 54000000 		.word	.LC5
 640              		.cfi_endproc
 641              	.LFE14:
 642              		.size	chMBPostAheadI, .-chMBPostAheadI
 643              		.section	.text.chMBFetchS,"ax",%progbits
 644              		.align	2
 645              		.p2align 4,,15
 646              		.global	chMBFetchS
 647              		.thumb
 648              		.thumb_func
 649              		.type	chMBFetchS, %function
 650              	chMBFetchS:
 651              	.LFB16:
 652              		.loc 1 336 0
 653              		.cfi_startproc
 654              		@ args = 0, pretend = 0, frame = 0
 655              		@ frame_needed = 0, uses_anonymous_args = 0
 656              	.LVL60:
 657 0000 70B5     		push	{r4, r5, r6, lr}
 658              		.cfi_def_cfa_offset 16
 659              		.cfi_offset 4, -16
 660              		.cfi_offset 5, -12
 661              		.cfi_offset 6, -8
 662              		.cfi_offset 14, -4
 663              		.loc 1 336 0
 664 0002 0446     		mov	r4, r0
 665 0004 0E46     		mov	r6, r1
 666 0006 1546     		mov	r5, r2
 667              		.loc 1 339 0
 668 0008 FFF7FEFF 		bl	chDbgCheckClassS
 669              	.LVL61:
 670              		.loc 1 340 0
 671 000c D4B1     		cbz	r4, .L60
 672              		.loc 1 340 0 is_stmt 0 discriminator 2
 673 000e CEB1     		cbz	r6, .L60
 674              	.L61:
 675              		.loc 1 342 0 is_stmt 1
 676 0010 2946     		mov	r1, r5
 677 0012 04F11000 		add	r0, r4, #16
 678 0016 FFF7FEFF 		bl	chSemWaitTimeoutS
 679              	.LVL62:
 680              		.loc 1 343 0
 681 001a 0546     		mov	r5, r0
 682              	.LVL63:
 683 001c 80B9     		cbnz	r0, .L62
 684              	.LVL64:
ARM GAS  /tmp/cc2eAqjR.s 			page 13


 685              	.LBB22:
 686              	.LBB23:
 687              		.loc 1 344 0
 688 001e E368     		ldr	r3, [r4, #12]
 689              		.loc 1 345 0
 690 0020 6268     		ldr	r2, [r4, #4]
 691              		.loc 1 344 0
 692 0022 1968     		ldr	r1, [r3]
 693 0024 0433     		adds	r3, r3, #4
 694              		.loc 1 345 0
 695 0026 9342     		cmp	r3, r2
 696              		.loc 1 344 0
 697 0028 E360     		str	r3, [r4, #12]
 698              		.loc 1 346 0
 699 002a 28BF     		it	cs
 700 002c 2368     		ldrcs	r3, [r4]
 701              		.loc 1 344 0
 702 002e 3160     		str	r1, [r6]
 703              		.loc 1 347 0
 704 0030 04F11C00 		add	r0, r4, #28
 705              	.LVL65:
 706              		.loc 1 346 0
 707 0034 28BF     		it	cs
 708 0036 E360     		strcs	r3, [r4, #12]
 709              		.loc 1 347 0
 710 0038 FFF7FEFF 		bl	chSemSignalI
 711              	.LVL66:
 712              		.loc 1 348 0
 713 003c FFF7FEFF 		bl	chSchRescheduleS
 714              	.LVL67:
 715              	.L62:
 716              	.LBE23:
 717              	.LBE22:
 718              		.loc 1 351 0
 719 0040 2846     		mov	r0, r5
 720 0042 70BD     		pop	{r4, r5, r6, pc}
 721              	.LVL68:
 722              	.L60:
 723              		.loc 1 340 0 discriminator 3
 724 0044 0148     		ldr	r0, .L68
 725 0046 FFF7FEFF 		bl	chDbgPanic
 726              	.LVL69:
 727 004a E1E7     		b	.L61
 728              	.L69:
 729              		.align	2
 730              	.L68:
 731 004c 68000000 		.word	.LC6
 732              		.cfi_endproc
 733              	.LFE16:
 734              		.size	chMBFetchS, .-chMBFetchS
 735              		.section	.text.chMBFetch,"ax",%progbits
 736              		.align	2
 737              		.p2align 4,,15
 738              		.global	chMBFetch
 739              		.thumb
 740              		.thumb_func
 741              		.type	chMBFetch, %function
ARM GAS  /tmp/cc2eAqjR.s 			page 14


 742              	chMBFetch:
 743              	.LFB15:
 744              		.loc 1 308 0
 745              		.cfi_startproc
 746              		@ args = 0, pretend = 0, frame = 0
 747              		@ frame_needed = 0, uses_anonymous_args = 0
 748              	.LVL70:
 749 0000 70B5     		push	{r4, r5, r6, lr}
 750              		.cfi_def_cfa_offset 16
 751              		.cfi_offset 4, -16
 752              		.cfi_offset 5, -12
 753              		.cfi_offset 6, -8
 754              		.cfi_offset 14, -4
 755              	.LBB24:
 756              		.loc 1 311 0
 757 0002 2023     		movs	r3, #32
 758              	.LBE24:
 759              		.loc 1 308 0
 760 0004 0646     		mov	r6, r0
 761 0006 0D46     		mov	r5, r1
 762 0008 1446     		mov	r4, r2
 763              	.LBB25:
 764              		.loc 1 311 0
 765              	@ 311 "../../ChibiOS_2.6.5/os/kernel/src/chmboxes.c" 1
 766 000a 83F31188 		msr     BASEPRI, r3
 767              	@ 0 "" 2
 768              		.thumb
 769              	.LBE25:
 770 000e FFF7FEFF 		bl	dbg_check_lock
 771              	.LVL71:
 772              		.loc 1 312 0
 773 0012 2246     		mov	r2, r4
 774 0014 2946     		mov	r1, r5
 775 0016 3046     		mov	r0, r6
 776 0018 FFF7FEFF 		bl	chMBFetchS
 777              	.LVL72:
 778 001c 0446     		mov	r4, r0
 779              	.LVL73:
 780              		.loc 1 313 0
 781 001e FFF7FEFF 		bl	dbg_check_unlock
 782              	.LVL74:
 783              	.LBB26:
 784 0022 0023     		movs	r3, #0
 785              	@ 313 "../../ChibiOS_2.6.5/os/kernel/src/chmboxes.c" 1
 786 0024 83F31188 		msr     BASEPRI, r3
 787              	@ 0 "" 2
 788              		.thumb
 789              	.LBE26:
 790              		.loc 1 315 0
 791 0028 2046     		mov	r0, r4
 792 002a 70BD     		pop	{r4, r5, r6, pc}
 793              		.cfi_endproc
 794              	.LFE15:
 795              		.size	chMBFetch, .-chMBFetch
 796              		.section	.text.chMBFetchI,"ax",%progbits
 797              		.align	2
 798              		.p2align 4,,15
ARM GAS  /tmp/cc2eAqjR.s 			page 15


 799              		.global	chMBFetchI
 800              		.thumb
 801              		.thumb_func
 802              		.type	chMBFetchI, %function
 803              	chMBFetchI:
 804              	.LFB17:
 805              		.loc 1 367 0
 806              		.cfi_startproc
 807              		@ args = 0, pretend = 0, frame = 0
 808              		@ frame_needed = 0, uses_anonymous_args = 0
 809              	.LVL75:
 810 0000 38B5     		push	{r3, r4, r5, lr}
 811              		.cfi_def_cfa_offset 16
 812              		.cfi_offset 3, -16
 813              		.cfi_offset 4, -12
 814              		.cfi_offset 5, -8
 815              		.cfi_offset 14, -4
 816              		.loc 1 367 0
 817 0002 0446     		mov	r4, r0
 818 0004 0D46     		mov	r5, r1
 819              		.loc 1 369 0
 820 0006 FFF7FEFF 		bl	chDbgCheckClassI
 821              	.LVL76:
 822              		.loc 1 370 0
 823 000a B4B1     		cbz	r4, .L73
 824              		.loc 1 370 0 is_stmt 0 discriminator 2
 825 000c ADB1     		cbz	r5, .L73
 826              	.L74:
 827              		.loc 1 372 0 is_stmt 1
 828 000e A369     		ldr	r3, [r4, #24]
 829 0010 002B     		cmp	r3, #0
 830 0012 16DD     		ble	.L77
 831              		.loc 1 374 0
 832 0014 5A1E     		subs	r2, r3, #1
 833              		.loc 1 375 0
 834 0016 E368     		ldr	r3, [r4, #12]
 835              		.loc 1 374 0
 836 0018 A261     		str	r2, [r4, #24]
 837              		.loc 1 376 0
 838 001a 6268     		ldr	r2, [r4, #4]
 839              		.loc 1 375 0
 840 001c 1968     		ldr	r1, [r3]
 841 001e 0433     		adds	r3, r3, #4
 842              		.loc 1 376 0
 843 0020 9342     		cmp	r3, r2
 844              		.loc 1 375 0
 845 0022 E360     		str	r3, [r4, #12]
 846              		.loc 1 377 0
 847 0024 28BF     		it	cs
 848 0026 2368     		ldrcs	r3, [r4]
 849              		.loc 1 375 0
 850 0028 2960     		str	r1, [r5]
 851              		.loc 1 378 0
 852 002a 04F11C00 		add	r0, r4, #28
 853              		.loc 1 377 0
 854 002e 28BF     		it	cs
 855 0030 E360     		strcs	r3, [r4, #12]
ARM GAS  /tmp/cc2eAqjR.s 			page 16


 856              		.loc 1 378 0
 857 0032 FFF7FEFF 		bl	chSemSignalI
 858              	.LVL77:
 859              		.loc 1 379 0
 860 0036 0020     		movs	r0, #0
 861 0038 38BD     		pop	{r3, r4, r5, pc}
 862              	.LVL78:
 863              	.L73:
 864              		.loc 1 370 0 discriminator 3
 865 003a 0348     		ldr	r0, .L82
 866 003c FFF7FEFF 		bl	chDbgPanic
 867              	.LVL79:
 868 0040 E5E7     		b	.L74
 869              	.L77:
 870              		.loc 1 373 0
 871 0042 4FF0FF30 		mov	r0, #-1
 872              		.loc 1 380 0
 873 0046 38BD     		pop	{r3, r4, r5, pc}
 874              	.LVL80:
 875              	.L83:
 876              		.align	2
 877              	.L82:
 878 0048 78000000 		.word	.LC7
 879              		.cfi_endproc
 880              	.LFE17:
 881              		.size	chMBFetchI, .-chMBFetchI
 882              		.section	.rodata.str1.4,"aMS",%progbits,1
 883              		.align	2
 884              	.LC0:
 885 0000 2263684D 		.ascii	"\"chMBInit\"()\000"
 885      42496E69 
 885      74222829 
 885      00
 886 000d 000000   		.space	3
 887              	.LC1:
 888 0010 2263684D 		.ascii	"\"chMBReset\"()\000"
 888      42526573 
 888      65742228 
 888      2900
 889 001e 0000     		.space	2
 890              	.LC2:
 891 0020 2263684D 		.ascii	"\"chMBPostS\"()\000"
 891      42506F73 
 891      74532228 
 891      2900
 892 002e 0000     		.space	2
 893              	.LC3:
 894 0030 2263684D 		.ascii	"\"chMBPostI\"()\000"
 894      42506F73 
 894      74492228 
 894      2900
 895 003e 0000     		.space	2
 896              	.LC4:
 897 0040 2263684D 		.ascii	"\"chMBPostAheadS\"()\000"
 897      42506F73 
 897      74416865 
 897      61645322 
ARM GAS  /tmp/cc2eAqjR.s 			page 17


 897      282900
 898 0053 00       		.space	1
 899              	.LC5:
 900 0054 2263684D 		.ascii	"\"chMBPostAheadI\"()\000"
 900      42506F73 
 900      74416865 
 900      61644922 
 900      282900
 901 0067 00       		.space	1
 902              	.LC6:
 903 0068 2263684D 		.ascii	"\"chMBFetchS\"()\000"
 903      42466574 
 903      63685322 
 903      282900
 904 0077 00       		.space	1
 905              	.LC7:
 906 0078 2263684D 		.ascii	"\"chMBFetchI\"()\000"
 906      42466574 
 906      63684922 
 906      282900
 907              		.text
 908              	.Letext0:
 909              		.file 2 "/usr/include/newlib/machine/_default_types.h"
 910              		.file 3 "/usr/include/newlib/sys/_stdint.h"
 911              		.file 4 "../../ChibiOS_2.6.5/os/ports/GCC/ARMCMx/chtypes.h"
 912              		.file 5 "../../ChibiOS_2.6.5/os/kernel/include/chlists.h"
 913              		.file 6 "../../ChibiOS_2.6.5/os/kernel/include/chthreads.h"
 914              		.file 7 "../../ChibiOS_2.6.5/os/ports/GCC/ARMCMx/chcore_v7m.h"
 915              		.file 8 "../../ChibiOS_2.6.5/os/kernel/include/chsem.h"
 916              		.file 9 "../../ChibiOS_2.6.5/os/kernel/include/chmtx.h"
 917              		.file 10 "../../ChibiOS_2.6.5/os/kernel/include/chmboxes.h"
 918              		.file 11 "../../ChibiOS_2.6.5/os/kernel/include/chdebug.h"
 919              		.file 12 "../../ChibiOS_2.6.5/os/kernel/include/chschd.h"
 920              		.section	.debug_info,"",%progbits
 921              	.Ldebug_info0:
 922 0000 BF0C0000 		.4byte	0xcbf
 923 0004 0400     		.2byte	0x4
 924 0006 00000000 		.4byte	.Ldebug_abbrev0
 925 000a 04       		.byte	0x4
 926 000b 01       		.uleb128 0x1
 927 000c 7A000000 		.4byte	.LASF97
 928 0010 01       		.byte	0x1
 929 0011 10040000 		.4byte	.LASF98
 930 0015 75030000 		.4byte	.LASF99
 931 0019 60000000 		.4byte	.Ldebug_ranges0+0x60
 932 001d 00000000 		.4byte	0
 933 0021 00000000 		.4byte	.Ldebug_line0
 934 0025 02       		.uleb128 0x2
 935 0026 04       		.byte	0x4
 936 0027 05       		.byte	0x5
 937 0028 696E7400 		.ascii	"int\000"
 938 002c 03       		.uleb128 0x3
 939 002d 04       		.byte	0x4
 940 002e 07       		.byte	0x7
 941 002f E1010000 		.4byte	.LASF0
 942 0033 03       		.uleb128 0x3
 943 0034 01       		.byte	0x1
ARM GAS  /tmp/cc2eAqjR.s 			page 18


 944 0035 06       		.byte	0x6
 945 0036 63010000 		.4byte	.LASF1
 946 003a 04       		.uleb128 0x4
 947 003b 2E000000 		.4byte	.LASF5
 948 003f 02       		.byte	0x2
 949 0040 1D       		.byte	0x1d
 950 0041 45000000 		.4byte	0x45
 951 0045 03       		.uleb128 0x3
 952 0046 01       		.byte	0x1
 953 0047 08       		.byte	0x8
 954 0048 3A030000 		.4byte	.LASF2
 955 004c 03       		.uleb128 0x3
 956 004d 02       		.byte	0x2
 957 004e 05       		.byte	0x5
 958 004f 59030000 		.4byte	.LASF3
 959 0053 03       		.uleb128 0x3
 960 0054 02       		.byte	0x2
 961 0055 07       		.byte	0x7
 962 0056 23020000 		.4byte	.LASF4
 963 005a 04       		.uleb128 0x4
 964 005b 70040000 		.4byte	.LASF6
 965 005f 02       		.byte	0x2
 966 0060 3F       		.byte	0x3f
 967 0061 65000000 		.4byte	0x65
 968 0065 03       		.uleb128 0x3
 969 0066 04       		.byte	0x4
 970 0067 05       		.byte	0x5
 971 0068 89010000 		.4byte	.LASF7
 972 006c 04       		.uleb128 0x4
 973 006d BC010000 		.4byte	.LASF8
 974 0071 02       		.byte	0x2
 975 0072 41       		.byte	0x41
 976 0073 77000000 		.4byte	0x77
 977 0077 03       		.uleb128 0x3
 978 0078 04       		.byte	0x4
 979 0079 07       		.byte	0x7
 980 007a F7010000 		.4byte	.LASF9
 981 007e 03       		.uleb128 0x3
 982 007f 08       		.byte	0x8
 983 0080 05       		.byte	0x5
 984 0081 55010000 		.4byte	.LASF10
 985 0085 04       		.uleb128 0x4
 986 0086 0A030000 		.4byte	.LASF11
 987 008a 02       		.byte	0x2
 988 008b 5B       		.byte	0x5b
 989 008c 90000000 		.4byte	0x90
 990 0090 03       		.uleb128 0x3
 991 0091 08       		.byte	0x8
 992 0092 07       		.byte	0x7
 993 0093 63000000 		.4byte	.LASF12
 994 0097 04       		.uleb128 0x4
 995 0098 D3040000 		.4byte	.LASF13
 996 009c 03       		.byte	0x3
 997 009d 14       		.byte	0x14
 998 009e 3A000000 		.4byte	0x3a
 999 00a2 04       		.uleb128 0x4
 1000 00a3 32030000 		.4byte	.LASF14
ARM GAS  /tmp/cc2eAqjR.s 			page 19


 1001 00a7 03       		.byte	0x3
 1002 00a8 1F       		.byte	0x1f
 1003 00a9 5A000000 		.4byte	0x5a
 1004 00ad 04       		.uleb128 0x4
 1005 00ae 07040000 		.4byte	.LASF15
 1006 00b2 03       		.byte	0x3
 1007 00b3 20       		.byte	0x20
 1008 00b4 6C000000 		.4byte	0x6c
 1009 00b8 04       		.uleb128 0x4
 1010 00b9 25000000 		.4byte	.LASF16
 1011 00bd 03       		.byte	0x3
 1012 00be 26       		.byte	0x26
 1013 00bf 85000000 		.4byte	0x85
 1014 00c3 03       		.uleb128 0x3
 1015 00c4 01       		.byte	0x1
 1016 00c5 02       		.byte	0x2
 1017 00c6 2C030000 		.4byte	.LASF17
 1018 00ca 04       		.uleb128 0x4
 1019 00cb 63020000 		.4byte	.LASF18
 1020 00cf 04       		.byte	0x4
 1021 00d0 2C       		.byte	0x2c
 1022 00d1 97000000 		.4byte	0x97
 1023 00d5 04       		.uleb128 0x4
 1024 00d6 92010000 		.4byte	.LASF19
 1025 00da 04       		.byte	0x4
 1026 00db 2D       		.byte	0x2d
 1027 00dc 97000000 		.4byte	0x97
 1028 00e0 04       		.uleb128 0x4
 1029 00e1 15030000 		.4byte	.LASF20
 1030 00e5 04       		.byte	0x4
 1031 00e6 2E       		.byte	0x2e
 1032 00e7 97000000 		.4byte	0x97
 1033 00eb 04       		.uleb128 0x4
 1034 00ec 7F010000 		.4byte	.LASF21
 1035 00f0 04       		.byte	0x4
 1036 00f1 2F       		.byte	0x2f
 1037 00f2 97000000 		.4byte	0x97
 1038 00f6 04       		.uleb128 0x4
 1039 00f7 24030000 		.4byte	.LASF22
 1040 00fb 04       		.byte	0x4
 1041 00fc 30       		.byte	0x30
 1042 00fd AD000000 		.4byte	0xad
 1043 0101 04       		.uleb128 0x4
 1044 0102 41020000 		.4byte	.LASF23
 1045 0106 04       		.byte	0x4
 1046 0107 31       		.byte	0x31
 1047 0108 A2000000 		.4byte	0xa2
 1048 010c 04       		.uleb128 0x4
 1049 010d 88020000 		.4byte	.LASF24
 1050 0111 04       		.byte	0x4
 1051 0112 33       		.byte	0x33
 1052 0113 AD000000 		.4byte	0xad
 1053 0117 04       		.uleb128 0x4
 1054 0118 5B040000 		.4byte	.LASF25
 1055 011c 04       		.byte	0x4
 1056 011d 35       		.byte	0x35
 1057 011e AD000000 		.4byte	0xad
ARM GAS  /tmp/cc2eAqjR.s 			page 20


 1058 0122 04       		.uleb128 0x4
 1059 0123 D0010000 		.4byte	.LASF26
 1060 0127 04       		.byte	0x4
 1061 0128 36       		.byte	0x36
 1062 0129 A2000000 		.4byte	0xa2
 1063 012d 04       		.uleb128 0x4
 1064 012e F5030000 		.4byte	.LASF27
 1065 0132 05       		.byte	0x5
 1066 0133 2A       		.byte	0x2a
 1067 0134 38010000 		.4byte	0x138
 1068 0138 05       		.uleb128 0x5
 1069 0139 F5030000 		.4byte	.LASF27
 1070 013d 4C       		.byte	0x4c
 1071 013e 06       		.byte	0x6
 1072 013f 5E       		.byte	0x5e
 1073 0140 41020000 		.4byte	0x241
 1074 0144 06       		.uleb128 0x6
 1075 0145 DD030000 		.4byte	.LASF28
 1076 0149 06       		.byte	0x6
 1077 014a 5F       		.byte	0x5f
 1078 014b 62020000 		.4byte	0x262
 1079 014f 00       		.byte	0
 1080 0150 06       		.uleb128 0x6
 1081 0151 1D030000 		.4byte	.LASF29
 1082 0155 06       		.byte	0x6
 1083 0156 61       		.byte	0x61
 1084 0157 62020000 		.4byte	0x262
 1085 015b 04       		.byte	0x4
 1086 015c 06       		.uleb128 0x6
 1087 015d 4E010000 		.4byte	.LASF30
 1088 0161 06       		.byte	0x6
 1089 0162 63       		.byte	0x63
 1090 0163 F6000000 		.4byte	0xf6
 1091 0167 08       		.byte	0x8
 1092 0168 06       		.uleb128 0x6
 1093 0169 F1040000 		.4byte	.LASF31
 1094 016d 06       		.byte	0x6
 1095 016e 64       		.byte	0x64
 1096 016f 27030000 		.4byte	0x327
 1097 0173 0C       		.byte	0xc
 1098 0174 06       		.uleb128 0x6
 1099 0175 9B010000 		.4byte	.LASF32
 1100 0179 06       		.byte	0x6
 1101 017a 66       		.byte	0x66
 1102 017b 62020000 		.4byte	0x262
 1103 017f 10       		.byte	0x10
 1104 0180 06       		.uleb128 0x6
 1105 0181 D7020000 		.4byte	.LASF33
 1106 0185 06       		.byte	0x6
 1107 0186 67       		.byte	0x67
 1108 0187 62020000 		.4byte	0x262
 1109 018b 14       		.byte	0x14
 1110 018c 06       		.uleb128 0x6
 1111 018d E2040000 		.4byte	.LASF34
 1112 0191 06       		.byte	0x6
 1113 0192 6E       		.byte	0x6e
 1114 0193 5D040000 		.4byte	0x45d
ARM GAS  /tmp/cc2eAqjR.s 			page 21


 1115 0197 18       		.byte	0x18
 1116 0198 06       		.uleb128 0x6
 1117 0199 D6010000 		.4byte	.LASF35
 1118 019d 06       		.byte	0x6
 1119 019e 74       		.byte	0x74
 1120 019f 6F040000 		.4byte	0x46f
 1121 01a3 1C       		.byte	0x1c
 1122 01a4 06       		.uleb128 0x6
 1123 01a5 63030000 		.4byte	.LASF36
 1124 01a9 06       		.byte	0x6
 1125 01aa 79       		.byte	0x79
 1126 01ab D5000000 		.4byte	0xd5
 1127 01af 20       		.byte	0x20
 1128 01b0 06       		.uleb128 0x6
 1129 01b1 E4030000 		.4byte	.LASF37
 1130 01b5 06       		.byte	0x6
 1131 01b6 7D       		.byte	0x7d
 1132 01b7 CA000000 		.4byte	0xca
 1133 01bb 21       		.byte	0x21
 1134 01bc 06       		.uleb128 0x6
 1135 01bd C0040000 		.4byte	.LASF38
 1136 01c1 06       		.byte	0x6
 1137 01c2 82       		.byte	0x82
 1138 01c3 E0000000 		.4byte	0xe0
 1139 01c7 22       		.byte	0x22
 1140 01c8 06       		.uleb128 0x6
 1141 01c9 6B030000 		.4byte	.LASF39
 1142 01cd 06       		.byte	0x6
 1143 01ce 88       		.byte	0x88
 1144 01cf EB000000 		.4byte	0xeb
 1145 01d3 23       		.byte	0x23
 1146 01d4 06       		.uleb128 0x6
 1147 01d5 7A040000 		.4byte	.LASF40
 1148 01d9 06       		.byte	0x6
 1149 01da 8F       		.byte	0x8f
 1150 01db 4F030000 		.4byte	0x34f
 1151 01df 24       		.byte	0x24
 1152 01e0 07       		.uleb128 0x7
 1153 01e1 705F7500 		.ascii	"p_u\000"
 1154 01e5 06       		.byte	0x6
 1155 01e6 B4       		.byte	0xb4
 1156 01e7 28040000 		.4byte	0x428
 1157 01eb 28       		.byte	0x28
 1158 01ec 06       		.uleb128 0x6
 1159 01ed F7040000 		.4byte	.LASF41
 1160 01f1 06       		.byte	0x6
 1161 01f2 B9       		.byte	0xb9
 1162 01f3 88020000 		.4byte	0x288
 1163 01f7 2C       		.byte	0x2c
 1164 01f8 06       		.uleb128 0x6
 1165 01f9 96040000 		.4byte	.LASF42
 1166 01fd 06       		.byte	0x6
 1167 01fe BF       		.byte	0xbf
 1168 01ff 68020000 		.4byte	0x268
 1169 0203 30       		.byte	0x30
 1170 0204 06       		.uleb128 0x6
 1171 0205 00000000 		.4byte	.LASF43
ARM GAS  /tmp/cc2eAqjR.s 			page 22


 1172 0209 06       		.byte	0x6
 1173 020a C3       		.byte	0xc3
 1174 020b 01010000 		.4byte	0x101
 1175 020f 38       		.byte	0x38
 1176 0210 06       		.uleb128 0x6
 1177 0211 FC030000 		.4byte	.LASF44
 1178 0215 06       		.byte	0x6
 1179 0216 C9       		.byte	0xc9
 1180 0217 0C010000 		.4byte	0x10c
 1181 021b 3C       		.byte	0x3c
 1182 021c 06       		.uleb128 0x6
 1183 021d 4F030000 		.4byte	.LASF45
 1184 0221 06       		.byte	0x6
 1185 0222 D0       		.byte	0xd0
 1186 0223 75040000 		.4byte	0x475
 1187 0227 40       		.byte	0x40
 1188 0228 06       		.uleb128 0x6
 1189 0229 65040000 		.4byte	.LASF46
 1190 022d 06       		.byte	0x6
 1191 022e D4       		.byte	0xd4
 1192 022f F6000000 		.4byte	0xf6
 1193 0233 44       		.byte	0x44
 1194 0234 06       		.uleb128 0x6
 1195 0235 6F010000 		.4byte	.LASF47
 1196 0239 06       		.byte	0x6
 1197 023a DA       		.byte	0xda
 1198 023b 9E020000 		.4byte	0x29e
 1199 023f 48       		.byte	0x48
 1200 0240 00       		.byte	0
 1201 0241 08       		.uleb128 0x8
 1202 0242 08       		.byte	0x8
 1203 0243 05       		.byte	0x5
 1204 0244 61       		.byte	0x61
 1205 0245 62020000 		.4byte	0x262
 1206 0249 06       		.uleb128 0x6
 1207 024a DD030000 		.4byte	.LASF28
 1208 024e 05       		.byte	0x5
 1209 024f 62       		.byte	0x62
 1210 0250 62020000 		.4byte	0x262
 1211 0254 00       		.byte	0
 1212 0255 06       		.uleb128 0x6
 1213 0256 1D030000 		.4byte	.LASF29
 1214 025a 05       		.byte	0x5
 1215 025b 64       		.byte	0x64
 1216 025c 62020000 		.4byte	0x262
 1217 0260 04       		.byte	0x4
 1218 0261 00       		.byte	0
 1219 0262 09       		.uleb128 0x9
 1220 0263 04       		.byte	0x4
 1221 0264 2D010000 		.4byte	0x12d
 1222 0268 04       		.uleb128 0x4
 1223 0269 DF020000 		.4byte	.LASF48
 1224 026d 05       		.byte	0x5
 1225 026e 66       		.byte	0x66
 1226 026f 41020000 		.4byte	0x241
 1227 0273 08       		.uleb128 0x8
 1228 0274 04       		.byte	0x4
ARM GAS  /tmp/cc2eAqjR.s 			page 23


 1229 0275 05       		.byte	0x5
 1230 0276 6B       		.byte	0x6b
 1231 0277 88020000 		.4byte	0x288
 1232 027b 06       		.uleb128 0x6
 1233 027c DD030000 		.4byte	.LASF28
 1234 0280 05       		.byte	0x5
 1235 0281 6D       		.byte	0x6d
 1236 0282 62020000 		.4byte	0x262
 1237 0286 00       		.byte	0
 1238 0287 00       		.byte	0
 1239 0288 04       		.uleb128 0x4
 1240 0289 7C020000 		.4byte	.LASF49
 1241 028d 05       		.byte	0x5
 1242 028e 70       		.byte	0x70
 1243 028f 73020000 		.4byte	0x273
 1244 0293 04       		.uleb128 0x4
 1245 0294 C7010000 		.4byte	.LASF50
 1246 0298 07       		.byte	0x7
 1247 0299 E5       		.byte	0xe5
 1248 029a 9E020000 		.4byte	0x29e
 1249 029e 0A       		.uleb128 0xa
 1250 029f 04       		.byte	0x4
 1251 02a0 04       		.uleb128 0x4
 1252 02a1 9F020000 		.4byte	.LASF51
 1253 02a5 07       		.byte	0x7
 1254 02a6 EB       		.byte	0xeb
 1255 02a7 B8000000 		.4byte	0xb8
 1256 02ab 0B       		.uleb128 0xb
 1257 02ac 8F040000 		.4byte	.LASF52
 1258 02b0 24       		.byte	0x24
 1259 02b1 07       		.byte	0x7
 1260 02b2 0C01     		.2byte	0x10c
 1261 02b4 27030000 		.4byte	0x327
 1262 02b8 0C       		.uleb128 0xc
 1263 02b9 723400   		.ascii	"r4\000"
 1264 02bc 07       		.byte	0x7
 1265 02bd 1F01     		.2byte	0x11f
 1266 02bf 93020000 		.4byte	0x293
 1267 02c3 00       		.byte	0
 1268 02c4 0C       		.uleb128 0xc
 1269 02c5 723500   		.ascii	"r5\000"
 1270 02c8 07       		.byte	0x7
 1271 02c9 2001     		.2byte	0x120
 1272 02cb 93020000 		.4byte	0x293
 1273 02cf 04       		.byte	0x4
 1274 02d0 0C       		.uleb128 0xc
 1275 02d1 723600   		.ascii	"r6\000"
 1276 02d4 07       		.byte	0x7
 1277 02d5 2101     		.2byte	0x121
 1278 02d7 93020000 		.4byte	0x293
 1279 02db 08       		.byte	0x8
 1280 02dc 0C       		.uleb128 0xc
 1281 02dd 723700   		.ascii	"r7\000"
 1282 02e0 07       		.byte	0x7
 1283 02e1 2201     		.2byte	0x122
 1284 02e3 93020000 		.4byte	0x293
 1285 02e7 0C       		.byte	0xc
ARM GAS  /tmp/cc2eAqjR.s 			page 24


 1286 02e8 0C       		.uleb128 0xc
 1287 02e9 723800   		.ascii	"r8\000"
 1288 02ec 07       		.byte	0x7
 1289 02ed 2301     		.2byte	0x123
 1290 02ef 93020000 		.4byte	0x293
 1291 02f3 10       		.byte	0x10
 1292 02f4 0C       		.uleb128 0xc
 1293 02f5 723900   		.ascii	"r9\000"
 1294 02f8 07       		.byte	0x7
 1295 02f9 2401     		.2byte	0x124
 1296 02fb 93020000 		.4byte	0x293
 1297 02ff 14       		.byte	0x14
 1298 0300 0C       		.uleb128 0xc
 1299 0301 72313000 		.ascii	"r10\000"
 1300 0305 07       		.byte	0x7
 1301 0306 2501     		.2byte	0x125
 1302 0308 93020000 		.4byte	0x293
 1303 030c 18       		.byte	0x18
 1304 030d 0C       		.uleb128 0xc
 1305 030e 72313100 		.ascii	"r11\000"
 1306 0312 07       		.byte	0x7
 1307 0313 2601     		.2byte	0x126
 1308 0315 93020000 		.4byte	0x293
 1309 0319 1C       		.byte	0x1c
 1310 031a 0C       		.uleb128 0xc
 1311 031b 6C7200   		.ascii	"lr\000"
 1312 031e 07       		.byte	0x7
 1313 031f 2701     		.2byte	0x127
 1314 0321 93020000 		.4byte	0x293
 1315 0325 20       		.byte	0x20
 1316 0326 00       		.byte	0
 1317 0327 0B       		.uleb128 0xb
 1318 0328 1B020000 		.4byte	.LASF53
 1319 032c 04       		.byte	0x4
 1320 032d 07       		.byte	0x7
 1321 032e 3101     		.2byte	0x131
 1322 0330 42030000 		.4byte	0x342
 1323 0334 0C       		.uleb128 0xc
 1324 0335 72313300 		.ascii	"r13\000"
 1325 0339 07       		.byte	0x7
 1326 033a 3201     		.2byte	0x132
 1327 033c 42030000 		.4byte	0x342
 1328 0340 00       		.byte	0
 1329 0341 00       		.byte	0
 1330 0342 09       		.uleb128 0x9
 1331 0343 04       		.byte	0x4
 1332 0344 AB020000 		.4byte	0x2ab
 1333 0348 03       		.uleb128 0x3
 1334 0349 04       		.byte	0x4
 1335 034a 07       		.byte	0x7
 1336 034b BB020000 		.4byte	.LASF54
 1337 034f 0D       		.uleb128 0xd
 1338 0350 17010000 		.4byte	0x117
 1339 0354 05       		.uleb128 0x5
 1340 0355 AB040000 		.4byte	.LASF55
 1341 0359 0C       		.byte	0xc
 1342 035a 08       		.byte	0x8
ARM GAS  /tmp/cc2eAqjR.s 			page 25


 1343 035b 2C       		.byte	0x2c
 1344 035c 79030000 		.4byte	0x379
 1345 0360 06       		.uleb128 0x6
 1346 0361 A3010000 		.4byte	.LASF56
 1347 0365 08       		.byte	0x8
 1348 0366 2D       		.byte	0x2d
 1349 0367 68020000 		.4byte	0x268
 1350 036b 00       		.byte	0
 1351 036c 06       		.uleb128 0x6
 1352 036d 15020000 		.4byte	.LASF57
 1353 0371 08       		.byte	0x8
 1354 0372 2F       		.byte	0x2f
 1355 0373 22010000 		.4byte	0x122
 1356 0377 08       		.byte	0x8
 1357 0378 00       		.byte	0
 1358 0379 04       		.uleb128 0x4
 1359 037a AB040000 		.4byte	.LASF55
 1360 037e 08       		.byte	0x8
 1361 037f 30       		.byte	0x30
 1362 0380 54030000 		.4byte	0x354
 1363 0384 05       		.uleb128 0x5
 1364 0385 94020000 		.4byte	.LASF58
 1365 0389 10       		.byte	0x10
 1366 038a 09       		.byte	0x9
 1367 038b 2C       		.byte	0x2c
 1368 038c B5030000 		.4byte	0x3b5
 1369 0390 06       		.uleb128 0x6
 1370 0391 77010000 		.4byte	.LASF59
 1371 0395 09       		.byte	0x9
 1372 0396 2D       		.byte	0x2d
 1373 0397 68020000 		.4byte	0x268
 1374 039b 00       		.byte	0
 1375 039c 06       		.uleb128 0x6
 1376 039d E9040000 		.4byte	.LASF60
 1377 03a1 09       		.byte	0x9
 1378 03a2 2F       		.byte	0x2f
 1379 03a3 62020000 		.4byte	0x262
 1380 03a7 08       		.byte	0x8
 1381 03a8 06       		.uleb128 0x6
 1382 03a9 54040000 		.4byte	.LASF61
 1383 03ad 09       		.byte	0x9
 1384 03ae 31       		.byte	0x31
 1385 03af B5030000 		.4byte	0x3b5
 1386 03b3 0C       		.byte	0xc
 1387 03b4 00       		.byte	0
 1388 03b5 09       		.uleb128 0x9
 1389 03b6 04       		.byte	0x4
 1390 03b7 84030000 		.4byte	0x384
 1391 03bb 04       		.uleb128 0x4
 1392 03bc 94020000 		.4byte	.LASF58
 1393 03c0 09       		.byte	0x9
 1394 03c1 33       		.byte	0x33
 1395 03c2 84030000 		.4byte	0x384
 1396 03c6 08       		.uleb128 0x8
 1397 03c7 28       		.byte	0x28
 1398 03c8 0A       		.byte	0xa
 1399 03c9 33       		.byte	0x33
ARM GAS  /tmp/cc2eAqjR.s 			page 26


 1400 03ca 17040000 		.4byte	0x417
 1401 03ce 06       		.uleb128 0x6
 1402 03cf EC020000 		.4byte	.LASF62
 1403 03d3 0A       		.byte	0xa
 1404 03d4 34       		.byte	0x34
 1405 03d5 17040000 		.4byte	0x417
 1406 03d9 00       		.byte	0
 1407 03da 06       		.uleb128 0x6
 1408 03db 48030000 		.4byte	.LASF63
 1409 03df 0A       		.byte	0xa
 1410 03e0 36       		.byte	0x36
 1411 03e1 17040000 		.4byte	0x417
 1412 03e5 04       		.byte	0x4
 1413 03e6 06       		.uleb128 0x6
 1414 03e7 45010000 		.4byte	.LASF64
 1415 03eb 0A       		.byte	0xa
 1416 03ec 38       		.byte	0x38
 1417 03ed 17040000 		.4byte	0x417
 1418 03f1 08       		.byte	0x8
 1419 03f2 06       		.uleb128 0x6
 1420 03f3 C4020000 		.4byte	.LASF65
 1421 03f7 0A       		.byte	0xa
 1422 03f8 39       		.byte	0x39
 1423 03f9 17040000 		.4byte	0x417
 1424 03fd 0C       		.byte	0xc
 1425 03fe 06       		.uleb128 0x6
 1426 03ff B5040000 		.4byte	.LASF66
 1427 0403 0A       		.byte	0xa
 1428 0404 3A       		.byte	0x3a
 1429 0405 79030000 		.4byte	0x379
 1430 0409 10       		.byte	0x10
 1431 040a 06       		.uleb128 0x6
 1432 040b 09020000 		.4byte	.LASF67
 1433 040f 0A       		.byte	0xa
 1434 0410 3C       		.byte	0x3c
 1435 0411 79030000 		.4byte	0x379
 1436 0415 1C       		.byte	0x1c
 1437 0416 00       		.byte	0
 1438 0417 09       		.uleb128 0x9
 1439 0418 04       		.byte	0x4
 1440 0419 01010000 		.4byte	0x101
 1441 041d 04       		.uleb128 0x4
 1442 041e 4C000000 		.4byte	.LASF68
 1443 0422 0A       		.byte	0xa
 1444 0423 3E       		.byte	0x3e
 1445 0424 C6030000 		.4byte	0x3c6
 1446 0428 0E       		.uleb128 0xe
 1447 0429 04       		.byte	0x4
 1448 042a 06       		.byte	0x6
 1449 042b 96       		.byte	0x96
 1450 042c 5D040000 		.4byte	0x45d
 1451 0430 0F       		.uleb128 0xf
 1452 0431 1E000000 		.4byte	.LASF69
 1453 0435 06       		.byte	0x6
 1454 0436 9D       		.byte	0x9d
 1455 0437 01010000 		.4byte	0x101
 1456 043b 0F       		.uleb128 0xf
ARM GAS  /tmp/cc2eAqjR.s 			page 27


 1457 043c 2D010000 		.4byte	.LASF70
 1458 0440 06       		.byte	0x6
 1459 0441 A4       		.byte	0xa4
 1460 0442 01010000 		.4byte	0x101
 1461 0446 0F       		.uleb128 0xf
 1462 0447 DB040000 		.4byte	.LASF71
 1463 044b 06       		.byte	0x6
 1464 044c AB       		.byte	0xab
 1465 044d 9E020000 		.4byte	0x29e
 1466 0451 0F       		.uleb128 0xf
 1467 0452 D6030000 		.4byte	.LASF72
 1468 0456 06       		.byte	0x6
 1469 0457 B2       		.byte	0xb2
 1470 0458 0C010000 		.4byte	0x10c
 1471 045c 00       		.byte	0
 1472 045d 09       		.uleb128 0x9
 1473 045e 04       		.byte	0x4
 1474 045f 63040000 		.4byte	0x463
 1475 0463 10       		.uleb128 0x10
 1476 0464 68040000 		.4byte	0x468
 1477 0468 03       		.uleb128 0x3
 1478 0469 01       		.byte	0x1
 1479 046a 08       		.byte	0x8
 1480 046b 3D040000 		.4byte	.LASF73
 1481 046f 09       		.uleb128 0x9
 1482 0470 04       		.byte	0x4
 1483 0471 A0020000 		.4byte	0x2a0
 1484 0475 09       		.uleb128 0x9
 1485 0476 04       		.byte	0x4
 1486 0477 BB030000 		.4byte	0x3bb
 1487 047b 11       		.uleb128 0x11
 1488 047c 42000000 		.4byte	.LASF75
 1489 0480 01       		.byte	0x1
 1490 0481 96       		.byte	0x96
 1491 0482 01010000 		.4byte	0x101
 1492 0486 01       		.byte	0x1
 1493 0487 B8040000 		.4byte	0x4b8
 1494 048b 12       		.uleb128 0x12
 1495 048c 6D627000 		.ascii	"mbp\000"
 1496 0490 01       		.byte	0x1
 1497 0491 96       		.byte	0x96
 1498 0492 B8040000 		.4byte	0x4b8
 1499 0496 12       		.uleb128 0x12
 1500 0497 6D736700 		.ascii	"msg\000"
 1501 049b 01       		.byte	0x1
 1502 049c 96       		.byte	0x96
 1503 049d 01010000 		.4byte	0x101
 1504 04a1 13       		.uleb128 0x13
 1505 04a2 F6020000 		.4byte	.LASF74
 1506 04a6 01       		.byte	0x1
 1507 04a7 96       		.byte	0x96
 1508 04a8 17010000 		.4byte	0x117
 1509 04ac 14       		.uleb128 0x14
 1510 04ad 1E000000 		.4byte	.LASF69
 1511 04b1 01       		.byte	0x1
 1512 04b2 97       		.byte	0x97
 1513 04b3 01010000 		.4byte	0x101
ARM GAS  /tmp/cc2eAqjR.s 			page 28


 1514 04b7 00       		.byte	0
 1515 04b8 09       		.uleb128 0x9
 1516 04b9 04       		.byte	0x4
 1517 04ba 1D040000 		.4byte	0x41d
 1518 04be 11       		.uleb128 0x11
 1519 04bf 36010000 		.4byte	.LASF76
 1520 04c3 01       		.byte	0x1
 1521 04c4 F3       		.byte	0xf3
 1522 04c5 01010000 		.4byte	0x101
 1523 04c9 01       		.byte	0x1
 1524 04ca FB040000 		.4byte	0x4fb
 1525 04ce 12       		.uleb128 0x12
 1526 04cf 6D627000 		.ascii	"mbp\000"
 1527 04d3 01       		.byte	0x1
 1528 04d4 F3       		.byte	0xf3
 1529 04d5 B8040000 		.4byte	0x4b8
 1530 04d9 12       		.uleb128 0x12
 1531 04da 6D736700 		.ascii	"msg\000"
 1532 04de 01       		.byte	0x1
 1533 04df F3       		.byte	0xf3
 1534 04e0 01010000 		.4byte	0x101
 1535 04e4 13       		.uleb128 0x13
 1536 04e5 F6020000 		.4byte	.LASF74
 1537 04e9 01       		.byte	0x1
 1538 04ea F3       		.byte	0xf3
 1539 04eb 17010000 		.4byte	0x117
 1540 04ef 14       		.uleb128 0x14
 1541 04f0 1E000000 		.4byte	.LASF69
 1542 04f4 01       		.byte	0x1
 1543 04f5 F4       		.byte	0xf4
 1544 04f6 01010000 		.4byte	0x101
 1545 04fa 00       		.byte	0
 1546 04fb 15       		.uleb128 0x15
 1547 04fc 58020000 		.4byte	.LASF77
 1548 0500 01       		.byte	0x1
 1549 0501 5001     		.2byte	0x150
 1550 0503 01010000 		.4byte	0x101
 1551 0507 01       		.byte	0x1
 1552 0508 3D050000 		.4byte	0x53d
 1553 050c 16       		.uleb128 0x16
 1554 050d 6D627000 		.ascii	"mbp\000"
 1555 0511 01       		.byte	0x1
 1556 0512 5001     		.2byte	0x150
 1557 0514 B8040000 		.4byte	0x4b8
 1558 0518 17       		.uleb128 0x17
 1559 0519 9A020000 		.4byte	.LASF78
 1560 051d 01       		.byte	0x1
 1561 051e 5001     		.2byte	0x150
 1562 0520 17040000 		.4byte	0x417
 1563 0524 17       		.uleb128 0x17
 1564 0525 F6020000 		.4byte	.LASF74
 1565 0529 01       		.byte	0x1
 1566 052a 5001     		.2byte	0x150
 1567 052c 17010000 		.4byte	0x117
 1568 0530 18       		.uleb128 0x18
 1569 0531 1E000000 		.4byte	.LASF69
 1570 0535 01       		.byte	0x1
ARM GAS  /tmp/cc2eAqjR.s 			page 29


 1571 0536 5101     		.2byte	0x151
 1572 0538 01010000 		.4byte	0x101
 1573 053c 00       		.byte	0
 1574 053d 19       		.uleb128 0x19
 1575 053e EE010000 		.4byte	.LASF79
 1576 0542 01       		.byte	0x1
 1577 0543 48       		.byte	0x48
 1578 0544 00000000 		.4byte	.LFB7
 1579 0548 40000000 		.4byte	.LFE7-.LFB7
 1580 054c 01       		.uleb128 0x1
 1581 054d 9C       		.byte	0x9c
 1582 054e C7050000 		.4byte	0x5c7
 1583 0552 1A       		.uleb128 0x1a
 1584 0553 6D627000 		.ascii	"mbp\000"
 1585 0557 01       		.byte	0x1
 1586 0558 48       		.byte	0x48
 1587 0559 B8040000 		.4byte	0x4b8
 1588 055d 00000000 		.4byte	.LLST0
 1589 0561 1A       		.uleb128 0x1a
 1590 0562 62756600 		.ascii	"buf\000"
 1591 0566 01       		.byte	0x1
 1592 0567 48       		.byte	0x48
 1593 0568 17040000 		.4byte	0x417
 1594 056c 4F000000 		.4byte	.LLST1
 1595 0570 1A       		.uleb128 0x1a
 1596 0571 6E00     		.ascii	"n\000"
 1597 0573 01       		.byte	0x1
 1598 0574 48       		.byte	0x48
 1599 0575 22010000 		.4byte	0x122
 1600 0579 91000000 		.4byte	.LLST2
 1601 057d 1B       		.uleb128 0x1b
 1602 057e 26000000 		.4byte	.LVL2
 1603 0582 310C0000 		.4byte	0xc31
 1604 0586 97050000 		.4byte	0x597
 1605 058a 1C       		.uleb128 0x1c
 1606 058b 01       		.uleb128 0x1
 1607 058c 51       		.byte	0x51
 1608 058d 02       		.uleb128 0x2
 1609 058e 76       		.byte	0x76
 1610 058f 00       		.sleb128 0
 1611 0590 1C       		.uleb128 0x1c
 1612 0591 01       		.uleb128 0x1
 1613 0592 50       		.byte	0x50
 1614 0593 02       		.uleb128 0x2
 1615 0594 74       		.byte	0x74
 1616 0595 1C       		.sleb128 28
 1617 0596 00       		.byte	0
 1618 0597 1D       		.uleb128 0x1d
 1619 0598 34000000 		.4byte	.LVL4
 1620 059c 310C0000 		.4byte	0xc31
 1621 05a0 B3050000 		.4byte	0x5b3
 1622 05a4 1C       		.uleb128 0x1c
 1623 05a5 01       		.uleb128 0x1
 1624 05a6 51       		.byte	0x51
 1625 05a7 01       		.uleb128 0x1
 1626 05a8 30       		.byte	0x30
 1627 05a9 1C       		.uleb128 0x1c
ARM GAS  /tmp/cc2eAqjR.s 			page 30


 1628 05aa 01       		.uleb128 0x1
 1629 05ab 50       		.byte	0x50
 1630 05ac 05       		.uleb128 0x5
 1631 05ad F3       		.byte	0xf3
 1632 05ae 01       		.uleb128 0x1
 1633 05af 50       		.byte	0x50
 1634 05b0 23       		.byte	0x23
 1635 05b1 10       		.uleb128 0x10
 1636 05b2 00       		.byte	0
 1637 05b3 1E       		.uleb128 0x1e
 1638 05b4 3A000000 		.4byte	.LVL6
 1639 05b8 4D0C0000 		.4byte	0xc4d
 1640 05bc 1C       		.uleb128 0x1c
 1641 05bd 01       		.uleb128 0x1
 1642 05be 50       		.byte	0x50
 1643 05bf 05       		.uleb128 0x5
 1644 05c0 03       		.byte	0x3
 1645 05c1 00000000 		.4byte	.LC0
 1646 05c5 00       		.byte	0
 1647 05c6 00       		.byte	0
 1648 05c7 19       		.uleb128 0x19
 1649 05c8 CD020000 		.4byte	.LASF80
 1650 05cc 01       		.byte	0x1
 1651 05cd 5B       		.byte	0x5b
 1652 05ce 00000000 		.4byte	.LFB8
 1653 05d2 4C000000 		.4byte	.LFE8-.LFB8
 1654 05d6 01       		.uleb128 0x1
 1655 05d7 9C       		.byte	0x9c
 1656 05d8 7D060000 		.4byte	0x67d
 1657 05dc 1A       		.uleb128 0x1a
 1658 05dd 6D627000 		.ascii	"mbp\000"
 1659 05e1 01       		.byte	0x1
 1660 05e2 5B       		.byte	0x5b
 1661 05e3 B8040000 		.4byte	0x4b8
 1662 05e7 D3000000 		.4byte	.LLST3
 1663 05eb 1F       		.uleb128 0x1f
 1664 05ec 06000000 		.4byte	.LBB2
 1665 05f0 06000000 		.4byte	.LBE2-.LBB2
 1666 05f4 06060000 		.4byte	0x606
 1667 05f8 20       		.uleb128 0x20
 1668 05f9 746D7000 		.ascii	"tmp\000"
 1669 05fd 01       		.byte	0x1
 1670 05fe 5F       		.byte	0x5f
 1671 05ff AD000000 		.4byte	0xad
 1672 0603 01       		.uleb128 0x1
 1673 0604 53       		.byte	0x53
 1674 0605 00       		.byte	0
 1675 0606 1F       		.uleb128 0x1f
 1676 0607 36000000 		.4byte	.LBB3
 1677 060b 08000000 		.4byte	.LBE3-.LBB3
 1678 060f 21060000 		.4byte	0x621
 1679 0613 20       		.uleb128 0x20
 1680 0614 746D7000 		.ascii	"tmp\000"
 1681 0618 01       		.byte	0x1
 1682 0619 64       		.byte	0x64
 1683 061a AD000000 		.4byte	0xad
 1684 061e 01       		.uleb128 0x1
ARM GAS  /tmp/cc2eAqjR.s 			page 31


 1685 061f 53       		.byte	0x53
 1686 0620 00       		.byte	0
 1687 0621 21       		.uleb128 0x21
 1688 0622 10000000 		.4byte	.LVL9
 1689 0626 5E0C0000 		.4byte	0xc5e
 1690 062a 1B       		.uleb128 0x1b
 1691 062b 24000000 		.4byte	.LVL10
 1692 062f 650C0000 		.4byte	0xc65
 1693 0633 3E060000 		.4byte	0x63e
 1694 0637 1C       		.uleb128 0x1c
 1695 0638 01       		.uleb128 0x1
 1696 0639 50       		.byte	0x50
 1697 063a 02       		.uleb128 0x2
 1698 063b 74       		.byte	0x74
 1699 063c 1C       		.sleb128 28
 1700 063d 00       		.byte	0
 1701 063e 1B       		.uleb128 0x1b
 1702 063f 2E000000 		.4byte	.LVL11
 1703 0643 650C0000 		.4byte	0xc65
 1704 0647 57060000 		.4byte	0x657
 1705 064b 1C       		.uleb128 0x1c
 1706 064c 01       		.uleb128 0x1
 1707 064d 51       		.byte	0x51
 1708 064e 01       		.uleb128 0x1
 1709 064f 30       		.byte	0x30
 1710 0650 1C       		.uleb128 0x1c
 1711 0651 01       		.uleb128 0x1
 1712 0652 50       		.byte	0x50
 1713 0653 02       		.uleb128 0x2
 1714 0654 74       		.byte	0x74
 1715 0655 10       		.sleb128 16
 1716 0656 00       		.byte	0
 1717 0657 21       		.uleb128 0x21
 1718 0658 32000000 		.4byte	.LVL12
 1719 065c 7B0C0000 		.4byte	0xc7b
 1720 0660 21       		.uleb128 0x21
 1721 0661 36000000 		.4byte	.LVL13
 1722 0665 820C0000 		.4byte	0xc82
 1723 0669 1E       		.uleb128 0x1e
 1724 066a 44000000 		.4byte	.LVL16
 1725 066e 4D0C0000 		.4byte	0xc4d
 1726 0672 1C       		.uleb128 0x1c
 1727 0673 01       		.uleb128 0x1
 1728 0674 50       		.byte	0x50
 1729 0675 05       		.uleb128 0x5
 1730 0676 03       		.byte	0x3
 1731 0677 10000000 		.4byte	.LC1
 1732 067b 00       		.byte	0
 1733 067c 00       		.byte	0
 1734 067d 22       		.uleb128 0x22
 1735 067e 7B040000 		.4byte	0x47b
 1736 0682 00000000 		.4byte	.LFB10
 1737 0686 4C000000 		.4byte	.LFE10-.LFB10
 1738 068a 01       		.uleb128 0x1
 1739 068b 9C       		.byte	0x9c
 1740 068c 40070000 		.4byte	0x740
 1741 0690 23       		.uleb128 0x23
ARM GAS  /tmp/cc2eAqjR.s 			page 32


 1742 0691 8B040000 		.4byte	0x48b
 1743 0695 07010000 		.4byte	.LLST4
 1744 0699 23       		.uleb128 0x23
 1745 069a 96040000 		.4byte	0x496
 1746 069e 25010000 		.4byte	.LLST5
 1747 06a2 23       		.uleb128 0x23
 1748 06a3 A1040000 		.4byte	0x4a1
 1749 06a7 43010000 		.4byte	.LLST6
 1750 06ab 24       		.uleb128 0x24
 1751 06ac AC040000 		.4byte	0x4ac
 1752 06b0 7A010000 		.4byte	.LLST7
 1753 06b4 1F       		.uleb128 0x1f
 1754 06b5 1C000000 		.4byte	.LBB6
 1755 06b9 20000000 		.4byte	.LBE6-.LBB6
 1756 06bd 09070000 		.4byte	0x709
 1757 06c1 23       		.uleb128 0x23
 1758 06c2 A1040000 		.4byte	0x4a1
 1759 06c6 98010000 		.4byte	.LLST8
 1760 06ca 23       		.uleb128 0x23
 1761 06cb 96040000 		.4byte	0x496
 1762 06cf AE010000 		.4byte	.LLST9
 1763 06d3 23       		.uleb128 0x23
 1764 06d4 8B040000 		.4byte	0x48b
 1765 06d8 C1010000 		.4byte	.LLST10
 1766 06dc 25       		.uleb128 0x25
 1767 06dd 1C000000 		.4byte	.LBB7
 1768 06e1 20000000 		.4byte	.LBE7-.LBB7
 1769 06e5 26       		.uleb128 0x26
 1770 06e6 AC040000 		.4byte	0x4ac
 1771 06ea 1B       		.uleb128 0x1b
 1772 06eb 38000000 		.4byte	.LVL23
 1773 06ef 890C0000 		.4byte	0xc89
 1774 06f3 FE060000 		.4byte	0x6fe
 1775 06f7 1C       		.uleb128 0x1c
 1776 06f8 01       		.uleb128 0x1
 1777 06f9 50       		.byte	0x50
 1778 06fa 02       		.uleb128 0x2
 1779 06fb 74       		.byte	0x74
 1780 06fc 10       		.sleb128 16
 1781 06fd 00       		.byte	0
 1782 06fe 21       		.uleb128 0x21
 1783 06ff 3C000000 		.4byte	.LVL24
 1784 0703 7B0C0000 		.4byte	0xc7b
 1785 0707 00       		.byte	0
 1786 0708 00       		.byte	0
 1787 0709 21       		.uleb128 0x21
 1788 070a 0C000000 		.4byte	.LVL18
 1789 070e 9A0C0000 		.4byte	0xc9a
 1790 0712 1B       		.uleb128 0x1b
 1791 0713 18000000 		.4byte	.LVL19
 1792 0717 A10C0000 		.4byte	0xca1
 1793 071b 2C070000 		.4byte	0x72c
 1794 071f 1C       		.uleb128 0x1c
 1795 0720 01       		.uleb128 0x1
 1796 0721 51       		.byte	0x51
 1797 0722 02       		.uleb128 0x2
 1798 0723 75       		.byte	0x75
ARM GAS  /tmp/cc2eAqjR.s 			page 33


 1799 0724 00       		.sleb128 0
 1800 0725 1C       		.uleb128 0x1c
 1801 0726 01       		.uleb128 0x1
 1802 0727 50       		.byte	0x50
 1803 0728 02       		.uleb128 0x2
 1804 0729 74       		.byte	0x74
 1805 072a 1C       		.sleb128 28
 1806 072b 00       		.byte	0
 1807 072c 1E       		.uleb128 0x1e
 1808 072d 46000000 		.4byte	.LVL26
 1809 0731 4D0C0000 		.4byte	0xc4d
 1810 0735 1C       		.uleb128 0x1c
 1811 0736 01       		.uleb128 0x1
 1812 0737 50       		.byte	0x50
 1813 0738 05       		.uleb128 0x5
 1814 0739 03       		.byte	0x3
 1815 073a 20000000 		.4byte	.LC2
 1816 073e 00       		.byte	0
 1817 073f 00       		.byte	0
 1818 0740 27       		.uleb128 0x27
 1819 0741 EC030000 		.4byte	.LASF81
 1820 0745 01       		.byte	0x1
 1821 0746 7A       		.byte	0x7a
 1822 0747 01010000 		.4byte	0x101
 1823 074b 00000000 		.4byte	.LFB9
 1824 074f 2C000000 		.4byte	.LFE9-.LFB9
 1825 0753 01       		.uleb128 0x1
 1826 0754 9C       		.byte	0x9c
 1827 0755 FA070000 		.4byte	0x7fa
 1828 0759 1A       		.uleb128 0x1a
 1829 075a 6D627000 		.ascii	"mbp\000"
 1830 075e 01       		.byte	0x1
 1831 075f 7A       		.byte	0x7a
 1832 0760 B8040000 		.4byte	0x4b8
 1833 0764 D4010000 		.4byte	.LLST11
 1834 0768 1A       		.uleb128 0x1a
 1835 0769 6D736700 		.ascii	"msg\000"
 1836 076d 01       		.byte	0x1
 1837 076e 7A       		.byte	0x7a
 1838 076f 01010000 		.4byte	0x101
 1839 0773 F2010000 		.4byte	.LLST12
 1840 0777 28       		.uleb128 0x28
 1841 0778 F6020000 		.4byte	.LASF74
 1842 077c 01       		.byte	0x1
 1843 077d 7A       		.byte	0x7a
 1844 077e 17010000 		.4byte	0x117
 1845 0782 10020000 		.4byte	.LLST13
 1846 0786 29       		.uleb128 0x29
 1847 0787 1E000000 		.4byte	.LASF69
 1848 078b 01       		.byte	0x1
 1849 078c 7B       		.byte	0x7b
 1850 078d 01010000 		.4byte	0x101
 1851 0791 3C020000 		.4byte	.LLST14
 1852 0795 2A       		.uleb128 0x2a
 1853 0796 00000000 		.4byte	.Ldebug_ranges0+0
 1854 079a AC070000 		.4byte	0x7ac
 1855 079e 20       		.uleb128 0x20
ARM GAS  /tmp/cc2eAqjR.s 			page 34


 1856 079f 746D7000 		.ascii	"tmp\000"
 1857 07a3 01       		.byte	0x1
 1858 07a4 7D       		.byte	0x7d
 1859 07a5 AD000000 		.4byte	0xad
 1860 07a9 01       		.uleb128 0x1
 1861 07aa 53       		.byte	0x53
 1862 07ab 00       		.byte	0
 1863 07ac 1F       		.uleb128 0x1f
 1864 07ad 22000000 		.4byte	.LBB10
 1865 07b1 06000000 		.4byte	.LBE10-.LBB10
 1866 07b5 C7070000 		.4byte	0x7c7
 1867 07b9 20       		.uleb128 0x20
 1868 07ba 746D7000 		.ascii	"tmp\000"
 1869 07be 01       		.byte	0x1
 1870 07bf 7F       		.byte	0x7f
 1871 07c0 AD000000 		.4byte	0xad
 1872 07c4 01       		.uleb128 0x1
 1873 07c5 53       		.byte	0x53
 1874 07c6 00       		.byte	0
 1875 07c7 21       		.uleb128 0x21
 1876 07c8 12000000 		.4byte	.LVL28
 1877 07cc 5E0C0000 		.4byte	0xc5e
 1878 07d0 1B       		.uleb128 0x1b
 1879 07d1 1C000000 		.4byte	.LVL29
 1880 07d5 7B040000 		.4byte	0x47b
 1881 07d9 F0070000 		.4byte	0x7f0
 1882 07dd 1C       		.uleb128 0x1c
 1883 07de 01       		.uleb128 0x1
 1884 07df 52       		.byte	0x52
 1885 07e0 02       		.uleb128 0x2
 1886 07e1 74       		.byte	0x74
 1887 07e2 00       		.sleb128 0
 1888 07e3 1C       		.uleb128 0x1c
 1889 07e4 01       		.uleb128 0x1
 1890 07e5 51       		.byte	0x51
 1891 07e6 02       		.uleb128 0x2
 1892 07e7 75       		.byte	0x75
 1893 07e8 00       		.sleb128 0
 1894 07e9 1C       		.uleb128 0x1c
 1895 07ea 01       		.uleb128 0x1
 1896 07eb 50       		.byte	0x50
 1897 07ec 02       		.uleb128 0x2
 1898 07ed 76       		.byte	0x76
 1899 07ee 00       		.sleb128 0
 1900 07ef 00       		.byte	0
 1901 07f0 21       		.uleb128 0x21
 1902 07f1 22000000 		.4byte	.LVL31
 1903 07f5 820C0000 		.4byte	0xc82
 1904 07f9 00       		.byte	0
 1905 07fa 27       		.uleb128 0x27
 1906 07fb 38000000 		.4byte	.LASF82
 1907 07ff 01       		.byte	0x1
 1908 0800 B5       		.byte	0xb5
 1909 0801 01010000 		.4byte	0x101
 1910 0805 00000000 		.4byte	.LFB11
 1911 0809 48000000 		.4byte	.LFE11-.LFB11
 1912 080d 01       		.uleb128 0x1
ARM GAS  /tmp/cc2eAqjR.s 			page 35


 1913 080e 9C       		.byte	0x9c
 1914 080f 62080000 		.4byte	0x862
 1915 0813 1A       		.uleb128 0x1a
 1916 0814 6D627000 		.ascii	"mbp\000"
 1917 0818 01       		.byte	0x1
 1918 0819 B5       		.byte	0xb5
 1919 081a B8040000 		.4byte	0x4b8
 1920 081e 5A020000 		.4byte	.LLST15
 1921 0822 1A       		.uleb128 0x1a
 1922 0823 6D736700 		.ascii	"msg\000"
 1923 0827 01       		.byte	0x1
 1924 0828 B5       		.byte	0xb5
 1925 0829 01010000 		.4byte	0x101
 1926 082d 86020000 		.4byte	.LLST16
 1927 0831 21       		.uleb128 0x21
 1928 0832 0A000000 		.4byte	.LVL33
 1929 0836 BB0C0000 		.4byte	0xcbb
 1930 083a 1B       		.uleb128 0x1b
 1931 083b 32000000 		.4byte	.LVL34
 1932 083f 890C0000 		.4byte	0xc89
 1933 0843 4E080000 		.4byte	0x84e
 1934 0847 1C       		.uleb128 0x1c
 1935 0848 01       		.uleb128 0x1
 1936 0849 50       		.byte	0x50
 1937 084a 02       		.uleb128 0x2
 1938 084b 74       		.byte	0x74
 1939 084c 10       		.sleb128 16
 1940 084d 00       		.byte	0
 1941 084e 1E       		.uleb128 0x1e
 1942 084f 3C000000 		.4byte	.LVL36
 1943 0853 4D0C0000 		.4byte	0xc4d
 1944 0857 1C       		.uleb128 0x1c
 1945 0858 01       		.uleb128 0x1
 1946 0859 50       		.byte	0x50
 1947 085a 05       		.uleb128 0x5
 1948 085b 03       		.byte	0x3
 1949 085c 30000000 		.4byte	.LC3
 1950 0860 00       		.byte	0
 1951 0861 00       		.byte	0
 1952 0862 22       		.uleb128 0x22
 1953 0863 BE040000 		.4byte	0x4be
 1954 0867 00000000 		.4byte	.LFB13
 1955 086b 50000000 		.4byte	.LFE13-.LFB13
 1956 086f 01       		.uleb128 0x1
 1957 0870 9C       		.byte	0x9c
 1958 0871 1D090000 		.4byte	0x91d
 1959 0875 23       		.uleb128 0x23
 1960 0876 CE040000 		.4byte	0x4ce
 1961 087a B2020000 		.4byte	.LLST17
 1962 087e 23       		.uleb128 0x23
 1963 087f D9040000 		.4byte	0x4d9
 1964 0883 D0020000 		.4byte	.LLST18
 1965 0887 23       		.uleb128 0x23
 1966 0888 E4040000 		.4byte	0x4e4
 1967 088c EE020000 		.4byte	.LLST19
 1968 0890 24       		.uleb128 0x24
 1969 0891 EF040000 		.4byte	0x4ef
ARM GAS  /tmp/cc2eAqjR.s 			page 36


 1970 0895 25030000 		.4byte	.LLST20
 1971 0899 2A       		.uleb128 0x2a
 1972 089a 18000000 		.4byte	.Ldebug_ranges0+0x18
 1973 089e E6080000 		.4byte	0x8e6
 1974 08a2 23       		.uleb128 0x23
 1975 08a3 E4040000 		.4byte	0x4e4
 1976 08a7 4E030000 		.4byte	.LLST21
 1977 08ab 23       		.uleb128 0x23
 1978 08ac D9040000 		.4byte	0x4d9
 1979 08b0 72030000 		.4byte	.LLST22
 1980 08b4 23       		.uleb128 0x23
 1981 08b5 CE040000 		.4byte	0x4ce
 1982 08b9 90030000 		.4byte	.LLST23
 1983 08bd 2B       		.uleb128 0x2b
 1984 08be 18000000 		.4byte	.Ldebug_ranges0+0x18
 1985 08c2 26       		.uleb128 0x26
 1986 08c3 EF040000 		.4byte	0x4ef
 1987 08c7 1B       		.uleb128 0x1b
 1988 08c8 32000000 		.4byte	.LVL44
 1989 08cc 890C0000 		.4byte	0xc89
 1990 08d0 DB080000 		.4byte	0x8db
 1991 08d4 1C       		.uleb128 0x1c
 1992 08d5 01       		.uleb128 0x1
 1993 08d6 50       		.byte	0x50
 1994 08d7 02       		.uleb128 0x2
 1995 08d8 74       		.byte	0x74
 1996 08d9 10       		.sleb128 16
 1997 08da 00       		.byte	0
 1998 08db 21       		.uleb128 0x21
 1999 08dc 36000000 		.4byte	.LVL45
 2000 08e0 7B0C0000 		.4byte	0xc7b
 2001 08e4 00       		.byte	0
 2002 08e5 00       		.byte	0
 2003 08e6 21       		.uleb128 0x21
 2004 08e7 0C000000 		.4byte	.LVL39
 2005 08eb 9A0C0000 		.4byte	0xc9a
 2006 08ef 1B       		.uleb128 0x1b
 2007 08f0 18000000 		.4byte	.LVL40
 2008 08f4 A10C0000 		.4byte	0xca1
 2009 08f8 09090000 		.4byte	0x909
 2010 08fc 1C       		.uleb128 0x1c
 2011 08fd 01       		.uleb128 0x1
 2012 08fe 51       		.byte	0x51
 2013 08ff 02       		.uleb128 0x2
 2014 0900 75       		.byte	0x75
 2015 0901 00       		.sleb128 0
 2016 0902 1C       		.uleb128 0x1c
 2017 0903 01       		.uleb128 0x1
 2018 0904 50       		.byte	0x50
 2019 0905 02       		.uleb128 0x2
 2020 0906 74       		.byte	0x74
 2021 0907 1C       		.sleb128 28
 2022 0908 00       		.byte	0
 2023 0909 1E       		.uleb128 0x1e
 2024 090a 48000000 		.4byte	.LVL48
 2025 090e 4D0C0000 		.4byte	0xc4d
 2026 0912 1C       		.uleb128 0x1c
ARM GAS  /tmp/cc2eAqjR.s 			page 37


 2027 0913 01       		.uleb128 0x1
 2028 0914 50       		.byte	0x50
 2029 0915 05       		.uleb128 0x5
 2030 0916 03       		.byte	0x3
 2031 0917 40000000 		.4byte	.LC4
 2032 091b 00       		.byte	0
 2033 091c 00       		.byte	0
 2034 091d 27       		.uleb128 0x27
 2035 091e 81040000 		.4byte	.LASF83
 2036 0922 01       		.byte	0x1
 2037 0923 D7       		.byte	0xd7
 2038 0924 01010000 		.4byte	0x101
 2039 0928 00000000 		.4byte	.LFB12
 2040 092c 2C000000 		.4byte	.LFE12-.LFB12
 2041 0930 01       		.uleb128 0x1
 2042 0931 9C       		.byte	0x9c
 2043 0932 D7090000 		.4byte	0x9d7
 2044 0936 1A       		.uleb128 0x1a
 2045 0937 6D627000 		.ascii	"mbp\000"
 2046 093b 01       		.byte	0x1
 2047 093c D7       		.byte	0xd7
 2048 093d B8040000 		.4byte	0x4b8
 2049 0941 AE030000 		.4byte	.LLST24
 2050 0945 1A       		.uleb128 0x1a
 2051 0946 6D736700 		.ascii	"msg\000"
 2052 094a 01       		.byte	0x1
 2053 094b D7       		.byte	0xd7
 2054 094c 01010000 		.4byte	0x101
 2055 0950 CC030000 		.4byte	.LLST25
 2056 0954 28       		.uleb128 0x28
 2057 0955 F6020000 		.4byte	.LASF74
 2058 0959 01       		.byte	0x1
 2059 095a D7       		.byte	0xd7
 2060 095b 17010000 		.4byte	0x117
 2061 095f EA030000 		.4byte	.LLST26
 2062 0963 29       		.uleb128 0x29
 2063 0964 1E000000 		.4byte	.LASF69
 2064 0968 01       		.byte	0x1
 2065 0969 D8       		.byte	0xd8
 2066 096a 01010000 		.4byte	0x101
 2067 096e 16040000 		.4byte	.LLST27
 2068 0972 2A       		.uleb128 0x2a
 2069 0973 30000000 		.4byte	.Ldebug_ranges0+0x30
 2070 0977 89090000 		.4byte	0x989
 2071 097b 20       		.uleb128 0x20
 2072 097c 746D7000 		.ascii	"tmp\000"
 2073 0980 01       		.byte	0x1
 2074 0981 DA       		.byte	0xda
 2075 0982 AD000000 		.4byte	0xad
 2076 0986 01       		.uleb128 0x1
 2077 0987 53       		.byte	0x53
 2078 0988 00       		.byte	0
 2079 0989 1F       		.uleb128 0x1f
 2080 098a 22000000 		.4byte	.LBB19
 2081 098e 06000000 		.4byte	.LBE19-.LBB19
 2082 0992 A4090000 		.4byte	0x9a4
 2083 0996 20       		.uleb128 0x20
ARM GAS  /tmp/cc2eAqjR.s 			page 38


 2084 0997 746D7000 		.ascii	"tmp\000"
 2085 099b 01       		.byte	0x1
 2086 099c DC       		.byte	0xdc
 2087 099d AD000000 		.4byte	0xad
 2088 09a1 01       		.uleb128 0x1
 2089 09a2 53       		.byte	0x53
 2090 09a3 00       		.byte	0
 2091 09a4 21       		.uleb128 0x21
 2092 09a5 12000000 		.4byte	.LVL50
 2093 09a9 5E0C0000 		.4byte	0xc5e
 2094 09ad 1B       		.uleb128 0x1b
 2095 09ae 1C000000 		.4byte	.LVL51
 2096 09b2 BE040000 		.4byte	0x4be
 2097 09b6 CD090000 		.4byte	0x9cd
 2098 09ba 1C       		.uleb128 0x1c
 2099 09bb 01       		.uleb128 0x1
 2100 09bc 52       		.byte	0x52
 2101 09bd 02       		.uleb128 0x2
 2102 09be 74       		.byte	0x74
 2103 09bf 00       		.sleb128 0
 2104 09c0 1C       		.uleb128 0x1c
 2105 09c1 01       		.uleb128 0x1
 2106 09c2 51       		.byte	0x51
 2107 09c3 02       		.uleb128 0x2
 2108 09c4 75       		.byte	0x75
 2109 09c5 00       		.sleb128 0
 2110 09c6 1C       		.uleb128 0x1c
 2111 09c7 01       		.uleb128 0x1
 2112 09c8 50       		.byte	0x50
 2113 09c9 02       		.uleb128 0x2
 2114 09ca 76       		.byte	0x76
 2115 09cb 00       		.sleb128 0
 2116 09cc 00       		.byte	0
 2117 09cd 21       		.uleb128 0x21
 2118 09ce 22000000 		.4byte	.LVL53
 2119 09d2 820C0000 		.4byte	0xc82
 2120 09d6 00       		.byte	0
 2121 09d7 2C       		.uleb128 0x2c
 2122 09d8 54000000 		.4byte	.LASF84
 2123 09dc 01       		.byte	0x1
 2124 09dd 1201     		.2byte	0x112
 2125 09df 01010000 		.4byte	0x101
 2126 09e3 00000000 		.4byte	.LFB14
 2127 09e7 48000000 		.4byte	.LFE14-.LFB14
 2128 09eb 01       		.uleb128 0x1
 2129 09ec 9C       		.byte	0x9c
 2130 09ed 420A0000 		.4byte	0xa42
 2131 09f1 2D       		.uleb128 0x2d
 2132 09f2 6D627000 		.ascii	"mbp\000"
 2133 09f6 01       		.byte	0x1
 2134 09f7 1201     		.2byte	0x112
 2135 09f9 B8040000 		.4byte	0x4b8
 2136 09fd 34040000 		.4byte	.LLST28
 2137 0a01 2D       		.uleb128 0x2d
 2138 0a02 6D736700 		.ascii	"msg\000"
 2139 0a06 01       		.byte	0x1
 2140 0a07 1201     		.2byte	0x112
ARM GAS  /tmp/cc2eAqjR.s 			page 39


 2141 0a09 01010000 		.4byte	0x101
 2142 0a0d 60040000 		.4byte	.LLST29
 2143 0a11 21       		.uleb128 0x21
 2144 0a12 0A000000 		.4byte	.LVL55
 2145 0a16 BB0C0000 		.4byte	0xcbb
 2146 0a1a 1B       		.uleb128 0x1b
 2147 0a1b 32000000 		.4byte	.LVL56
 2148 0a1f 890C0000 		.4byte	0xc89
 2149 0a23 2E0A0000 		.4byte	0xa2e
 2150 0a27 1C       		.uleb128 0x1c
 2151 0a28 01       		.uleb128 0x1
 2152 0a29 50       		.byte	0x50
 2153 0a2a 02       		.uleb128 0x2
 2154 0a2b 74       		.byte	0x74
 2155 0a2c 10       		.sleb128 16
 2156 0a2d 00       		.byte	0
 2157 0a2e 1E       		.uleb128 0x1e
 2158 0a2f 3C000000 		.4byte	.LVL58
 2159 0a33 4D0C0000 		.4byte	0xc4d
 2160 0a37 1C       		.uleb128 0x1c
 2161 0a38 01       		.uleb128 0x1
 2162 0a39 50       		.byte	0x50
 2163 0a3a 05       		.uleb128 0x5
 2164 0a3b 03       		.byte	0x3
 2165 0a3c 54000000 		.4byte	.LC5
 2166 0a40 00       		.byte	0
 2167 0a41 00       		.byte	0
 2168 0a42 22       		.uleb128 0x22
 2169 0a43 FB040000 		.4byte	0x4fb
 2170 0a47 00000000 		.4byte	.LFB16
 2171 0a4b 50000000 		.4byte	.LFE16-.LFB16
 2172 0a4f 01       		.uleb128 0x1
 2173 0a50 9C       		.byte	0x9c
 2174 0a51 050B0000 		.4byte	0xb05
 2175 0a55 23       		.uleb128 0x23
 2176 0a56 0C050000 		.4byte	0x50c
 2177 0a5a 8C040000 		.4byte	.LLST30
 2178 0a5e 23       		.uleb128 0x23
 2179 0a5f 18050000 		.4byte	0x518
 2180 0a63 AA040000 		.4byte	.LLST31
 2181 0a67 23       		.uleb128 0x23
 2182 0a68 24050000 		.4byte	0x524
 2183 0a6c C8040000 		.4byte	.LLST32
 2184 0a70 24       		.uleb128 0x24
 2185 0a71 30050000 		.4byte	0x530
 2186 0a75 FF040000 		.4byte	.LLST33
 2187 0a79 1F       		.uleb128 0x1f
 2188 0a7a 1E000000 		.4byte	.LBB22
 2189 0a7e 22000000 		.4byte	.LBE22-.LBB22
 2190 0a82 CE0A0000 		.4byte	0xace
 2191 0a86 23       		.uleb128 0x23
 2192 0a87 24050000 		.4byte	0x524
 2193 0a8b 1D050000 		.4byte	.LLST34
 2194 0a8f 23       		.uleb128 0x23
 2195 0a90 18050000 		.4byte	0x518
 2196 0a94 33050000 		.4byte	.LLST35
 2197 0a98 23       		.uleb128 0x23
ARM GAS  /tmp/cc2eAqjR.s 			page 40


 2198 0a99 0C050000 		.4byte	0x50c
 2199 0a9d 46050000 		.4byte	.LLST36
 2200 0aa1 25       		.uleb128 0x25
 2201 0aa2 1E000000 		.4byte	.LBB23
 2202 0aa6 22000000 		.4byte	.LBE23-.LBB23
 2203 0aaa 26       		.uleb128 0x26
 2204 0aab 30050000 		.4byte	0x530
 2205 0aaf 1B       		.uleb128 0x1b
 2206 0ab0 3C000000 		.4byte	.LVL66
 2207 0ab4 890C0000 		.4byte	0xc89
 2208 0ab8 C30A0000 		.4byte	0xac3
 2209 0abc 1C       		.uleb128 0x1c
 2210 0abd 01       		.uleb128 0x1
 2211 0abe 50       		.byte	0x50
 2212 0abf 02       		.uleb128 0x2
 2213 0ac0 74       		.byte	0x74
 2214 0ac1 1C       		.sleb128 28
 2215 0ac2 00       		.byte	0
 2216 0ac3 21       		.uleb128 0x21
 2217 0ac4 40000000 		.4byte	.LVL67
 2218 0ac8 7B0C0000 		.4byte	0xc7b
 2219 0acc 00       		.byte	0
 2220 0acd 00       		.byte	0
 2221 0ace 21       		.uleb128 0x21
 2222 0acf 0C000000 		.4byte	.LVL61
 2223 0ad3 9A0C0000 		.4byte	0xc9a
 2224 0ad7 1B       		.uleb128 0x1b
 2225 0ad8 1A000000 		.4byte	.LVL62
 2226 0adc A10C0000 		.4byte	0xca1
 2227 0ae0 F10A0000 		.4byte	0xaf1
 2228 0ae4 1C       		.uleb128 0x1c
 2229 0ae5 01       		.uleb128 0x1
 2230 0ae6 51       		.byte	0x51
 2231 0ae7 02       		.uleb128 0x2
 2232 0ae8 75       		.byte	0x75
 2233 0ae9 00       		.sleb128 0
 2234 0aea 1C       		.uleb128 0x1c
 2235 0aeb 01       		.uleb128 0x1
 2236 0aec 50       		.byte	0x50
 2237 0aed 02       		.uleb128 0x2
 2238 0aee 74       		.byte	0x74
 2239 0aef 10       		.sleb128 16
 2240 0af0 00       		.byte	0
 2241 0af1 1E       		.uleb128 0x1e
 2242 0af2 4A000000 		.4byte	.LVL69
 2243 0af6 4D0C0000 		.4byte	0xc4d
 2244 0afa 1C       		.uleb128 0x1c
 2245 0afb 01       		.uleb128 0x1
 2246 0afc 50       		.byte	0x50
 2247 0afd 05       		.uleb128 0x5
 2248 0afe 03       		.byte	0x3
 2249 0aff 68000000 		.4byte	.LC6
 2250 0b03 00       		.byte	0
 2251 0b04 00       		.byte	0
 2252 0b05 2C       		.uleb128 0x2c
 2253 0b06 A1040000 		.4byte	.LASF85
 2254 0b0a 01       		.byte	0x1
ARM GAS  /tmp/cc2eAqjR.s 			page 41


 2255 0b0b 3401     		.2byte	0x134
 2256 0b0d 01010000 		.4byte	0x101
 2257 0b11 00000000 		.4byte	.LFB15
 2258 0b15 2C000000 		.4byte	.LFE15-.LFB15
 2259 0b19 01       		.uleb128 0x1
 2260 0b1a 9C       		.byte	0x9c
 2261 0b1b C60B0000 		.4byte	0xbc6
 2262 0b1f 2D       		.uleb128 0x2d
 2263 0b20 6D627000 		.ascii	"mbp\000"
 2264 0b24 01       		.byte	0x1
 2265 0b25 3401     		.2byte	0x134
 2266 0b27 B8040000 		.4byte	0x4b8
 2267 0b2b 59050000 		.4byte	.LLST37
 2268 0b2f 2E       		.uleb128 0x2e
 2269 0b30 9A020000 		.4byte	.LASF78
 2270 0b34 01       		.byte	0x1
 2271 0b35 3401     		.2byte	0x134
 2272 0b37 17040000 		.4byte	0x417
 2273 0b3b 77050000 		.4byte	.LLST38
 2274 0b3f 2E       		.uleb128 0x2e
 2275 0b40 F6020000 		.4byte	.LASF74
 2276 0b44 01       		.byte	0x1
 2277 0b45 3401     		.2byte	0x134
 2278 0b47 17010000 		.4byte	0x117
 2279 0b4b 95050000 		.4byte	.LLST39
 2280 0b4f 2F       		.uleb128 0x2f
 2281 0b50 1E000000 		.4byte	.LASF69
 2282 0b54 01       		.byte	0x1
 2283 0b55 3501     		.2byte	0x135
 2284 0b57 01010000 		.4byte	0x101
 2285 0b5b C1050000 		.4byte	.LLST40
 2286 0b5f 2A       		.uleb128 0x2a
 2287 0b60 48000000 		.4byte	.Ldebug_ranges0+0x48
 2288 0b64 770B0000 		.4byte	0xb77
 2289 0b68 30       		.uleb128 0x30
 2290 0b69 746D7000 		.ascii	"tmp\000"
 2291 0b6d 01       		.byte	0x1
 2292 0b6e 3701     		.2byte	0x137
 2293 0b70 AD000000 		.4byte	0xad
 2294 0b74 01       		.uleb128 0x1
 2295 0b75 53       		.byte	0x53
 2296 0b76 00       		.byte	0
 2297 0b77 1F       		.uleb128 0x1f
 2298 0b78 22000000 		.4byte	.LBB26
 2299 0b7c 06000000 		.4byte	.LBE26-.LBB26
 2300 0b80 930B0000 		.4byte	0xb93
 2301 0b84 30       		.uleb128 0x30
 2302 0b85 746D7000 		.ascii	"tmp\000"
 2303 0b89 01       		.byte	0x1
 2304 0b8a 3901     		.2byte	0x139
 2305 0b8c AD000000 		.4byte	0xad
 2306 0b90 01       		.uleb128 0x1
 2307 0b91 53       		.byte	0x53
 2308 0b92 00       		.byte	0
 2309 0b93 21       		.uleb128 0x21
 2310 0b94 12000000 		.4byte	.LVL71
 2311 0b98 5E0C0000 		.4byte	0xc5e
ARM GAS  /tmp/cc2eAqjR.s 			page 42


 2312 0b9c 1B       		.uleb128 0x1b
 2313 0b9d 1C000000 		.4byte	.LVL72
 2314 0ba1 FB040000 		.4byte	0x4fb
 2315 0ba5 BC0B0000 		.4byte	0xbbc
 2316 0ba9 1C       		.uleb128 0x1c
 2317 0baa 01       		.uleb128 0x1
 2318 0bab 52       		.byte	0x52
 2319 0bac 02       		.uleb128 0x2
 2320 0bad 74       		.byte	0x74
 2321 0bae 00       		.sleb128 0
 2322 0baf 1C       		.uleb128 0x1c
 2323 0bb0 01       		.uleb128 0x1
 2324 0bb1 51       		.byte	0x51
 2325 0bb2 02       		.uleb128 0x2
 2326 0bb3 75       		.byte	0x75
 2327 0bb4 00       		.sleb128 0
 2328 0bb5 1C       		.uleb128 0x1c
 2329 0bb6 01       		.uleb128 0x1
 2330 0bb7 50       		.byte	0x50
 2331 0bb8 02       		.uleb128 0x2
 2332 0bb9 76       		.byte	0x76
 2333 0bba 00       		.sleb128 0
 2334 0bbb 00       		.byte	0
 2335 0bbc 21       		.uleb128 0x21
 2336 0bbd 22000000 		.4byte	.LVL74
 2337 0bc1 820C0000 		.4byte	0xc82
 2338 0bc5 00       		.byte	0
 2339 0bc6 2C       		.uleb128 0x2c
 2340 0bc7 36020000 		.4byte	.LASF86
 2341 0bcb 01       		.byte	0x1
 2342 0bcc 6F01     		.2byte	0x16f
 2343 0bce 01010000 		.4byte	0x101
 2344 0bd2 00000000 		.4byte	.LFB17
 2345 0bd6 4C000000 		.4byte	.LFE17-.LFB17
 2346 0bda 01       		.uleb128 0x1
 2347 0bdb 9C       		.byte	0x9c
 2348 0bdc 310C0000 		.4byte	0xc31
 2349 0be0 2D       		.uleb128 0x2d
 2350 0be1 6D627000 		.ascii	"mbp\000"
 2351 0be5 01       		.byte	0x1
 2352 0be6 6F01     		.2byte	0x16f
 2353 0be8 B8040000 		.4byte	0x4b8
 2354 0bec DF050000 		.4byte	.LLST41
 2355 0bf0 2E       		.uleb128 0x2e
 2356 0bf1 9A020000 		.4byte	.LASF78
 2357 0bf5 01       		.byte	0x1
 2358 0bf6 6F01     		.2byte	0x16f
 2359 0bf8 17040000 		.4byte	0x417
 2360 0bfc 0B060000 		.4byte	.LLST42
 2361 0c00 21       		.uleb128 0x21
 2362 0c01 0A000000 		.4byte	.LVL76
 2363 0c05 BB0C0000 		.4byte	0xcbb
 2364 0c09 1B       		.uleb128 0x1b
 2365 0c0a 36000000 		.4byte	.LVL77
 2366 0c0e 890C0000 		.4byte	0xc89
 2367 0c12 1D0C0000 		.4byte	0xc1d
 2368 0c16 1C       		.uleb128 0x1c
ARM GAS  /tmp/cc2eAqjR.s 			page 43


 2369 0c17 01       		.uleb128 0x1
 2370 0c18 50       		.byte	0x50
 2371 0c19 02       		.uleb128 0x2
 2372 0c1a 74       		.byte	0x74
 2373 0c1b 1C       		.sleb128 28
 2374 0c1c 00       		.byte	0
 2375 0c1d 1E       		.uleb128 0x1e
 2376 0c1e 40000000 		.4byte	.LVL79
 2377 0c22 4D0C0000 		.4byte	0xc4d
 2378 0c26 1C       		.uleb128 0x1c
 2379 0c27 01       		.uleb128 0x1
 2380 0c28 50       		.byte	0x50
 2381 0c29 05       		.uleb128 0x5
 2382 0c2a 03       		.byte	0x3
 2383 0c2b 78000000 		.4byte	.LC7
 2384 0c2f 00       		.byte	0
 2385 0c30 00       		.byte	0
 2386 0c31 31       		.uleb128 0x31
 2387 0c32 01050000 		.4byte	.LASF87
 2388 0c36 08       		.byte	0x8
 2389 0c37 35       		.byte	0x35
 2390 0c38 470C0000 		.4byte	0xc47
 2391 0c3c 32       		.uleb128 0x32
 2392 0c3d 470C0000 		.4byte	0xc47
 2393 0c41 32       		.uleb128 0x32
 2394 0c42 22010000 		.4byte	0x122
 2395 0c46 00       		.byte	0
 2396 0c47 09       		.uleb128 0x9
 2397 0c48 04       		.byte	0x4
 2398 0c49 79030000 		.4byte	0x379
 2399 0c4d 31       		.uleb128 0x31
 2400 0c4e 13000000 		.4byte	.LASF88
 2401 0c52 0B       		.byte	0xb
 2402 0c53 F6       		.byte	0xf6
 2403 0c54 5E0C0000 		.4byte	0xc5e
 2404 0c58 32       		.uleb128 0x32
 2405 0c59 5D040000 		.4byte	0x45d
 2406 0c5d 00       		.byte	0
 2407 0c5e 33       		.uleb128 0x33
 2408 0c5f FB020000 		.4byte	.LASF90
 2409 0c63 0B       		.byte	0xb
 2410 0c64 E7       		.byte	0xe7
 2411 0c65 31       		.uleb128 0x31
 2412 0c66 C7040000 		.4byte	.LASF89
 2413 0c6a 08       		.byte	0x8
 2414 0c6b 37       		.byte	0x37
 2415 0c6c 7B0C0000 		.4byte	0xc7b
 2416 0c70 32       		.uleb128 0x32
 2417 0c71 470C0000 		.4byte	0xc47
 2418 0c75 32       		.uleb128 0x32
 2419 0c76 22010000 		.4byte	0x122
 2420 0c7a 00       		.byte	0
 2421 0c7b 33       		.uleb128 0x33
 2422 0c7c AB010000 		.4byte	.LASF91
 2423 0c80 0C       		.byte	0xc
 2424 0c81 9C       		.byte	0x9c
 2425 0c82 33       		.uleb128 0x33
ARM GAS  /tmp/cc2eAqjR.s 			page 44


 2426 0c83 AA020000 		.4byte	.LASF92
 2427 0c87 0B       		.byte	0xb
 2428 0c88 E8       		.byte	0xe8
 2429 0c89 31       		.uleb128 0x31
 2430 0c8a 06000000 		.4byte	.LASF93
 2431 0c8e 08       		.byte	0x8
 2432 0c8f 3D       		.byte	0x3d
 2433 0c90 9A0C0000 		.4byte	0xc9a
 2434 0c94 32       		.uleb128 0x32
 2435 0c95 470C0000 		.4byte	0xc47
 2436 0c99 00       		.byte	0
 2437 0c9a 33       		.uleb128 0x33
 2438 0c9b 6B020000 		.4byte	.LASF94
 2439 0c9f 0B       		.byte	0xb
 2440 0ca0 EE       		.byte	0xee
 2441 0ca1 34       		.uleb128 0x34
 2442 0ca2 42040000 		.4byte	.LASF95
 2443 0ca6 08       		.byte	0x8
 2444 0ca7 3B       		.byte	0x3b
 2445 0ca8 01010000 		.4byte	0x101
 2446 0cac BB0C0000 		.4byte	0xcbb
 2447 0cb0 32       		.uleb128 0x32
 2448 0cb1 470C0000 		.4byte	0xc47
 2449 0cb5 32       		.uleb128 0x32
 2450 0cb6 17010000 		.4byte	0x117
 2451 0cba 00       		.byte	0
 2452 0cbb 33       		.uleb128 0x33
 2453 0cbc 47020000 		.4byte	.LASF96
 2454 0cc0 0B       		.byte	0xb
 2455 0cc1 ED       		.byte	0xed
 2456 0cc2 00       		.byte	0
 2457              		.section	.debug_abbrev,"",%progbits
 2458              	.Ldebug_abbrev0:
 2459 0000 01       		.uleb128 0x1
 2460 0001 11       		.uleb128 0x11
 2461 0002 01       		.byte	0x1
 2462 0003 25       		.uleb128 0x25
 2463 0004 0E       		.uleb128 0xe
 2464 0005 13       		.uleb128 0x13
 2465 0006 0B       		.uleb128 0xb
 2466 0007 03       		.uleb128 0x3
 2467 0008 0E       		.uleb128 0xe
 2468 0009 1B       		.uleb128 0x1b
 2469 000a 0E       		.uleb128 0xe
 2470 000b 55       		.uleb128 0x55
 2471 000c 17       		.uleb128 0x17
 2472 000d 11       		.uleb128 0x11
 2473 000e 01       		.uleb128 0x1
 2474 000f 10       		.uleb128 0x10
 2475 0010 17       		.uleb128 0x17
 2476 0011 00       		.byte	0
 2477 0012 00       		.byte	0
 2478 0013 02       		.uleb128 0x2
 2479 0014 24       		.uleb128 0x24
 2480 0015 00       		.byte	0
 2481 0016 0B       		.uleb128 0xb
 2482 0017 0B       		.uleb128 0xb
ARM GAS  /tmp/cc2eAqjR.s 			page 45


 2483 0018 3E       		.uleb128 0x3e
 2484 0019 0B       		.uleb128 0xb
 2485 001a 03       		.uleb128 0x3
 2486 001b 08       		.uleb128 0x8
 2487 001c 00       		.byte	0
 2488 001d 00       		.byte	0
 2489 001e 03       		.uleb128 0x3
 2490 001f 24       		.uleb128 0x24
 2491 0020 00       		.byte	0
 2492 0021 0B       		.uleb128 0xb
 2493 0022 0B       		.uleb128 0xb
 2494 0023 3E       		.uleb128 0x3e
 2495 0024 0B       		.uleb128 0xb
 2496 0025 03       		.uleb128 0x3
 2497 0026 0E       		.uleb128 0xe
 2498 0027 00       		.byte	0
 2499 0028 00       		.byte	0
 2500 0029 04       		.uleb128 0x4
 2501 002a 16       		.uleb128 0x16
 2502 002b 00       		.byte	0
 2503 002c 03       		.uleb128 0x3
 2504 002d 0E       		.uleb128 0xe
 2505 002e 3A       		.uleb128 0x3a
 2506 002f 0B       		.uleb128 0xb
 2507 0030 3B       		.uleb128 0x3b
 2508 0031 0B       		.uleb128 0xb
 2509 0032 49       		.uleb128 0x49
 2510 0033 13       		.uleb128 0x13
 2511 0034 00       		.byte	0
 2512 0035 00       		.byte	0
 2513 0036 05       		.uleb128 0x5
 2514 0037 13       		.uleb128 0x13
 2515 0038 01       		.byte	0x1
 2516 0039 03       		.uleb128 0x3
 2517 003a 0E       		.uleb128 0xe
 2518 003b 0B       		.uleb128 0xb
 2519 003c 0B       		.uleb128 0xb
 2520 003d 3A       		.uleb128 0x3a
 2521 003e 0B       		.uleb128 0xb
 2522 003f 3B       		.uleb128 0x3b
 2523 0040 0B       		.uleb128 0xb
 2524 0041 01       		.uleb128 0x1
 2525 0042 13       		.uleb128 0x13
 2526 0043 00       		.byte	0
 2527 0044 00       		.byte	0
 2528 0045 06       		.uleb128 0x6
 2529 0046 0D       		.uleb128 0xd
 2530 0047 00       		.byte	0
 2531 0048 03       		.uleb128 0x3
 2532 0049 0E       		.uleb128 0xe
 2533 004a 3A       		.uleb128 0x3a
 2534 004b 0B       		.uleb128 0xb
 2535 004c 3B       		.uleb128 0x3b
 2536 004d 0B       		.uleb128 0xb
 2537 004e 49       		.uleb128 0x49
 2538 004f 13       		.uleb128 0x13
 2539 0050 38       		.uleb128 0x38
ARM GAS  /tmp/cc2eAqjR.s 			page 46


 2540 0051 0B       		.uleb128 0xb
 2541 0052 00       		.byte	0
 2542 0053 00       		.byte	0
 2543 0054 07       		.uleb128 0x7
 2544 0055 0D       		.uleb128 0xd
 2545 0056 00       		.byte	0
 2546 0057 03       		.uleb128 0x3
 2547 0058 08       		.uleb128 0x8
 2548 0059 3A       		.uleb128 0x3a
 2549 005a 0B       		.uleb128 0xb
 2550 005b 3B       		.uleb128 0x3b
 2551 005c 0B       		.uleb128 0xb
 2552 005d 49       		.uleb128 0x49
 2553 005e 13       		.uleb128 0x13
 2554 005f 38       		.uleb128 0x38
 2555 0060 0B       		.uleb128 0xb
 2556 0061 00       		.byte	0
 2557 0062 00       		.byte	0
 2558 0063 08       		.uleb128 0x8
 2559 0064 13       		.uleb128 0x13
 2560 0065 01       		.byte	0x1
 2561 0066 0B       		.uleb128 0xb
 2562 0067 0B       		.uleb128 0xb
 2563 0068 3A       		.uleb128 0x3a
 2564 0069 0B       		.uleb128 0xb
 2565 006a 3B       		.uleb128 0x3b
 2566 006b 0B       		.uleb128 0xb
 2567 006c 01       		.uleb128 0x1
 2568 006d 13       		.uleb128 0x13
 2569 006e 00       		.byte	0
 2570 006f 00       		.byte	0
 2571 0070 09       		.uleb128 0x9
 2572 0071 0F       		.uleb128 0xf
 2573 0072 00       		.byte	0
 2574 0073 0B       		.uleb128 0xb
 2575 0074 0B       		.uleb128 0xb
 2576 0075 49       		.uleb128 0x49
 2577 0076 13       		.uleb128 0x13
 2578 0077 00       		.byte	0
 2579 0078 00       		.byte	0
 2580 0079 0A       		.uleb128 0xa
 2581 007a 0F       		.uleb128 0xf
 2582 007b 00       		.byte	0
 2583 007c 0B       		.uleb128 0xb
 2584 007d 0B       		.uleb128 0xb
 2585 007e 00       		.byte	0
 2586 007f 00       		.byte	0
 2587 0080 0B       		.uleb128 0xb
 2588 0081 13       		.uleb128 0x13
 2589 0082 01       		.byte	0x1
 2590 0083 03       		.uleb128 0x3
 2591 0084 0E       		.uleb128 0xe
 2592 0085 0B       		.uleb128 0xb
 2593 0086 0B       		.uleb128 0xb
 2594 0087 3A       		.uleb128 0x3a
 2595 0088 0B       		.uleb128 0xb
 2596 0089 3B       		.uleb128 0x3b
ARM GAS  /tmp/cc2eAqjR.s 			page 47


 2597 008a 05       		.uleb128 0x5
 2598 008b 01       		.uleb128 0x1
 2599 008c 13       		.uleb128 0x13
 2600 008d 00       		.byte	0
 2601 008e 00       		.byte	0
 2602 008f 0C       		.uleb128 0xc
 2603 0090 0D       		.uleb128 0xd
 2604 0091 00       		.byte	0
 2605 0092 03       		.uleb128 0x3
 2606 0093 08       		.uleb128 0x8
 2607 0094 3A       		.uleb128 0x3a
 2608 0095 0B       		.uleb128 0xb
 2609 0096 3B       		.uleb128 0x3b
 2610 0097 05       		.uleb128 0x5
 2611 0098 49       		.uleb128 0x49
 2612 0099 13       		.uleb128 0x13
 2613 009a 38       		.uleb128 0x38
 2614 009b 0B       		.uleb128 0xb
 2615 009c 00       		.byte	0
 2616 009d 00       		.byte	0
 2617 009e 0D       		.uleb128 0xd
 2618 009f 35       		.uleb128 0x35
 2619 00a0 00       		.byte	0
 2620 00a1 49       		.uleb128 0x49
 2621 00a2 13       		.uleb128 0x13
 2622 00a3 00       		.byte	0
 2623 00a4 00       		.byte	0
 2624 00a5 0E       		.uleb128 0xe
 2625 00a6 17       		.uleb128 0x17
 2626 00a7 01       		.byte	0x1
 2627 00a8 0B       		.uleb128 0xb
 2628 00a9 0B       		.uleb128 0xb
 2629 00aa 3A       		.uleb128 0x3a
 2630 00ab 0B       		.uleb128 0xb
 2631 00ac 3B       		.uleb128 0x3b
 2632 00ad 0B       		.uleb128 0xb
 2633 00ae 01       		.uleb128 0x1
 2634 00af 13       		.uleb128 0x13
 2635 00b0 00       		.byte	0
 2636 00b1 00       		.byte	0
 2637 00b2 0F       		.uleb128 0xf
 2638 00b3 0D       		.uleb128 0xd
 2639 00b4 00       		.byte	0
 2640 00b5 03       		.uleb128 0x3
 2641 00b6 0E       		.uleb128 0xe
 2642 00b7 3A       		.uleb128 0x3a
 2643 00b8 0B       		.uleb128 0xb
 2644 00b9 3B       		.uleb128 0x3b
 2645 00ba 0B       		.uleb128 0xb
 2646 00bb 49       		.uleb128 0x49
 2647 00bc 13       		.uleb128 0x13
 2648 00bd 00       		.byte	0
 2649 00be 00       		.byte	0
 2650 00bf 10       		.uleb128 0x10
 2651 00c0 26       		.uleb128 0x26
 2652 00c1 00       		.byte	0
 2653 00c2 49       		.uleb128 0x49
ARM GAS  /tmp/cc2eAqjR.s 			page 48


 2654 00c3 13       		.uleb128 0x13
 2655 00c4 00       		.byte	0
 2656 00c5 00       		.byte	0
 2657 00c6 11       		.uleb128 0x11
 2658 00c7 2E       		.uleb128 0x2e
 2659 00c8 01       		.byte	0x1
 2660 00c9 3F       		.uleb128 0x3f
 2661 00ca 19       		.uleb128 0x19
 2662 00cb 03       		.uleb128 0x3
 2663 00cc 0E       		.uleb128 0xe
 2664 00cd 3A       		.uleb128 0x3a
 2665 00ce 0B       		.uleb128 0xb
 2666 00cf 3B       		.uleb128 0x3b
 2667 00d0 0B       		.uleb128 0xb
 2668 00d1 27       		.uleb128 0x27
 2669 00d2 19       		.uleb128 0x19
 2670 00d3 49       		.uleb128 0x49
 2671 00d4 13       		.uleb128 0x13
 2672 00d5 20       		.uleb128 0x20
 2673 00d6 0B       		.uleb128 0xb
 2674 00d7 01       		.uleb128 0x1
 2675 00d8 13       		.uleb128 0x13
 2676 00d9 00       		.byte	0
 2677 00da 00       		.byte	0
 2678 00db 12       		.uleb128 0x12
 2679 00dc 05       		.uleb128 0x5
 2680 00dd 00       		.byte	0
 2681 00de 03       		.uleb128 0x3
 2682 00df 08       		.uleb128 0x8
 2683 00e0 3A       		.uleb128 0x3a
 2684 00e1 0B       		.uleb128 0xb
 2685 00e2 3B       		.uleb128 0x3b
 2686 00e3 0B       		.uleb128 0xb
 2687 00e4 49       		.uleb128 0x49
 2688 00e5 13       		.uleb128 0x13
 2689 00e6 00       		.byte	0
 2690 00e7 00       		.byte	0
 2691 00e8 13       		.uleb128 0x13
 2692 00e9 05       		.uleb128 0x5
 2693 00ea 00       		.byte	0
 2694 00eb 03       		.uleb128 0x3
 2695 00ec 0E       		.uleb128 0xe
 2696 00ed 3A       		.uleb128 0x3a
 2697 00ee 0B       		.uleb128 0xb
 2698 00ef 3B       		.uleb128 0x3b
 2699 00f0 0B       		.uleb128 0xb
 2700 00f1 49       		.uleb128 0x49
 2701 00f2 13       		.uleb128 0x13
 2702 00f3 00       		.byte	0
 2703 00f4 00       		.byte	0
 2704 00f5 14       		.uleb128 0x14
 2705 00f6 34       		.uleb128 0x34
 2706 00f7 00       		.byte	0
 2707 00f8 03       		.uleb128 0x3
 2708 00f9 0E       		.uleb128 0xe
 2709 00fa 3A       		.uleb128 0x3a
 2710 00fb 0B       		.uleb128 0xb
ARM GAS  /tmp/cc2eAqjR.s 			page 49


 2711 00fc 3B       		.uleb128 0x3b
 2712 00fd 0B       		.uleb128 0xb
 2713 00fe 49       		.uleb128 0x49
 2714 00ff 13       		.uleb128 0x13
 2715 0100 00       		.byte	0
 2716 0101 00       		.byte	0
 2717 0102 15       		.uleb128 0x15
 2718 0103 2E       		.uleb128 0x2e
 2719 0104 01       		.byte	0x1
 2720 0105 3F       		.uleb128 0x3f
 2721 0106 19       		.uleb128 0x19
 2722 0107 03       		.uleb128 0x3
 2723 0108 0E       		.uleb128 0xe
 2724 0109 3A       		.uleb128 0x3a
 2725 010a 0B       		.uleb128 0xb
 2726 010b 3B       		.uleb128 0x3b
 2727 010c 05       		.uleb128 0x5
 2728 010d 27       		.uleb128 0x27
 2729 010e 19       		.uleb128 0x19
 2730 010f 49       		.uleb128 0x49
 2731 0110 13       		.uleb128 0x13
 2732 0111 20       		.uleb128 0x20
 2733 0112 0B       		.uleb128 0xb
 2734 0113 01       		.uleb128 0x1
 2735 0114 13       		.uleb128 0x13
 2736 0115 00       		.byte	0
 2737 0116 00       		.byte	0
 2738 0117 16       		.uleb128 0x16
 2739 0118 05       		.uleb128 0x5
 2740 0119 00       		.byte	0
 2741 011a 03       		.uleb128 0x3
 2742 011b 08       		.uleb128 0x8
 2743 011c 3A       		.uleb128 0x3a
 2744 011d 0B       		.uleb128 0xb
 2745 011e 3B       		.uleb128 0x3b
 2746 011f 05       		.uleb128 0x5
 2747 0120 49       		.uleb128 0x49
 2748 0121 13       		.uleb128 0x13
 2749 0122 00       		.byte	0
 2750 0123 00       		.byte	0
 2751 0124 17       		.uleb128 0x17
 2752 0125 05       		.uleb128 0x5
 2753 0126 00       		.byte	0
 2754 0127 03       		.uleb128 0x3
 2755 0128 0E       		.uleb128 0xe
 2756 0129 3A       		.uleb128 0x3a
 2757 012a 0B       		.uleb128 0xb
 2758 012b 3B       		.uleb128 0x3b
 2759 012c 05       		.uleb128 0x5
 2760 012d 49       		.uleb128 0x49
 2761 012e 13       		.uleb128 0x13
 2762 012f 00       		.byte	0
 2763 0130 00       		.byte	0
 2764 0131 18       		.uleb128 0x18
 2765 0132 34       		.uleb128 0x34
 2766 0133 00       		.byte	0
 2767 0134 03       		.uleb128 0x3
ARM GAS  /tmp/cc2eAqjR.s 			page 50


 2768 0135 0E       		.uleb128 0xe
 2769 0136 3A       		.uleb128 0x3a
 2770 0137 0B       		.uleb128 0xb
 2771 0138 3B       		.uleb128 0x3b
 2772 0139 05       		.uleb128 0x5
 2773 013a 49       		.uleb128 0x49
 2774 013b 13       		.uleb128 0x13
 2775 013c 00       		.byte	0
 2776 013d 00       		.byte	0
 2777 013e 19       		.uleb128 0x19
 2778 013f 2E       		.uleb128 0x2e
 2779 0140 01       		.byte	0x1
 2780 0141 3F       		.uleb128 0x3f
 2781 0142 19       		.uleb128 0x19
 2782 0143 03       		.uleb128 0x3
 2783 0144 0E       		.uleb128 0xe
 2784 0145 3A       		.uleb128 0x3a
 2785 0146 0B       		.uleb128 0xb
 2786 0147 3B       		.uleb128 0x3b
 2787 0148 0B       		.uleb128 0xb
 2788 0149 27       		.uleb128 0x27
 2789 014a 19       		.uleb128 0x19
 2790 014b 11       		.uleb128 0x11
 2791 014c 01       		.uleb128 0x1
 2792 014d 12       		.uleb128 0x12
 2793 014e 06       		.uleb128 0x6
 2794 014f 40       		.uleb128 0x40
 2795 0150 18       		.uleb128 0x18
 2796 0151 9742     		.uleb128 0x2117
 2797 0153 19       		.uleb128 0x19
 2798 0154 01       		.uleb128 0x1
 2799 0155 13       		.uleb128 0x13
 2800 0156 00       		.byte	0
 2801 0157 00       		.byte	0
 2802 0158 1A       		.uleb128 0x1a
 2803 0159 05       		.uleb128 0x5
 2804 015a 00       		.byte	0
 2805 015b 03       		.uleb128 0x3
 2806 015c 08       		.uleb128 0x8
 2807 015d 3A       		.uleb128 0x3a
 2808 015e 0B       		.uleb128 0xb
 2809 015f 3B       		.uleb128 0x3b
 2810 0160 0B       		.uleb128 0xb
 2811 0161 49       		.uleb128 0x49
 2812 0162 13       		.uleb128 0x13
 2813 0163 02       		.uleb128 0x2
 2814 0164 17       		.uleb128 0x17
 2815 0165 00       		.byte	0
 2816 0166 00       		.byte	0
 2817 0167 1B       		.uleb128 0x1b
 2818 0168 898201   		.uleb128 0x4109
 2819 016b 01       		.byte	0x1
 2820 016c 11       		.uleb128 0x11
 2821 016d 01       		.uleb128 0x1
 2822 016e 31       		.uleb128 0x31
 2823 016f 13       		.uleb128 0x13
 2824 0170 01       		.uleb128 0x1
ARM GAS  /tmp/cc2eAqjR.s 			page 51


 2825 0171 13       		.uleb128 0x13
 2826 0172 00       		.byte	0
 2827 0173 00       		.byte	0
 2828 0174 1C       		.uleb128 0x1c
 2829 0175 8A8201   		.uleb128 0x410a
 2830 0178 00       		.byte	0
 2831 0179 02       		.uleb128 0x2
 2832 017a 18       		.uleb128 0x18
 2833 017b 9142     		.uleb128 0x2111
 2834 017d 18       		.uleb128 0x18
 2835 017e 00       		.byte	0
 2836 017f 00       		.byte	0
 2837 0180 1D       		.uleb128 0x1d
 2838 0181 898201   		.uleb128 0x4109
 2839 0184 01       		.byte	0x1
 2840 0185 11       		.uleb128 0x11
 2841 0186 01       		.uleb128 0x1
 2842 0187 9542     		.uleb128 0x2115
 2843 0189 19       		.uleb128 0x19
 2844 018a 31       		.uleb128 0x31
 2845 018b 13       		.uleb128 0x13
 2846 018c 01       		.uleb128 0x1
 2847 018d 13       		.uleb128 0x13
 2848 018e 00       		.byte	0
 2849 018f 00       		.byte	0
 2850 0190 1E       		.uleb128 0x1e
 2851 0191 898201   		.uleb128 0x4109
 2852 0194 01       		.byte	0x1
 2853 0195 11       		.uleb128 0x11
 2854 0196 01       		.uleb128 0x1
 2855 0197 31       		.uleb128 0x31
 2856 0198 13       		.uleb128 0x13
 2857 0199 00       		.byte	0
 2858 019a 00       		.byte	0
 2859 019b 1F       		.uleb128 0x1f
 2860 019c 0B       		.uleb128 0xb
 2861 019d 01       		.byte	0x1
 2862 019e 11       		.uleb128 0x11
 2863 019f 01       		.uleb128 0x1
 2864 01a0 12       		.uleb128 0x12
 2865 01a1 06       		.uleb128 0x6
 2866 01a2 01       		.uleb128 0x1
 2867 01a3 13       		.uleb128 0x13
 2868 01a4 00       		.byte	0
 2869 01a5 00       		.byte	0
 2870 01a6 20       		.uleb128 0x20
 2871 01a7 34       		.uleb128 0x34
 2872 01a8 00       		.byte	0
 2873 01a9 03       		.uleb128 0x3
 2874 01aa 08       		.uleb128 0x8
 2875 01ab 3A       		.uleb128 0x3a
 2876 01ac 0B       		.uleb128 0xb
 2877 01ad 3B       		.uleb128 0x3b
 2878 01ae 0B       		.uleb128 0xb
 2879 01af 49       		.uleb128 0x49
 2880 01b0 13       		.uleb128 0x13
 2881 01b1 02       		.uleb128 0x2
ARM GAS  /tmp/cc2eAqjR.s 			page 52


 2882 01b2 18       		.uleb128 0x18
 2883 01b3 00       		.byte	0
 2884 01b4 00       		.byte	0
 2885 01b5 21       		.uleb128 0x21
 2886 01b6 898201   		.uleb128 0x4109
 2887 01b9 00       		.byte	0
 2888 01ba 11       		.uleb128 0x11
 2889 01bb 01       		.uleb128 0x1
 2890 01bc 31       		.uleb128 0x31
 2891 01bd 13       		.uleb128 0x13
 2892 01be 00       		.byte	0
 2893 01bf 00       		.byte	0
 2894 01c0 22       		.uleb128 0x22
 2895 01c1 2E       		.uleb128 0x2e
 2896 01c2 01       		.byte	0x1
 2897 01c3 31       		.uleb128 0x31
 2898 01c4 13       		.uleb128 0x13
 2899 01c5 11       		.uleb128 0x11
 2900 01c6 01       		.uleb128 0x1
 2901 01c7 12       		.uleb128 0x12
 2902 01c8 06       		.uleb128 0x6
 2903 01c9 40       		.uleb128 0x40
 2904 01ca 18       		.uleb128 0x18
 2905 01cb 9742     		.uleb128 0x2117
 2906 01cd 19       		.uleb128 0x19
 2907 01ce 01       		.uleb128 0x1
 2908 01cf 13       		.uleb128 0x13
 2909 01d0 00       		.byte	0
 2910 01d1 00       		.byte	0
 2911 01d2 23       		.uleb128 0x23
 2912 01d3 05       		.uleb128 0x5
 2913 01d4 00       		.byte	0
 2914 01d5 31       		.uleb128 0x31
 2915 01d6 13       		.uleb128 0x13
 2916 01d7 02       		.uleb128 0x2
 2917 01d8 17       		.uleb128 0x17
 2918 01d9 00       		.byte	0
 2919 01da 00       		.byte	0
 2920 01db 24       		.uleb128 0x24
 2921 01dc 34       		.uleb128 0x34
 2922 01dd 00       		.byte	0
 2923 01de 31       		.uleb128 0x31
 2924 01df 13       		.uleb128 0x13
 2925 01e0 02       		.uleb128 0x2
 2926 01e1 17       		.uleb128 0x17
 2927 01e2 00       		.byte	0
 2928 01e3 00       		.byte	0
 2929 01e4 25       		.uleb128 0x25
 2930 01e5 0B       		.uleb128 0xb
 2931 01e6 01       		.byte	0x1
 2932 01e7 11       		.uleb128 0x11
 2933 01e8 01       		.uleb128 0x1
 2934 01e9 12       		.uleb128 0x12
 2935 01ea 06       		.uleb128 0x6
 2936 01eb 00       		.byte	0
 2937 01ec 00       		.byte	0
 2938 01ed 26       		.uleb128 0x26
ARM GAS  /tmp/cc2eAqjR.s 			page 53


 2939 01ee 34       		.uleb128 0x34
 2940 01ef 00       		.byte	0
 2941 01f0 31       		.uleb128 0x31
 2942 01f1 13       		.uleb128 0x13
 2943 01f2 00       		.byte	0
 2944 01f3 00       		.byte	0
 2945 01f4 27       		.uleb128 0x27
 2946 01f5 2E       		.uleb128 0x2e
 2947 01f6 01       		.byte	0x1
 2948 01f7 3F       		.uleb128 0x3f
 2949 01f8 19       		.uleb128 0x19
 2950 01f9 03       		.uleb128 0x3
 2951 01fa 0E       		.uleb128 0xe
 2952 01fb 3A       		.uleb128 0x3a
 2953 01fc 0B       		.uleb128 0xb
 2954 01fd 3B       		.uleb128 0x3b
 2955 01fe 0B       		.uleb128 0xb
 2956 01ff 27       		.uleb128 0x27
 2957 0200 19       		.uleb128 0x19
 2958 0201 49       		.uleb128 0x49
 2959 0202 13       		.uleb128 0x13
 2960 0203 11       		.uleb128 0x11
 2961 0204 01       		.uleb128 0x1
 2962 0205 12       		.uleb128 0x12
 2963 0206 06       		.uleb128 0x6
 2964 0207 40       		.uleb128 0x40
 2965 0208 18       		.uleb128 0x18
 2966 0209 9742     		.uleb128 0x2117
 2967 020b 19       		.uleb128 0x19
 2968 020c 01       		.uleb128 0x1
 2969 020d 13       		.uleb128 0x13
 2970 020e 00       		.byte	0
 2971 020f 00       		.byte	0
 2972 0210 28       		.uleb128 0x28
 2973 0211 05       		.uleb128 0x5
 2974 0212 00       		.byte	0
 2975 0213 03       		.uleb128 0x3
 2976 0214 0E       		.uleb128 0xe
 2977 0215 3A       		.uleb128 0x3a
 2978 0216 0B       		.uleb128 0xb
 2979 0217 3B       		.uleb128 0x3b
 2980 0218 0B       		.uleb128 0xb
 2981 0219 49       		.uleb128 0x49
 2982 021a 13       		.uleb128 0x13
 2983 021b 02       		.uleb128 0x2
 2984 021c 17       		.uleb128 0x17
 2985 021d 00       		.byte	0
 2986 021e 00       		.byte	0
 2987 021f 29       		.uleb128 0x29
 2988 0220 34       		.uleb128 0x34
 2989 0221 00       		.byte	0
 2990 0222 03       		.uleb128 0x3
 2991 0223 0E       		.uleb128 0xe
 2992 0224 3A       		.uleb128 0x3a
 2993 0225 0B       		.uleb128 0xb
 2994 0226 3B       		.uleb128 0x3b
 2995 0227 0B       		.uleb128 0xb
ARM GAS  /tmp/cc2eAqjR.s 			page 54


 2996 0228 49       		.uleb128 0x49
 2997 0229 13       		.uleb128 0x13
 2998 022a 02       		.uleb128 0x2
 2999 022b 17       		.uleb128 0x17
 3000 022c 00       		.byte	0
 3001 022d 00       		.byte	0
 3002 022e 2A       		.uleb128 0x2a
 3003 022f 0B       		.uleb128 0xb
 3004 0230 01       		.byte	0x1
 3005 0231 55       		.uleb128 0x55
 3006 0232 17       		.uleb128 0x17
 3007 0233 01       		.uleb128 0x1
 3008 0234 13       		.uleb128 0x13
 3009 0235 00       		.byte	0
 3010 0236 00       		.byte	0
 3011 0237 2B       		.uleb128 0x2b
 3012 0238 0B       		.uleb128 0xb
 3013 0239 01       		.byte	0x1
 3014 023a 55       		.uleb128 0x55
 3015 023b 17       		.uleb128 0x17
 3016 023c 00       		.byte	0
 3017 023d 00       		.byte	0
 3018 023e 2C       		.uleb128 0x2c
 3019 023f 2E       		.uleb128 0x2e
 3020 0240 01       		.byte	0x1
 3021 0241 3F       		.uleb128 0x3f
 3022 0242 19       		.uleb128 0x19
 3023 0243 03       		.uleb128 0x3
 3024 0244 0E       		.uleb128 0xe
 3025 0245 3A       		.uleb128 0x3a
 3026 0246 0B       		.uleb128 0xb
 3027 0247 3B       		.uleb128 0x3b
 3028 0248 05       		.uleb128 0x5
 3029 0249 27       		.uleb128 0x27
 3030 024a 19       		.uleb128 0x19
 3031 024b 49       		.uleb128 0x49
 3032 024c 13       		.uleb128 0x13
 3033 024d 11       		.uleb128 0x11
 3034 024e 01       		.uleb128 0x1
 3035 024f 12       		.uleb128 0x12
 3036 0250 06       		.uleb128 0x6
 3037 0251 40       		.uleb128 0x40
 3038 0252 18       		.uleb128 0x18
 3039 0253 9742     		.uleb128 0x2117
 3040 0255 19       		.uleb128 0x19
 3041 0256 01       		.uleb128 0x1
 3042 0257 13       		.uleb128 0x13
 3043 0258 00       		.byte	0
 3044 0259 00       		.byte	0
 3045 025a 2D       		.uleb128 0x2d
 3046 025b 05       		.uleb128 0x5
 3047 025c 00       		.byte	0
 3048 025d 03       		.uleb128 0x3
 3049 025e 08       		.uleb128 0x8
 3050 025f 3A       		.uleb128 0x3a
 3051 0260 0B       		.uleb128 0xb
 3052 0261 3B       		.uleb128 0x3b
ARM GAS  /tmp/cc2eAqjR.s 			page 55


 3053 0262 05       		.uleb128 0x5
 3054 0263 49       		.uleb128 0x49
 3055 0264 13       		.uleb128 0x13
 3056 0265 02       		.uleb128 0x2
 3057 0266 17       		.uleb128 0x17
 3058 0267 00       		.byte	0
 3059 0268 00       		.byte	0
 3060 0269 2E       		.uleb128 0x2e
 3061 026a 05       		.uleb128 0x5
 3062 026b 00       		.byte	0
 3063 026c 03       		.uleb128 0x3
 3064 026d 0E       		.uleb128 0xe
 3065 026e 3A       		.uleb128 0x3a
 3066 026f 0B       		.uleb128 0xb
 3067 0270 3B       		.uleb128 0x3b
 3068 0271 05       		.uleb128 0x5
 3069 0272 49       		.uleb128 0x49
 3070 0273 13       		.uleb128 0x13
 3071 0274 02       		.uleb128 0x2
 3072 0275 17       		.uleb128 0x17
 3073 0276 00       		.byte	0
 3074 0277 00       		.byte	0
 3075 0278 2F       		.uleb128 0x2f
 3076 0279 34       		.uleb128 0x34
 3077 027a 00       		.byte	0
 3078 027b 03       		.uleb128 0x3
 3079 027c 0E       		.uleb128 0xe
 3080 027d 3A       		.uleb128 0x3a
 3081 027e 0B       		.uleb128 0xb
 3082 027f 3B       		.uleb128 0x3b
 3083 0280 05       		.uleb128 0x5
 3084 0281 49       		.uleb128 0x49
 3085 0282 13       		.uleb128 0x13
 3086 0283 02       		.uleb128 0x2
 3087 0284 17       		.uleb128 0x17
 3088 0285 00       		.byte	0
 3089 0286 00       		.byte	0
 3090 0287 30       		.uleb128 0x30
 3091 0288 34       		.uleb128 0x34
 3092 0289 00       		.byte	0
 3093 028a 03       		.uleb128 0x3
 3094 028b 08       		.uleb128 0x8
 3095 028c 3A       		.uleb128 0x3a
 3096 028d 0B       		.uleb128 0xb
 3097 028e 3B       		.uleb128 0x3b
 3098 028f 05       		.uleb128 0x5
 3099 0290 49       		.uleb128 0x49
 3100 0291 13       		.uleb128 0x13
 3101 0292 02       		.uleb128 0x2
 3102 0293 18       		.uleb128 0x18
 3103 0294 00       		.byte	0
 3104 0295 00       		.byte	0
 3105 0296 31       		.uleb128 0x31
 3106 0297 2E       		.uleb128 0x2e
 3107 0298 01       		.byte	0x1
 3108 0299 3F       		.uleb128 0x3f
 3109 029a 19       		.uleb128 0x19
ARM GAS  /tmp/cc2eAqjR.s 			page 56


 3110 029b 03       		.uleb128 0x3
 3111 029c 0E       		.uleb128 0xe
 3112 029d 3A       		.uleb128 0x3a
 3113 029e 0B       		.uleb128 0xb
 3114 029f 3B       		.uleb128 0x3b
 3115 02a0 0B       		.uleb128 0xb
 3116 02a1 27       		.uleb128 0x27
 3117 02a2 19       		.uleb128 0x19
 3118 02a3 3C       		.uleb128 0x3c
 3119 02a4 19       		.uleb128 0x19
 3120 02a5 01       		.uleb128 0x1
 3121 02a6 13       		.uleb128 0x13
 3122 02a7 00       		.byte	0
 3123 02a8 00       		.byte	0
 3124 02a9 32       		.uleb128 0x32
 3125 02aa 05       		.uleb128 0x5
 3126 02ab 00       		.byte	0
 3127 02ac 49       		.uleb128 0x49
 3128 02ad 13       		.uleb128 0x13
 3129 02ae 00       		.byte	0
 3130 02af 00       		.byte	0
 3131 02b0 33       		.uleb128 0x33
 3132 02b1 2E       		.uleb128 0x2e
 3133 02b2 00       		.byte	0
 3134 02b3 3F       		.uleb128 0x3f
 3135 02b4 19       		.uleb128 0x19
 3136 02b5 03       		.uleb128 0x3
 3137 02b6 0E       		.uleb128 0xe
 3138 02b7 3A       		.uleb128 0x3a
 3139 02b8 0B       		.uleb128 0xb
 3140 02b9 3B       		.uleb128 0x3b
 3141 02ba 0B       		.uleb128 0xb
 3142 02bb 27       		.uleb128 0x27
 3143 02bc 19       		.uleb128 0x19
 3144 02bd 3C       		.uleb128 0x3c
 3145 02be 19       		.uleb128 0x19
 3146 02bf 00       		.byte	0
 3147 02c0 00       		.byte	0
 3148 02c1 34       		.uleb128 0x34
 3149 02c2 2E       		.uleb128 0x2e
 3150 02c3 01       		.byte	0x1
 3151 02c4 3F       		.uleb128 0x3f
 3152 02c5 19       		.uleb128 0x19
 3153 02c6 03       		.uleb128 0x3
 3154 02c7 0E       		.uleb128 0xe
 3155 02c8 3A       		.uleb128 0x3a
 3156 02c9 0B       		.uleb128 0xb
 3157 02ca 3B       		.uleb128 0x3b
 3158 02cb 0B       		.uleb128 0xb
 3159 02cc 27       		.uleb128 0x27
 3160 02cd 19       		.uleb128 0x19
 3161 02ce 49       		.uleb128 0x49
 3162 02cf 13       		.uleb128 0x13
 3163 02d0 3C       		.uleb128 0x3c
 3164 02d1 19       		.uleb128 0x19
 3165 02d2 01       		.uleb128 0x1
 3166 02d3 13       		.uleb128 0x13
ARM GAS  /tmp/cc2eAqjR.s 			page 57


 3167 02d4 00       		.byte	0
 3168 02d5 00       		.byte	0
 3169 02d6 00       		.byte	0
 3170              		.section	.debug_loc,"",%progbits
 3171              	.Ldebug_loc0:
 3172              	.LLST0:
 3173 0000 00000000 		.4byte	.LVL0
 3174 0004 10000000 		.4byte	.LVL1
 3175 0008 0100     		.2byte	0x1
 3176 000a 50       		.byte	0x50
 3177 000b 10000000 		.4byte	.LVL1
 3178 000f 30000000 		.4byte	.LVL3
 3179 0013 0100     		.2byte	0x1
 3180 0015 54       		.byte	0x54
 3181 0016 30000000 		.4byte	.LVL3
 3182 001a 33000000 		.4byte	.LVL4-1
 3183 001e 0300     		.2byte	0x3
 3184 0020 70       		.byte	0x70
 3185 0021 70       		.sleb128 -16
 3186 0022 9F       		.byte	0x9f
 3187 0023 33000000 		.4byte	.LVL4-1
 3188 0027 34000000 		.4byte	.LVL4
 3189 002b 0400     		.2byte	0x4
 3190 002d F3       		.byte	0xf3
 3191 002e 01       		.uleb128 0x1
 3192 002f 50       		.byte	0x50
 3193 0030 9F       		.byte	0x9f
 3194 0031 34000000 		.4byte	.LVL4
 3195 0035 36000000 		.4byte	.LVL5
 3196 0039 0100     		.2byte	0x1
 3197 003b 50       		.byte	0x50
 3198 003c 36000000 		.4byte	.LVL5
 3199 0040 40000000 		.4byte	.LFE7
 3200 0044 0100     		.2byte	0x1
 3201 0046 54       		.byte	0x54
 3202 0047 00000000 		.4byte	0
 3203 004b 00000000 		.4byte	0
 3204              	.LLST1:
 3205 004f 00000000 		.4byte	.LVL0
 3206 0053 10000000 		.4byte	.LVL1
 3207 0057 0100     		.2byte	0x1
 3208 0059 51       		.byte	0x51
 3209 005a 10000000 		.4byte	.LVL1
 3210 005e 30000000 		.4byte	.LVL3
 3211 0062 0100     		.2byte	0x1
 3212 0064 55       		.byte	0x55
 3213 0065 30000000 		.4byte	.LVL3
 3214 0069 34000000 		.4byte	.LVL4
 3215 006d 0400     		.2byte	0x4
 3216 006f F3       		.byte	0xf3
 3217 0070 01       		.uleb128 0x1
 3218 0071 51       		.byte	0x51
 3219 0072 9F       		.byte	0x9f
 3220 0073 34000000 		.4byte	.LVL4
 3221 0077 39000000 		.4byte	.LVL6-1
 3222 007b 0100     		.2byte	0x1
 3223 007d 51       		.byte	0x51
ARM GAS  /tmp/cc2eAqjR.s 			page 58


 3224 007e 39000000 		.4byte	.LVL6-1
 3225 0082 40000000 		.4byte	.LFE7
 3226 0086 0100     		.2byte	0x1
 3227 0088 55       		.byte	0x55
 3228 0089 00000000 		.4byte	0
 3229 008d 00000000 		.4byte	0
 3230              	.LLST2:
 3231 0091 00000000 		.4byte	.LVL0
 3232 0095 10000000 		.4byte	.LVL1
 3233 0099 0100     		.2byte	0x1
 3234 009b 52       		.byte	0x52
 3235 009c 10000000 		.4byte	.LVL1
 3236 00a0 30000000 		.4byte	.LVL3
 3237 00a4 0100     		.2byte	0x1
 3238 00a6 56       		.byte	0x56
 3239 00a7 30000000 		.4byte	.LVL3
 3240 00ab 34000000 		.4byte	.LVL4
 3241 00af 0400     		.2byte	0x4
 3242 00b1 F3       		.byte	0xf3
 3243 00b2 01       		.uleb128 0x1
 3244 00b3 52       		.byte	0x52
 3245 00b4 9F       		.byte	0x9f
 3246 00b5 34000000 		.4byte	.LVL4
 3247 00b9 39000000 		.4byte	.LVL6-1
 3248 00bd 0100     		.2byte	0x1
 3249 00bf 52       		.byte	0x52
 3250 00c0 39000000 		.4byte	.LVL6-1
 3251 00c4 40000000 		.4byte	.LFE7
 3252 00c8 0100     		.2byte	0x1
 3253 00ca 56       		.byte	0x56
 3254 00cb 00000000 		.4byte	0
 3255 00cf 00000000 		.4byte	0
 3256              	.LLST3:
 3257 00d3 00000000 		.4byte	.LVL7
 3258 00d7 06000000 		.4byte	.LVL8
 3259 00db 0100     		.2byte	0x1
 3260 00dd 50       		.byte	0x50
 3261 00de 06000000 		.4byte	.LVL8
 3262 00e2 3E000000 		.4byte	.LVL14
 3263 00e6 0100     		.2byte	0x1
 3264 00e8 54       		.byte	0x54
 3265 00e9 3E000000 		.4byte	.LVL14
 3266 00ed 40000000 		.4byte	.LVL15
 3267 00f1 0100     		.2byte	0x1
 3268 00f3 50       		.byte	0x50
 3269 00f4 40000000 		.4byte	.LVL15
 3270 00f8 4C000000 		.4byte	.LFE8
 3271 00fc 0100     		.2byte	0x1
 3272 00fe 54       		.byte	0x54
 3273 00ff 00000000 		.4byte	0
 3274 0103 00000000 		.4byte	0
 3275              	.LLST4:
 3276 0107 00000000 		.4byte	.LVL17
 3277 010b 0B000000 		.4byte	.LVL18-1
 3278 010f 0100     		.2byte	0x1
 3279 0111 50       		.byte	0x50
 3280 0112 0B000000 		.4byte	.LVL18-1
ARM GAS  /tmp/cc2eAqjR.s 			page 59


 3281 0116 4C000000 		.4byte	.LFE10
 3282 011a 0100     		.2byte	0x1
 3283 011c 54       		.byte	0x54
 3284 011d 00000000 		.4byte	0
 3285 0121 00000000 		.4byte	0
 3286              	.LLST5:
 3287 0125 00000000 		.4byte	.LVL17
 3288 0129 0B000000 		.4byte	.LVL18-1
 3289 012d 0100     		.2byte	0x1
 3290 012f 51       		.byte	0x51
 3291 0130 0B000000 		.4byte	.LVL18-1
 3292 0134 4C000000 		.4byte	.LFE10
 3293 0138 0100     		.2byte	0x1
 3294 013a 56       		.byte	0x56
 3295 013b 00000000 		.4byte	0
 3296 013f 00000000 		.4byte	0
 3297              	.LLST6:
 3298 0143 00000000 		.4byte	.LVL17
 3299 0147 0B000000 		.4byte	.LVL18-1
 3300 014b 0100     		.2byte	0x1
 3301 014d 52       		.byte	0x52
 3302 014e 0B000000 		.4byte	.LVL18-1
 3303 0152 1A000000 		.4byte	.LVL20
 3304 0156 0100     		.2byte	0x1
 3305 0158 55       		.byte	0x55
 3306 0159 1A000000 		.4byte	.LVL20
 3307 015d 40000000 		.4byte	.LVL25
 3308 0161 0400     		.2byte	0x4
 3309 0163 F3       		.byte	0xf3
 3310 0164 01       		.uleb128 0x1
 3311 0165 52       		.byte	0x52
 3312 0166 9F       		.byte	0x9f
 3313 0167 40000000 		.4byte	.LVL25
 3314 016b 4C000000 		.4byte	.LFE10
 3315 016f 0100     		.2byte	0x1
 3316 0171 55       		.byte	0x55
 3317 0172 00000000 		.4byte	0
 3318 0176 00000000 		.4byte	0
 3319              	.LLST7:
 3320 017a 18000000 		.4byte	.LVL19
 3321 017e 30000000 		.4byte	.LVL22
 3322 0182 0100     		.2byte	0x1
 3323 0184 50       		.byte	0x50
 3324 0185 30000000 		.4byte	.LVL22
 3325 0189 40000000 		.4byte	.LVL25
 3326 018d 0100     		.2byte	0x1
 3327 018f 55       		.byte	0x55
 3328 0190 00000000 		.4byte	0
 3329 0194 00000000 		.4byte	0
 3330              	.LLST8:
 3331 0198 1C000000 		.4byte	.LVL21
 3332 019c 3C000000 		.4byte	.LVL24
 3333 01a0 0400     		.2byte	0x4
 3334 01a2 F3       		.byte	0xf3
 3335 01a3 01       		.uleb128 0x1
 3336 01a4 52       		.byte	0x52
 3337 01a5 9F       		.byte	0x9f
ARM GAS  /tmp/cc2eAqjR.s 			page 60


 3338 01a6 00000000 		.4byte	0
 3339 01aa 00000000 		.4byte	0
 3340              	.LLST9:
 3341 01ae 1C000000 		.4byte	.LVL21
 3342 01b2 3C000000 		.4byte	.LVL24
 3343 01b6 0100     		.2byte	0x1
 3344 01b8 56       		.byte	0x56
 3345 01b9 00000000 		.4byte	0
 3346 01bd 00000000 		.4byte	0
 3347              	.LLST10:
 3348 01c1 1C000000 		.4byte	.LVL21
 3349 01c5 3C000000 		.4byte	.LVL24
 3350 01c9 0100     		.2byte	0x1
 3351 01cb 54       		.byte	0x54
 3352 01cc 00000000 		.4byte	0
 3353 01d0 00000000 		.4byte	0
 3354              	.LLST11:
 3355 01d4 00000000 		.4byte	.LVL27
 3356 01d8 11000000 		.4byte	.LVL28-1
 3357 01dc 0100     		.2byte	0x1
 3358 01de 50       		.byte	0x50
 3359 01df 11000000 		.4byte	.LVL28-1
 3360 01e3 2C000000 		.4byte	.LFE9
 3361 01e7 0100     		.2byte	0x1
 3362 01e9 56       		.byte	0x56
 3363 01ea 00000000 		.4byte	0
 3364 01ee 00000000 		.4byte	0
 3365              	.LLST12:
 3366 01f2 00000000 		.4byte	.LVL27
 3367 01f6 11000000 		.4byte	.LVL28-1
 3368 01fa 0100     		.2byte	0x1
 3369 01fc 51       		.byte	0x51
 3370 01fd 11000000 		.4byte	.LVL28-1
 3371 0201 2C000000 		.4byte	.LFE9
 3372 0205 0100     		.2byte	0x1
 3373 0207 55       		.byte	0x55
 3374 0208 00000000 		.4byte	0
 3375 020c 00000000 		.4byte	0
 3376              	.LLST13:
 3377 0210 00000000 		.4byte	.LVL27
 3378 0214 11000000 		.4byte	.LVL28-1
 3379 0218 0100     		.2byte	0x1
 3380 021a 52       		.byte	0x52
 3381 021b 11000000 		.4byte	.LVL28-1
 3382 021f 1E000000 		.4byte	.LVL30
 3383 0223 0100     		.2byte	0x1
 3384 0225 54       		.byte	0x54
 3385 0226 1E000000 		.4byte	.LVL30
 3386 022a 2C000000 		.4byte	.LFE9
 3387 022e 0400     		.2byte	0x4
 3388 0230 F3       		.byte	0xf3
 3389 0231 01       		.uleb128 0x1
 3390 0232 52       		.byte	0x52
 3391 0233 9F       		.byte	0x9f
 3392 0234 00000000 		.4byte	0
 3393 0238 00000000 		.4byte	0
 3394              	.LLST14:
ARM GAS  /tmp/cc2eAqjR.s 			page 61


 3395 023c 1E000000 		.4byte	.LVL30
 3396 0240 21000000 		.4byte	.LVL31-1
 3397 0244 0100     		.2byte	0x1
 3398 0246 50       		.byte	0x50
 3399 0247 21000000 		.4byte	.LVL31-1
 3400 024b 2C000000 		.4byte	.LFE9
 3401 024f 0100     		.2byte	0x1
 3402 0251 54       		.byte	0x54
 3403 0252 00000000 		.4byte	0
 3404 0256 00000000 		.4byte	0
 3405              	.LLST15:
 3406 025a 00000000 		.4byte	.LVL32
 3407 025e 09000000 		.4byte	.LVL33-1
 3408 0262 0100     		.2byte	0x1
 3409 0264 50       		.byte	0x50
 3410 0265 09000000 		.4byte	.LVL33-1
 3411 0269 44000000 		.4byte	.LVL37
 3412 026d 0100     		.2byte	0x1
 3413 026f 54       		.byte	0x54
 3414 0270 44000000 		.4byte	.LVL37
 3415 0274 48000000 		.4byte	.LFE11
 3416 0278 0400     		.2byte	0x4
 3417 027a F3       		.byte	0xf3
 3418 027b 01       		.uleb128 0x1
 3419 027c 50       		.byte	0x50
 3420 027d 9F       		.byte	0x9f
 3421 027e 00000000 		.4byte	0
 3422 0282 00000000 		.4byte	0
 3423              	.LLST16:
 3424 0286 00000000 		.4byte	.LVL32
 3425 028a 09000000 		.4byte	.LVL33-1
 3426 028e 0100     		.2byte	0x1
 3427 0290 51       		.byte	0x51
 3428 0291 09000000 		.4byte	.LVL33-1
 3429 0295 44000000 		.4byte	.LVL37
 3430 0299 0100     		.2byte	0x1
 3431 029b 55       		.byte	0x55
 3432 029c 44000000 		.4byte	.LVL37
 3433 02a0 48000000 		.4byte	.LFE11
 3434 02a4 0400     		.2byte	0x4
 3435 02a6 F3       		.byte	0xf3
 3436 02a7 01       		.uleb128 0x1
 3437 02a8 51       		.byte	0x51
 3438 02a9 9F       		.byte	0x9f
 3439 02aa 00000000 		.4byte	0
 3440 02ae 00000000 		.4byte	0
 3441              	.LLST17:
 3442 02b2 00000000 		.4byte	.LVL38
 3443 02b6 0B000000 		.4byte	.LVL39-1
 3444 02ba 0100     		.2byte	0x1
 3445 02bc 50       		.byte	0x50
 3446 02bd 0B000000 		.4byte	.LVL39-1
 3447 02c1 50000000 		.4byte	.LFE13
 3448 02c5 0100     		.2byte	0x1
 3449 02c7 54       		.byte	0x54
 3450 02c8 00000000 		.4byte	0
 3451 02cc 00000000 		.4byte	0
ARM GAS  /tmp/cc2eAqjR.s 			page 62


 3452              	.LLST18:
 3453 02d0 00000000 		.4byte	.LVL38
 3454 02d4 0B000000 		.4byte	.LVL39-1
 3455 02d8 0100     		.2byte	0x1
 3456 02da 51       		.byte	0x51
 3457 02db 0B000000 		.4byte	.LVL39-1
 3458 02df 50000000 		.4byte	.LFE13
 3459 02e3 0100     		.2byte	0x1
 3460 02e5 56       		.byte	0x56
 3461 02e6 00000000 		.4byte	0
 3462 02ea 00000000 		.4byte	0
 3463              	.LLST19:
 3464 02ee 00000000 		.4byte	.LVL38
 3465 02f2 0B000000 		.4byte	.LVL39-1
 3466 02f6 0100     		.2byte	0x1
 3467 02f8 52       		.byte	0x52
 3468 02f9 0B000000 		.4byte	.LVL39-1
 3469 02fd 1A000000 		.4byte	.LVL41
 3470 0301 0100     		.2byte	0x1
 3471 0303 55       		.byte	0x55
 3472 0304 1A000000 		.4byte	.LVL41
 3473 0308 42000000 		.4byte	.LVL47
 3474 030c 0400     		.2byte	0x4
 3475 030e F3       		.byte	0xf3
 3476 030f 01       		.uleb128 0x1
 3477 0310 52       		.byte	0x52
 3478 0311 9F       		.byte	0x9f
 3479 0312 42000000 		.4byte	.LVL47
 3480 0316 50000000 		.4byte	.LFE13
 3481 031a 0100     		.2byte	0x1
 3482 031c 55       		.byte	0x55
 3483 031d 00000000 		.4byte	0
 3484 0321 00000000 		.4byte	0
 3485              	.LLST20:
 3486 0325 18000000 		.4byte	.LVL40
 3487 0329 2E000000 		.4byte	.LVL43
 3488 032d 0100     		.2byte	0x1
 3489 032f 50       		.byte	0x50
 3490 0330 2E000000 		.4byte	.LVL43
 3491 0334 3A000000 		.4byte	.LVL46
 3492 0338 0100     		.2byte	0x1
 3493 033a 55       		.byte	0x55
 3494 033b 3A000000 		.4byte	.LVL46
 3495 033f 42000000 		.4byte	.LVL47
 3496 0343 0100     		.2byte	0x1
 3497 0345 50       		.byte	0x50
 3498 0346 00000000 		.4byte	0
 3499 034a 00000000 		.4byte	0
 3500              	.LLST21:
 3501 034e 1C000000 		.4byte	.LVL42
 3502 0352 36000000 		.4byte	.LVL45
 3503 0356 0400     		.2byte	0x4
 3504 0358 F3       		.byte	0xf3
 3505 0359 01       		.uleb128 0x1
 3506 035a 52       		.byte	0x52
 3507 035b 9F       		.byte	0x9f
 3508 035c 3A000000 		.4byte	.LVL46
ARM GAS  /tmp/cc2eAqjR.s 			page 63


 3509 0360 42000000 		.4byte	.LVL47
 3510 0364 0400     		.2byte	0x4
 3511 0366 F3       		.byte	0xf3
 3512 0367 01       		.uleb128 0x1
 3513 0368 52       		.byte	0x52
 3514 0369 9F       		.byte	0x9f
 3515 036a 00000000 		.4byte	0
 3516 036e 00000000 		.4byte	0
 3517              	.LLST22:
 3518 0372 1C000000 		.4byte	.LVL42
 3519 0376 36000000 		.4byte	.LVL45
 3520 037a 0100     		.2byte	0x1
 3521 037c 56       		.byte	0x56
 3522 037d 3A000000 		.4byte	.LVL46
 3523 0381 42000000 		.4byte	.LVL47
 3524 0385 0100     		.2byte	0x1
 3525 0387 56       		.byte	0x56
 3526 0388 00000000 		.4byte	0
 3527 038c 00000000 		.4byte	0
 3528              	.LLST23:
 3529 0390 1C000000 		.4byte	.LVL42
 3530 0394 36000000 		.4byte	.LVL45
 3531 0398 0100     		.2byte	0x1
 3532 039a 54       		.byte	0x54
 3533 039b 3A000000 		.4byte	.LVL46
 3534 039f 42000000 		.4byte	.LVL47
 3535 03a3 0100     		.2byte	0x1
 3536 03a5 54       		.byte	0x54
 3537 03a6 00000000 		.4byte	0
 3538 03aa 00000000 		.4byte	0
 3539              	.LLST24:
 3540 03ae 00000000 		.4byte	.LVL49
 3541 03b2 11000000 		.4byte	.LVL50-1
 3542 03b6 0100     		.2byte	0x1
 3543 03b8 50       		.byte	0x50
 3544 03b9 11000000 		.4byte	.LVL50-1
 3545 03bd 2C000000 		.4byte	.LFE12
 3546 03c1 0100     		.2byte	0x1
 3547 03c3 56       		.byte	0x56
 3548 03c4 00000000 		.4byte	0
 3549 03c8 00000000 		.4byte	0
 3550              	.LLST25:
 3551 03cc 00000000 		.4byte	.LVL49
 3552 03d0 11000000 		.4byte	.LVL50-1
 3553 03d4 0100     		.2byte	0x1
 3554 03d6 51       		.byte	0x51
 3555 03d7 11000000 		.4byte	.LVL50-1
 3556 03db 2C000000 		.4byte	.LFE12
 3557 03df 0100     		.2byte	0x1
 3558 03e1 55       		.byte	0x55
 3559 03e2 00000000 		.4byte	0
 3560 03e6 00000000 		.4byte	0
 3561              	.LLST26:
 3562 03ea 00000000 		.4byte	.LVL49
 3563 03ee 11000000 		.4byte	.LVL50-1
 3564 03f2 0100     		.2byte	0x1
 3565 03f4 52       		.byte	0x52
ARM GAS  /tmp/cc2eAqjR.s 			page 64


 3566 03f5 11000000 		.4byte	.LVL50-1
 3567 03f9 1E000000 		.4byte	.LVL52
 3568 03fd 0100     		.2byte	0x1
 3569 03ff 54       		.byte	0x54
 3570 0400 1E000000 		.4byte	.LVL52
 3571 0404 2C000000 		.4byte	.LFE12
 3572 0408 0400     		.2byte	0x4
 3573 040a F3       		.byte	0xf3
 3574 040b 01       		.uleb128 0x1
 3575 040c 52       		.byte	0x52
 3576 040d 9F       		.byte	0x9f
 3577 040e 00000000 		.4byte	0
 3578 0412 00000000 		.4byte	0
 3579              	.LLST27:
 3580 0416 1E000000 		.4byte	.LVL52
 3581 041a 21000000 		.4byte	.LVL53-1
 3582 041e 0100     		.2byte	0x1
 3583 0420 50       		.byte	0x50
 3584 0421 21000000 		.4byte	.LVL53-1
 3585 0425 2C000000 		.4byte	.LFE12
 3586 0429 0100     		.2byte	0x1
 3587 042b 54       		.byte	0x54
 3588 042c 00000000 		.4byte	0
 3589 0430 00000000 		.4byte	0
 3590              	.LLST28:
 3591 0434 00000000 		.4byte	.LVL54
 3592 0438 09000000 		.4byte	.LVL55-1
 3593 043c 0100     		.2byte	0x1
 3594 043e 50       		.byte	0x50
 3595 043f 09000000 		.4byte	.LVL55-1
 3596 0443 44000000 		.4byte	.LVL59
 3597 0447 0100     		.2byte	0x1
 3598 0449 54       		.byte	0x54
 3599 044a 44000000 		.4byte	.LVL59
 3600 044e 48000000 		.4byte	.LFE14
 3601 0452 0400     		.2byte	0x4
 3602 0454 F3       		.byte	0xf3
 3603 0455 01       		.uleb128 0x1
 3604 0456 50       		.byte	0x50
 3605 0457 9F       		.byte	0x9f
 3606 0458 00000000 		.4byte	0
 3607 045c 00000000 		.4byte	0
 3608              	.LLST29:
 3609 0460 00000000 		.4byte	.LVL54
 3610 0464 09000000 		.4byte	.LVL55-1
 3611 0468 0100     		.2byte	0x1
 3612 046a 51       		.byte	0x51
 3613 046b 09000000 		.4byte	.LVL55-1
 3614 046f 44000000 		.4byte	.LVL59
 3615 0473 0100     		.2byte	0x1
 3616 0475 55       		.byte	0x55
 3617 0476 44000000 		.4byte	.LVL59
 3618 047a 48000000 		.4byte	.LFE14
 3619 047e 0400     		.2byte	0x4
 3620 0480 F3       		.byte	0xf3
 3621 0481 01       		.uleb128 0x1
 3622 0482 51       		.byte	0x51
ARM GAS  /tmp/cc2eAqjR.s 			page 65


 3623 0483 9F       		.byte	0x9f
 3624 0484 00000000 		.4byte	0
 3625 0488 00000000 		.4byte	0
 3626              	.LLST30:
 3627 048c 00000000 		.4byte	.LVL60
 3628 0490 0B000000 		.4byte	.LVL61-1
 3629 0494 0100     		.2byte	0x1
 3630 0496 50       		.byte	0x50
 3631 0497 0B000000 		.4byte	.LVL61-1
 3632 049b 50000000 		.4byte	.LFE16
 3633 049f 0100     		.2byte	0x1
 3634 04a1 54       		.byte	0x54
 3635 04a2 00000000 		.4byte	0
 3636 04a6 00000000 		.4byte	0
 3637              	.LLST31:
 3638 04aa 00000000 		.4byte	.LVL60
 3639 04ae 0B000000 		.4byte	.LVL61-1
 3640 04b2 0100     		.2byte	0x1
 3641 04b4 51       		.byte	0x51
 3642 04b5 0B000000 		.4byte	.LVL61-1
 3643 04b9 50000000 		.4byte	.LFE16
 3644 04bd 0100     		.2byte	0x1
 3645 04bf 56       		.byte	0x56
 3646 04c0 00000000 		.4byte	0
 3647 04c4 00000000 		.4byte	0
 3648              	.LLST32:
 3649 04c8 00000000 		.4byte	.LVL60
 3650 04cc 0B000000 		.4byte	.LVL61-1
 3651 04d0 0100     		.2byte	0x1
 3652 04d2 52       		.byte	0x52
 3653 04d3 0B000000 		.4byte	.LVL61-1
 3654 04d7 1C000000 		.4byte	.LVL63
 3655 04db 0100     		.2byte	0x1
 3656 04dd 55       		.byte	0x55
 3657 04de 1C000000 		.4byte	.LVL63
 3658 04e2 44000000 		.4byte	.LVL68
 3659 04e6 0400     		.2byte	0x4
 3660 04e8 F3       		.byte	0xf3
 3661 04e9 01       		.uleb128 0x1
 3662 04ea 52       		.byte	0x52
 3663 04eb 9F       		.byte	0x9f
 3664 04ec 44000000 		.4byte	.LVL68
 3665 04f0 50000000 		.4byte	.LFE16
 3666 04f4 0100     		.2byte	0x1
 3667 04f6 55       		.byte	0x55
 3668 04f7 00000000 		.4byte	0
 3669 04fb 00000000 		.4byte	0
 3670              	.LLST33:
 3671 04ff 1A000000 		.4byte	.LVL62
 3672 0503 34000000 		.4byte	.LVL65
 3673 0507 0100     		.2byte	0x1
 3674 0509 50       		.byte	0x50
 3675 050a 34000000 		.4byte	.LVL65
 3676 050e 44000000 		.4byte	.LVL68
 3677 0512 0100     		.2byte	0x1
 3678 0514 55       		.byte	0x55
 3679 0515 00000000 		.4byte	0
ARM GAS  /tmp/cc2eAqjR.s 			page 66


 3680 0519 00000000 		.4byte	0
 3681              	.LLST34:
 3682 051d 1E000000 		.4byte	.LVL64
 3683 0521 40000000 		.4byte	.LVL67
 3684 0525 0400     		.2byte	0x4
 3685 0527 F3       		.byte	0xf3
 3686 0528 01       		.uleb128 0x1
 3687 0529 52       		.byte	0x52
 3688 052a 9F       		.byte	0x9f
 3689 052b 00000000 		.4byte	0
 3690 052f 00000000 		.4byte	0
 3691              	.LLST35:
 3692 0533 1E000000 		.4byte	.LVL64
 3693 0537 40000000 		.4byte	.LVL67
 3694 053b 0100     		.2byte	0x1
 3695 053d 56       		.byte	0x56
 3696 053e 00000000 		.4byte	0
 3697 0542 00000000 		.4byte	0
 3698              	.LLST36:
 3699 0546 1E000000 		.4byte	.LVL64
 3700 054a 40000000 		.4byte	.LVL67
 3701 054e 0100     		.2byte	0x1
 3702 0550 54       		.byte	0x54
 3703 0551 00000000 		.4byte	0
 3704 0555 00000000 		.4byte	0
 3705              	.LLST37:
 3706 0559 00000000 		.4byte	.LVL70
 3707 055d 11000000 		.4byte	.LVL71-1
 3708 0561 0100     		.2byte	0x1
 3709 0563 50       		.byte	0x50
 3710 0564 11000000 		.4byte	.LVL71-1
 3711 0568 2C000000 		.4byte	.LFE15
 3712 056c 0100     		.2byte	0x1
 3713 056e 56       		.byte	0x56
 3714 056f 00000000 		.4byte	0
 3715 0573 00000000 		.4byte	0
 3716              	.LLST38:
 3717 0577 00000000 		.4byte	.LVL70
 3718 057b 11000000 		.4byte	.LVL71-1
 3719 057f 0100     		.2byte	0x1
 3720 0581 51       		.byte	0x51
 3721 0582 11000000 		.4byte	.LVL71-1
 3722 0586 2C000000 		.4byte	.LFE15
 3723 058a 0100     		.2byte	0x1
 3724 058c 55       		.byte	0x55
 3725 058d 00000000 		.4byte	0
 3726 0591 00000000 		.4byte	0
 3727              	.LLST39:
 3728 0595 00000000 		.4byte	.LVL70
 3729 0599 11000000 		.4byte	.LVL71-1
 3730 059d 0100     		.2byte	0x1
 3731 059f 52       		.byte	0x52
 3732 05a0 11000000 		.4byte	.LVL71-1
 3733 05a4 1E000000 		.4byte	.LVL73
 3734 05a8 0100     		.2byte	0x1
 3735 05aa 54       		.byte	0x54
 3736 05ab 1E000000 		.4byte	.LVL73
ARM GAS  /tmp/cc2eAqjR.s 			page 67


 3737 05af 2C000000 		.4byte	.LFE15
 3738 05b3 0400     		.2byte	0x4
 3739 05b5 F3       		.byte	0xf3
 3740 05b6 01       		.uleb128 0x1
 3741 05b7 52       		.byte	0x52
 3742 05b8 9F       		.byte	0x9f
 3743 05b9 00000000 		.4byte	0
 3744 05bd 00000000 		.4byte	0
 3745              	.LLST40:
 3746 05c1 1E000000 		.4byte	.LVL73
 3747 05c5 21000000 		.4byte	.LVL74-1
 3748 05c9 0100     		.2byte	0x1
 3749 05cb 50       		.byte	0x50
 3750 05cc 21000000 		.4byte	.LVL74-1
 3751 05d0 2C000000 		.4byte	.LFE15
 3752 05d4 0100     		.2byte	0x1
 3753 05d6 54       		.byte	0x54
 3754 05d7 00000000 		.4byte	0
 3755 05db 00000000 		.4byte	0
 3756              	.LLST41:
 3757 05df 00000000 		.4byte	.LVL75
 3758 05e3 09000000 		.4byte	.LVL76-1
 3759 05e7 0100     		.2byte	0x1
 3760 05e9 50       		.byte	0x50
 3761 05ea 09000000 		.4byte	.LVL76-1
 3762 05ee 48000000 		.4byte	.LVL80
 3763 05f2 0100     		.2byte	0x1
 3764 05f4 54       		.byte	0x54
 3765 05f5 48000000 		.4byte	.LVL80
 3766 05f9 4C000000 		.4byte	.LFE17
 3767 05fd 0400     		.2byte	0x4
 3768 05ff F3       		.byte	0xf3
 3769 0600 01       		.uleb128 0x1
 3770 0601 50       		.byte	0x50
 3771 0602 9F       		.byte	0x9f
 3772 0603 00000000 		.4byte	0
 3773 0607 00000000 		.4byte	0
 3774              	.LLST42:
 3775 060b 00000000 		.4byte	.LVL75
 3776 060f 09000000 		.4byte	.LVL76-1
 3777 0613 0100     		.2byte	0x1
 3778 0615 51       		.byte	0x51
 3779 0616 09000000 		.4byte	.LVL76-1
 3780 061a 48000000 		.4byte	.LVL80
 3781 061e 0100     		.2byte	0x1
 3782 0620 55       		.byte	0x55
 3783 0621 48000000 		.4byte	.LVL80
 3784 0625 4C000000 		.4byte	.LFE17
 3785 0629 0400     		.2byte	0x4
 3786 062b F3       		.byte	0xf3
 3787 062c 01       		.uleb128 0x1
 3788 062d 51       		.byte	0x51
 3789 062e 9F       		.byte	0x9f
 3790 062f 00000000 		.4byte	0
 3791 0633 00000000 		.4byte	0
 3792              		.section	.debug_aranges,"",%progbits
 3793 0000 6C000000 		.4byte	0x6c
ARM GAS  /tmp/cc2eAqjR.s 			page 68


 3794 0004 0200     		.2byte	0x2
 3795 0006 00000000 		.4byte	.Ldebug_info0
 3796 000a 04       		.byte	0x4
 3797 000b 00       		.byte	0
 3798 000c 0000     		.2byte	0
 3799 000e 0000     		.2byte	0
 3800 0010 00000000 		.4byte	.LFB7
 3801 0014 40000000 		.4byte	.LFE7-.LFB7
 3802 0018 00000000 		.4byte	.LFB8
 3803 001c 4C000000 		.4byte	.LFE8-.LFB8
 3804 0020 00000000 		.4byte	.LFB10
 3805 0024 4C000000 		.4byte	.LFE10-.LFB10
 3806 0028 00000000 		.4byte	.LFB9
 3807 002c 2C000000 		.4byte	.LFE9-.LFB9
 3808 0030 00000000 		.4byte	.LFB11
 3809 0034 48000000 		.4byte	.LFE11-.LFB11
 3810 0038 00000000 		.4byte	.LFB13
 3811 003c 50000000 		.4byte	.LFE13-.LFB13
 3812 0040 00000000 		.4byte	.LFB12
 3813 0044 2C000000 		.4byte	.LFE12-.LFB12
 3814 0048 00000000 		.4byte	.LFB14
 3815 004c 48000000 		.4byte	.LFE14-.LFB14
 3816 0050 00000000 		.4byte	.LFB16
 3817 0054 50000000 		.4byte	.LFE16-.LFB16
 3818 0058 00000000 		.4byte	.LFB15
 3819 005c 2C000000 		.4byte	.LFE15-.LFB15
 3820 0060 00000000 		.4byte	.LFB17
 3821 0064 4C000000 		.4byte	.LFE17-.LFB17
 3822 0068 00000000 		.4byte	0
 3823 006c 00000000 		.4byte	0
 3824              		.section	.debug_ranges,"",%progbits
 3825              	.Ldebug_ranges0:
 3826 0000 02000000 		.4byte	.LBB8
 3827 0004 04000000 		.4byte	.LBE8
 3828 0008 0A000000 		.4byte	.LBB9
 3829 000c 0E000000 		.4byte	.LBE9
 3830 0010 00000000 		.4byte	0
 3831 0014 00000000 		.4byte	0
 3832 0018 1C000000 		.4byte	.LBB13
 3833 001c 36000000 		.4byte	.LBE13
 3834 0020 3A000000 		.4byte	.LBB16
 3835 0024 42000000 		.4byte	.LBE16
 3836 0028 00000000 		.4byte	0
 3837 002c 00000000 		.4byte	0
 3838 0030 02000000 		.4byte	.LBB17
 3839 0034 04000000 		.4byte	.LBE17
 3840 0038 0A000000 		.4byte	.LBB18
 3841 003c 0E000000 		.4byte	.LBE18
 3842 0040 00000000 		.4byte	0
 3843 0044 00000000 		.4byte	0
 3844 0048 02000000 		.4byte	.LBB24
 3845 004c 04000000 		.4byte	.LBE24
 3846 0050 0A000000 		.4byte	.LBB25
 3847 0054 0E000000 		.4byte	.LBE25
 3848 0058 00000000 		.4byte	0
 3849 005c 00000000 		.4byte	0
 3850 0060 00000000 		.4byte	.LFB7
ARM GAS  /tmp/cc2eAqjR.s 			page 69


 3851 0064 40000000 		.4byte	.LFE7
 3852 0068 00000000 		.4byte	.LFB8
 3853 006c 4C000000 		.4byte	.LFE8
 3854 0070 00000000 		.4byte	.LFB10
 3855 0074 4C000000 		.4byte	.LFE10
 3856 0078 00000000 		.4byte	.LFB9
 3857 007c 2C000000 		.4byte	.LFE9
 3858 0080 00000000 		.4byte	.LFB11
 3859 0084 48000000 		.4byte	.LFE11
 3860 0088 00000000 		.4byte	.LFB13
 3861 008c 50000000 		.4byte	.LFE13
 3862 0090 00000000 		.4byte	.LFB12
 3863 0094 2C000000 		.4byte	.LFE12
 3864 0098 00000000 		.4byte	.LFB14
 3865 009c 48000000 		.4byte	.LFE14
 3866 00a0 00000000 		.4byte	.LFB16
 3867 00a4 50000000 		.4byte	.LFE16
 3868 00a8 00000000 		.4byte	.LFB15
 3869 00ac 2C000000 		.4byte	.LFE15
 3870 00b0 00000000 		.4byte	.LFB17
 3871 00b4 4C000000 		.4byte	.LFE17
 3872 00b8 00000000 		.4byte	0
 3873 00bc 00000000 		.4byte	0
 3874              		.section	.debug_line,"",%progbits
 3875              	.Ldebug_line0:
 3876 0000 EB020000 		.section	.debug_str,"MS",%progbits,1
 3876      02005C01 
 3876      00000201 
 3876      FB0E0D00 
 3876      01010101 
 3877              	.LASF43:
 3878 0000 705F6D73 		.ascii	"p_msg\000"
 3878      6700
 3879              	.LASF93:
 3880 0006 63685365 		.ascii	"chSemSignalI\000"
 3880      6D536967 
 3880      6E616C49 
 3880      00
 3881              	.LASF88:
 3882 0013 63684462 		.ascii	"chDbgPanic\000"
 3882      6750616E 
 3882      696300
 3883              	.LASF69:
 3884 001e 7264796D 		.ascii	"rdymsg\000"
 3884      736700
 3885              	.LASF16:
 3886 0025 75696E74 		.ascii	"uint64_t\000"
 3886      36345F74 
 3886      00
 3887              	.LASF5:
 3888 002e 5F5F7569 		.ascii	"__uint8_t\000"
 3888      6E74385F 
 3888      7400
 3889              	.LASF82:
 3890 0038 63684D42 		.ascii	"chMBPostI\000"
 3890      506F7374 
 3890      4900
ARM GAS  /tmp/cc2eAqjR.s 			page 70


 3891              	.LASF75:
 3892 0042 63684D42 		.ascii	"chMBPostS\000"
 3892      506F7374 
 3892      5300
 3893              	.LASF68:
 3894 004c 4D61696C 		.ascii	"Mailbox\000"
 3894      626F7800 
 3895              	.LASF84:
 3896 0054 63684D42 		.ascii	"chMBPostAheadI\000"
 3896      506F7374 
 3896      41686561 
 3896      644900
 3897              	.LASF12:
 3898 0063 6C6F6E67 		.ascii	"long long unsigned int\000"
 3898      206C6F6E 
 3898      6720756E 
 3898      7369676E 
 3898      65642069 
 3899              	.LASF97:
 3900 007a 474E5520 		.ascii	"GNU C 4.9.3 20150529 (prerelease) -mcpu=cortex-m4 -"
 3900      4320342E 
 3900      392E3320 
 3900      32303135 
 3900      30353239 
 3901 00ad 6D6E6F2D 		.ascii	"mno-thumb-interwork -mthumb -ggdb -O2 -fomit-frame-"
 3901      7468756D 
 3901      622D696E 
 3901      74657277 
 3901      6F726B20 
 3902 00e0 706F696E 		.ascii	"pointer -falign-functions=16 -ffunction-sections -f"
 3902      74657220 
 3902      2D66616C 
 3902      69676E2D 
 3902      66756E63 
 3903 0113 64617461 		.ascii	"data-sections -fno-common\000"
 3903      2D736563 
 3903      74696F6E 
 3903      73202D66 
 3903      6E6F2D63 
 3904              	.LASF70:
 3905 012d 65786974 		.ascii	"exitcode\000"
 3905      636F6465 
 3905      00
 3906              	.LASF76:
 3907 0136 63684D42 		.ascii	"chMBPostAheadS\000"
 3907      506F7374 
 3907      41686561 
 3907      645300
 3908              	.LASF64:
 3909 0145 6D625F77 		.ascii	"mb_wrptr\000"
 3909      72707472 
 3909      00
 3910              	.LASF30:
 3911 014e 705F7072 		.ascii	"p_prio\000"
 3911      696F00
 3912              	.LASF10:
 3913 0155 6C6F6E67 		.ascii	"long long int\000"
ARM GAS  /tmp/cc2eAqjR.s 			page 71


 3913      206C6F6E 
 3913      6720696E 
 3913      7400
 3914              	.LASF1:
 3915 0163 7369676E 		.ascii	"signed char\000"
 3915      65642063 
 3915      68617200 
 3916              	.LASF47:
 3917 016f 705F6D70 		.ascii	"p_mpool\000"
 3917      6F6F6C00 
 3918              	.LASF59:
 3919 0177 6D5F7175 		.ascii	"m_queue\000"
 3919      65756500 
 3920              	.LASF21:
 3921 017f 74736C69 		.ascii	"tslices_t\000"
 3921      6365735F 
 3921      7400
 3922              	.LASF7:
 3923 0189 6C6F6E67 		.ascii	"long int\000"
 3923      20696E74 
 3923      00
 3924              	.LASF19:
 3925 0192 74737461 		.ascii	"tstate_t\000"
 3925      74655F74 
 3925      00
 3926              	.LASF32:
 3927 019b 705F6E65 		.ascii	"p_newer\000"
 3927      77657200 
 3928              	.LASF56:
 3929 01a3 735F7175 		.ascii	"s_queue\000"
 3929      65756500 
 3930              	.LASF91:
 3931 01ab 63685363 		.ascii	"chSchRescheduleS\000"
 3931      68526573 
 3931      63686564 
 3931      756C6553 
 3931      00
 3932              	.LASF8:
 3933 01bc 5F5F7569 		.ascii	"__uint32_t\000"
 3933      6E743332 
 3933      5F7400
 3934              	.LASF50:
 3935 01c7 72656761 		.ascii	"regarm_t\000"
 3935      726D5F74 
 3935      00
 3936              	.LASF26:
 3937 01d0 636E745F 		.ascii	"cnt_t\000"
 3937      7400
 3938              	.LASF35:
 3939 01d6 705F7374 		.ascii	"p_stklimit\000"
 3939      6B6C696D 
 3939      697400
 3940              	.LASF0:
 3941 01e1 756E7369 		.ascii	"unsigned int\000"
 3941      676E6564 
 3941      20696E74 
 3941      00
ARM GAS  /tmp/cc2eAqjR.s 			page 72


 3942              	.LASF79:
 3943 01ee 63684D42 		.ascii	"chMBInit\000"
 3943      496E6974 
 3943      00
 3944              	.LASF9:
 3945 01f7 6C6F6E67 		.ascii	"long unsigned int\000"
 3945      20756E73 
 3945      69676E65 
 3945      6420696E 
 3945      7400
 3946              	.LASF67:
 3947 0209 6D625F65 		.ascii	"mb_emptysem\000"
 3947      6D707479 
 3947      73656D00 
 3948              	.LASF57:
 3949 0215 735F636E 		.ascii	"s_cnt\000"
 3949      7400
 3950              	.LASF53:
 3951 021b 636F6E74 		.ascii	"context\000"
 3951      65787400 
 3952              	.LASF4:
 3953 0223 73686F72 		.ascii	"short unsigned int\000"
 3953      7420756E 
 3953      7369676E 
 3953      65642069 
 3953      6E7400
 3954              	.LASF86:
 3955 0236 63684D42 		.ascii	"chMBFetchI\000"
 3955      46657463 
 3955      684900
 3956              	.LASF23:
 3957 0241 6D73675F 		.ascii	"msg_t\000"
 3957      7400
 3958              	.LASF96:
 3959 0247 63684462 		.ascii	"chDbgCheckClassI\000"
 3959      67436865 
 3959      636B436C 
 3959      61737349 
 3959      00
 3960              	.LASF77:
 3961 0258 63684D42 		.ascii	"chMBFetchS\000"
 3961      46657463 
 3961      685300
 3962              	.LASF18:
 3963 0263 746D6F64 		.ascii	"tmode_t\000"
 3963      655F7400 
 3964              	.LASF94:
 3965 026b 63684462 		.ascii	"chDbgCheckClassS\000"
 3965      67436865 
 3965      636B436C 
 3965      61737353 
 3965      00
 3966              	.LASF49:
 3967 027c 54687265 		.ascii	"ThreadsList\000"
 3967      6164734C 
 3967      69737400 
 3968              	.LASF24:
ARM GAS  /tmp/cc2eAqjR.s 			page 73


 3969 0288 6576656E 		.ascii	"eventmask_t\000"
 3969      746D6173 
 3969      6B5F7400 
 3970              	.LASF58:
 3971 0294 4D757465 		.ascii	"Mutex\000"
 3971      7800
 3972              	.LASF78:
 3973 029a 6D736770 		.ascii	"msgp\000"
 3973      00
 3974              	.LASF51:
 3975 029f 73746B61 		.ascii	"stkalign_t\000"
 3975      6C69676E 
 3975      5F7400
 3976              	.LASF92:
 3977 02aa 6462675F 		.ascii	"dbg_check_unlock\000"
 3977      63686563 
 3977      6B5F756E 
 3977      6C6F636B 
 3977      00
 3978              	.LASF54:
 3979 02bb 73697A65 		.ascii	"sizetype\000"
 3979      74797065 
 3979      00
 3980              	.LASF65:
 3981 02c4 6D625F72 		.ascii	"mb_rdptr\000"
 3981      64707472 
 3981      00
 3982              	.LASF80:
 3983 02cd 63684D42 		.ascii	"chMBReset\000"
 3983      52657365 
 3983      7400
 3984              	.LASF33:
 3985 02d7 705F6F6C 		.ascii	"p_older\000"
 3985      64657200 
 3986              	.LASF48:
 3987 02df 54687265 		.ascii	"ThreadsQueue\000"
 3987      61647351 
 3987      75657565 
 3987      00
 3988              	.LASF62:
 3989 02ec 6D625F62 		.ascii	"mb_buffer\000"
 3989      75666665 
 3989      7200
 3990              	.LASF74:
 3991 02f6 74696D65 		.ascii	"time\000"
 3991      00
 3992              	.LASF90:
 3993 02fb 6462675F 		.ascii	"dbg_check_lock\000"
 3993      63686563 
 3993      6B5F6C6F 
 3993      636B00
 3994              	.LASF11:
 3995 030a 5F5F7569 		.ascii	"__uint64_t\000"
 3995      6E743634 
 3995      5F7400
 3996              	.LASF20:
 3997 0315 74726566 		.ascii	"trefs_t\000"
ARM GAS  /tmp/cc2eAqjR.s 			page 74


 3997      735F7400 
 3998              	.LASF29:
 3999 031d 705F7072 		.ascii	"p_prev\000"
 3999      657600
 4000              	.LASF22:
 4001 0324 74707269 		.ascii	"tprio_t\000"
 4001      6F5F7400 
 4002              	.LASF17:
 4003 032c 5F426F6F 		.ascii	"_Bool\000"
 4003      6C00
 4004              	.LASF14:
 4005 0332 696E7433 		.ascii	"int32_t\000"
 4005      325F7400 
 4006              	.LASF2:
 4007 033a 756E7369 		.ascii	"unsigned char\000"
 4007      676E6564 
 4007      20636861 
 4007      7200
 4008              	.LASF63:
 4009 0348 6D625F74 		.ascii	"mb_top\000"
 4009      6F7000
 4010              	.LASF45:
 4011 034f 705F6D74 		.ascii	"p_mtxlist\000"
 4011      786C6973 
 4011      7400
 4012              	.LASF3:
 4013 0359 73686F72 		.ascii	"short int\000"
 4013      7420696E 
 4013      7400
 4014              	.LASF36:
 4015 0363 705F7374 		.ascii	"p_state\000"
 4015      61746500 
 4016              	.LASF39:
 4017 036b 705F7072 		.ascii	"p_preempt\000"
 4017      65656D70 
 4017      7400
 4018              	.LASF99:
 4019 0375 2F686F6D 		.ascii	"/home/namv1994/CFSD19/Christian STM32 code/STM32F4/"
 4019      652F6E61 
 4019      6D763139 
 4019      39342F43 
 4019      46534431 
 4020 03a8 53544D33 		.ascii	"STM32F4/embedded/ChibiOS/nam-test-USB/USB_CDC\000"
 4020      3246342F 
 4020      656D6265 
 4020      64646564 
 4020      2F436869 
 4021              	.LASF72:
 4022 03d6 65776D61 		.ascii	"ewmask\000"
 4022      736B00
 4023              	.LASF28:
 4024 03dd 705F6E65 		.ascii	"p_next\000"
 4024      787400
 4025              	.LASF37:
 4026 03e4 705F666C 		.ascii	"p_flags\000"
 4026      61677300 
 4027              	.LASF81:
ARM GAS  /tmp/cc2eAqjR.s 			page 75


 4028 03ec 63684D42 		.ascii	"chMBPost\000"
 4028      506F7374 
 4028      00
 4029              	.LASF27:
 4030 03f5 54687265 		.ascii	"Thread\000"
 4030      616400
 4031              	.LASF44:
 4032 03fc 705F6570 		.ascii	"p_epending\000"
 4032      656E6469 
 4032      6E6700
 4033              	.LASF15:
 4034 0407 75696E74 		.ascii	"uint32_t\000"
 4034      33325F74 
 4034      00
 4035              	.LASF98:
 4036 0410 2E2E2F2E 		.ascii	"../../ChibiOS_2.6.5/os/kernel/src/chmboxes.c\000"
 4036      2E2F4368 
 4036      6962694F 
 4036      535F322E 
 4036      362E352F 
 4037              	.LASF73:
 4038 043d 63686172 		.ascii	"char\000"
 4038      00
 4039              	.LASF95:
 4040 0442 63685365 		.ascii	"chSemWaitTimeoutS\000"
 4040      6D576169 
 4040      7454696D 
 4040      656F7574 
 4040      5300
 4041              	.LASF61:
 4042 0454 6D5F6E65 		.ascii	"m_next\000"
 4042      787400
 4043              	.LASF25:
 4044 045b 73797374 		.ascii	"systime_t\000"
 4044      696D655F 
 4044      7400
 4045              	.LASF46:
 4046 0465 705F7265 		.ascii	"p_realprio\000"
 4046      616C7072 
 4046      696F00
 4047              	.LASF6:
 4048 0470 5F5F696E 		.ascii	"__int32_t\000"
 4048      7433325F 
 4048      7400
 4049              	.LASF40:
 4050 047a 705F7469 		.ascii	"p_time\000"
 4050      6D6500
 4051              	.LASF83:
 4052 0481 63684D42 		.ascii	"chMBPostAhead\000"
 4052      506F7374 
 4052      41686561 
 4052      6400
 4053              	.LASF52:
 4054 048f 696E7463 		.ascii	"intctx\000"
 4054      747800
 4055              	.LASF42:
 4056 0496 705F6D73 		.ascii	"p_msgqueue\000"
ARM GAS  /tmp/cc2eAqjR.s 			page 76


 4056      67717565 
 4056      756500
 4057              	.LASF85:
 4058 04a1 63684D42 		.ascii	"chMBFetch\000"
 4058      46657463 
 4058      6800
 4059              	.LASF55:
 4060 04ab 53656D61 		.ascii	"Semaphore\000"
 4060      70686F72 
 4060      6500
 4061              	.LASF66:
 4062 04b5 6D625F66 		.ascii	"mb_fullsem\000"
 4062      756C6C73 
 4062      656D00
 4063              	.LASF38:
 4064 04c0 705F7265 		.ascii	"p_refs\000"
 4064      667300
 4065              	.LASF89:
 4066 04c7 63685365 		.ascii	"chSemResetI\000"
 4066      6D526573 
 4066      65744900 
 4067              	.LASF13:
 4068 04d3 75696E74 		.ascii	"uint8_t\000"
 4068      385F7400 
 4069              	.LASF71:
 4070 04db 77746F62 		.ascii	"wtobjp\000"
 4070      6A7000
 4071              	.LASF34:
 4072 04e2 705F6E61 		.ascii	"p_name\000"
 4072      6D6500
 4073              	.LASF60:
 4074 04e9 6D5F6F77 		.ascii	"m_owner\000"
 4074      6E657200 
 4075              	.LASF31:
 4076 04f1 705F6374 		.ascii	"p_ctx\000"
 4076      7800
 4077              	.LASF41:
 4078 04f7 705F7761 		.ascii	"p_waiting\000"
 4078      6974696E 
 4078      6700
 4079              	.LASF87:
 4080 0501 63685365 		.ascii	"chSemInit\000"
 4080      6D496E69 
 4080      7400
 4081              		.ident	"GCC: (15:4.9.3+svn231177-1) 4.9.3 20150529 (prerelease)"
ARM GAS  /tmp/cc2eAqjR.s 			page 77


DEFINED SYMBOLS
                            *ABS*:0000000000000000 chmboxes.c
     /tmp/cc2eAqjR.s:19     .text.chMBInit:0000000000000000 $t
     /tmp/cc2eAqjR.s:25     .text.chMBInit:0000000000000000 chMBInit
     /tmp/cc2eAqjR.s:92     .text.chMBInit:000000000000003c $d
     /tmp/cc2eAqjR.s:97     .text.chMBReset:0000000000000000 $t
     /tmp/cc2eAqjR.s:103    .text.chMBReset:0000000000000000 chMBReset
     /tmp/cc2eAqjR.s:174    .text.chMBReset:0000000000000048 $d
     /tmp/cc2eAqjR.s:179    .text.chMBPostS:0000000000000000 $t
     /tmp/cc2eAqjR.s:185    .text.chMBPostS:0000000000000000 chMBPostS
     /tmp/cc2eAqjR.s:263    .text.chMBPostS:0000000000000048 $d
     /tmp/cc2eAqjR.s:268    .text.chMBPost:0000000000000000 $t
     /tmp/cc2eAqjR.s:274    .text.chMBPost:0000000000000000 chMBPost
     /tmp/cc2eAqjR.s:329    .text.chMBPostI:0000000000000000 $t
     /tmp/cc2eAqjR.s:335    .text.chMBPostI:0000000000000000 chMBPostI
     /tmp/cc2eAqjR.s:406    .text.chMBPostI:0000000000000044 $d
     /tmp/cc2eAqjR.s:411    .text.chMBPostAheadS:0000000000000000 $t
     /tmp/cc2eAqjR.s:417    .text.chMBPostAheadS:0000000000000000 chMBPostAheadS
     /tmp/cc2eAqjR.s:497    .text.chMBPostAheadS:000000000000004c $d
     /tmp/cc2eAqjR.s:502    .text.chMBPostAhead:0000000000000000 $t
     /tmp/cc2eAqjR.s:508    .text.chMBPostAhead:0000000000000000 chMBPostAhead
     /tmp/cc2eAqjR.s:563    .text.chMBPostAheadI:0000000000000000 $t
     /tmp/cc2eAqjR.s:569    .text.chMBPostAheadI:0000000000000000 chMBPostAheadI
     /tmp/cc2eAqjR.s:639    .text.chMBPostAheadI:0000000000000044 $d
     /tmp/cc2eAqjR.s:644    .text.chMBFetchS:0000000000000000 $t
     /tmp/cc2eAqjR.s:650    .text.chMBFetchS:0000000000000000 chMBFetchS
     /tmp/cc2eAqjR.s:731    .text.chMBFetchS:000000000000004c $d
     /tmp/cc2eAqjR.s:736    .text.chMBFetch:0000000000000000 $t
     /tmp/cc2eAqjR.s:742    .text.chMBFetch:0000000000000000 chMBFetch
     /tmp/cc2eAqjR.s:797    .text.chMBFetchI:0000000000000000 $t
     /tmp/cc2eAqjR.s:803    .text.chMBFetchI:0000000000000000 chMBFetchI
     /tmp/cc2eAqjR.s:878    .text.chMBFetchI:0000000000000048 $d
     /tmp/cc2eAqjR.s:883    .rodata.str1.4:0000000000000000 $d
                     .debug_frame:0000000000000010 $d

UNDEFINED SYMBOLS
chSemInit
chDbgPanic
dbg_check_lock
chSemResetI
chSchRescheduleS
dbg_check_unlock
chDbgCheckClassS
chSemWaitTimeoutS
chSemSignalI
chDbgCheckClassI
