ARM GAS  /tmp/cc5dJfi9.s 			page 1


   1              		.syntax unified
   2              		.cpu cortex-m4
   3              		.fpu softvfp
   4              		.eabi_attribute 20, 1
   5              		.eabi_attribute 21, 1
   6              		.eabi_attribute 23, 3
   7              		.eabi_attribute 24, 1
   8              		.eabi_attribute 25, 1
   9              		.eabi_attribute 26, 1
  10              		.eabi_attribute 30, 2
  11              		.eabi_attribute 34, 1
  12              		.eabi_attribute 18, 4
  13              		.thumb
  14              		.file	"chmempools.c"
  15              		.text
  16              	.Ltext0:
  17              		.cfi_sections	.debug_frame
  18              		.section	.text.chPoolInit,"ax",%progbits
  19              		.align	2
  20              		.p2align 4,,15
  21              		.global	chPoolInit
  22              		.thumb
  23              		.thumb_func
  24              		.type	chPoolInit, %function
  25              	chPoolInit:
  26              	.LFB7:
  27              		.file 1 "../../ChibiOS_2.6.5/os/kernel/src/chmempools.c"
  28              		.loc 1 62 0
  29              		.cfi_startproc
  30              		@ args = 0, pretend = 0, frame = 0
  31              		@ frame_needed = 0, uses_anonymous_args = 0
  32              	.LVL0:
  33 0000 70B5     		push	{r4, r5, r6, lr}
  34              		.cfi_def_cfa_offset 16
  35              		.cfi_offset 4, -16
  36              		.cfi_offset 5, -12
  37              		.cfi_offset 6, -8
  38              		.cfi_offset 14, -4
  39              		.loc 1 62 0
  40 0002 0D46     		mov	r5, r1
  41 0004 1646     		mov	r6, r2
  42              		.loc 1 64 0
  43 0006 0446     		mov	r4, r0
  44 0008 08B1     		cbz	r0, .L2
  45              		.loc 1 64 0 is_stmt 0 discriminator 2
  46 000a 0329     		cmp	r1, #3
  47 000c 02D8     		bhi	.L3
  48              	.L2:
  49              		.loc 1 64 0 discriminator 3
  50 000e 0348     		ldr	r0, .L9
  51              	.LVL1:
  52 0010 FFF7FEFF 		bl	chDbgPanic
  53              	.LVL2:
  54              	.L3:
  55              		.loc 1 66 0 is_stmt 1
  56 0014 0023     		movs	r3, #0
  57 0016 84E86800 		stmia	r4, {r3, r5, r6}
ARM GAS  /tmp/cc5dJfi9.s 			page 2


  58 001a 70BD     		pop	{r4, r5, r6, pc}
  59              	.LVL3:
  60              	.L10:
  61              		.align	2
  62              	.L9:
  63 001c 00000000 		.word	.LC0
  64              		.cfi_endproc
  65              	.LFE7:
  66              		.size	chPoolInit, .-chPoolInit
  67              		.section	.text.chPoolAllocI,"ax",%progbits
  68              		.align	2
  69              		.p2align 4,,15
  70              		.global	chPoolAllocI
  71              		.thumb
  72              		.thumb_func
  73              		.type	chPoolAllocI, %function
  74              	chPoolAllocI:
  75              	.LFB9:
  76              		.loc 1 105 0
  77              		.cfi_startproc
  78              		@ args = 0, pretend = 0, frame = 0
  79              		@ frame_needed = 0, uses_anonymous_args = 0
  80              	.LVL4:
  81 0000 10B5     		push	{r4, lr}
  82              		.cfi_def_cfa_offset 8
  83              		.cfi_offset 4, -8
  84              		.cfi_offset 14, -4
  85              		.loc 1 105 0
  86 0002 0446     		mov	r4, r0
  87              		.loc 1 108 0
  88 0004 FFF7FEFF 		bl	chDbgCheckClassI
  89              	.LVL5:
  90              		.loc 1 109 0
  91 0008 5CB1     		cbz	r4, .L19
  92              	.L12:
  93              		.loc 1 111 0
  94 000a 2068     		ldr	r0, [r4]
  95              	.LVL6:
  96 000c 10B1     		cbz	r0, .L13
  97              		.loc 1 112 0
  98 000e 0368     		ldr	r3, [r0]
  99 0010 2360     		str	r3, [r4]
 100 0012 10BD     		pop	{r4, pc}
 101              	.LVL7:
 102              	.L13:
 103              		.loc 1 113 0
 104 0014 A368     		ldr	r3, [r4, #8]
 105 0016 1BB1     		cbz	r3, .L14
 106              		.loc 1 114 0
 107 0018 6068     		ldr	r0, [r4, #4]
 108              	.LVL8:
 109              		.loc 1 116 0
 110 001a BDE81040 		pop	{r4, lr}
 111              		.cfi_remember_state
 112              		.cfi_restore 14
 113              		.cfi_restore 4
 114              		.cfi_def_cfa_offset 0
ARM GAS  /tmp/cc5dJfi9.s 			page 3


 115              	.LVL9:
 116              		.loc 1 114 0
 117 001e 1847     		bx	r3
 118              	.LVL10:
 119              	.L14:
 120              		.cfi_restore_state
 121              		.loc 1 116 0
 122 0020 10BD     		pop	{r4, pc}
 123              	.LVL11:
 124              	.L19:
 125              		.loc 1 109 0 discriminator 1
 126 0022 0248     		ldr	r0, .L20
 127 0024 FFF7FEFF 		bl	chDbgPanic
 128              	.LVL12:
 129 0028 EFE7     		b	.L12
 130              	.L21:
 131 002a 00BF     		.align	2
 132              	.L20:
 133 002c 10000000 		.word	.LC1
 134              		.cfi_endproc
 135              	.LFE9:
 136              		.size	chPoolAllocI, .-chPoolAllocI
 137              		.section	.text.chPoolAlloc,"ax",%progbits
 138              		.align	2
 139              		.p2align 4,,15
 140              		.global	chPoolAlloc
 141              		.thumb
 142              		.thumb_func
 143              		.type	chPoolAlloc, %function
 144              	chPoolAlloc:
 145              	.LFB10:
 146              		.loc 1 128 0
 147              		.cfi_startproc
 148              		@ args = 0, pretend = 0, frame = 0
 149              		@ frame_needed = 0, uses_anonymous_args = 0
 150              	.LVL13:
 151 0000 10B5     		push	{r4, lr}
 152              		.cfi_def_cfa_offset 8
 153              		.cfi_offset 4, -8
 154              		.cfi_offset 14, -4
 155              	.LBB2:
 156              		.loc 1 131 0
 157 0002 2023     		movs	r3, #32
 158              	.LBE2:
 159              		.loc 1 128 0
 160 0004 0446     		mov	r4, r0
 161              	.LBB3:
 162              		.loc 1 131 0
 163              	@ 131 "../../ChibiOS_2.6.5/os/kernel/src/chmempools.c" 1
 164 0006 83F31188 		msr     BASEPRI, r3
 165              	@ 0 "" 2
 166              		.thumb
 167              	.LBE3:
 168 000a FFF7FEFF 		bl	dbg_check_lock
 169              	.LVL14:
 170              		.loc 1 132 0
 171 000e 2046     		mov	r0, r4
ARM GAS  /tmp/cc5dJfi9.s 			page 4


 172 0010 FFF7FEFF 		bl	chPoolAllocI
 173              	.LVL15:
 174 0014 0446     		mov	r4, r0
 175              	.LVL16:
 176              		.loc 1 133 0
 177 0016 FFF7FEFF 		bl	dbg_check_unlock
 178              	.LVL17:
 179              	.LBB4:
 180 001a 0023     		movs	r3, #0
 181              	@ 133 "../../ChibiOS_2.6.5/os/kernel/src/chmempools.c" 1
 182 001c 83F31188 		msr     BASEPRI, r3
 183              	@ 0 "" 2
 184              		.thumb
 185              	.LBE4:
 186              		.loc 1 135 0
 187 0020 2046     		mov	r0, r4
 188 0022 10BD     		pop	{r4, pc}
 189              		.cfi_endproc
 190              	.LFE10:
 191              		.size	chPoolAlloc, .-chPoolAlloc
 192              		.section	.text.chPoolFreeI,"ax",%progbits
 193              		.align	2
 194              		.p2align 4,,15
 195              		.global	chPoolFreeI
 196              		.thumb
 197              		.thumb_func
 198              		.type	chPoolFreeI, %function
 199              	chPoolFreeI:
 200              	.LFB11:
 201              		.loc 1 149 0
 202              		.cfi_startproc
 203              		@ args = 0, pretend = 0, frame = 0
 204              		@ frame_needed = 0, uses_anonymous_args = 0
 205              	.LVL18:
 206 0000 38B5     		push	{r3, r4, r5, lr}
 207              		.cfi_def_cfa_offset 16
 208              		.cfi_offset 3, -16
 209              		.cfi_offset 4, -12
 210              		.cfi_offset 5, -8
 211              		.cfi_offset 14, -4
 212              		.loc 1 149 0
 213 0002 0446     		mov	r4, r0
 214 0004 0D46     		mov	r5, r1
 215              	.LVL19:
 216              		.loc 1 152 0
 217 0006 FFF7FEFF 		bl	chDbgCheckClassI
 218              	.LVL20:
 219              		.loc 1 153 0
 220 000a 24B1     		cbz	r4, .L25
 221              		.loc 1 153 0 is_stmt 0 discriminator 2
 222 000c 1DB1     		cbz	r5, .L25
 223              		.loc 1 155 0 is_stmt 1
 224 000e 2368     		ldr	r3, [r4]
 225 0010 2B60     		str	r3, [r5]
 226              		.loc 1 156 0
 227 0012 2560     		str	r5, [r4]
 228 0014 38BD     		pop	{r3, r4, r5, pc}
ARM GAS  /tmp/cc5dJfi9.s 			page 5


 229              	.LVL21:
 230              	.L25:
 231              		.loc 1 153 0 discriminator 3
 232 0016 0348     		ldr	r0, .L31
 233 0018 FFF7FEFF 		bl	chDbgPanic
 234              	.LVL22:
 235              		.loc 1 155 0 discriminator 3
 236 001c 2368     		ldr	r3, [r4]
 237 001e 2B60     		str	r3, [r5]
 238              		.loc 1 156 0 discriminator 3
 239 0020 2560     		str	r5, [r4]
 240 0022 38BD     		pop	{r3, r4, r5, pc}
 241              	.LVL23:
 242              	.L32:
 243              		.align	2
 244              	.L31:
 245 0024 24000000 		.word	.LC2
 246              		.cfi_endproc
 247              	.LFE11:
 248              		.size	chPoolFreeI, .-chPoolFreeI
 249              		.section	.text.chPoolFree,"ax",%progbits
 250              		.align	2
 251              		.p2align 4,,15
 252              		.global	chPoolFree
 253              		.thumb
 254              		.thumb_func
 255              		.type	chPoolFree, %function
 256              	chPoolFree:
 257              	.LFB12:
 258              		.loc 1 171 0
 259              		.cfi_startproc
 260              		@ args = 0, pretend = 0, frame = 0
 261              		@ frame_needed = 0, uses_anonymous_args = 0
 262              	.LVL24:
 263 0000 38B5     		push	{r3, r4, r5, lr}
 264              		.cfi_def_cfa_offset 16
 265              		.cfi_offset 3, -16
 266              		.cfi_offset 4, -12
 267              		.cfi_offset 5, -8
 268              		.cfi_offset 14, -4
 269              		.loc 1 171 0
 270 0002 0546     		mov	r5, r0
 271 0004 0C46     		mov	r4, r1
 272              	.LBB5:
 273              		.loc 1 173 0
 274 0006 2023     		movs	r3, #32
 275              	@ 173 "../../ChibiOS_2.6.5/os/kernel/src/chmempools.c" 1
 276 0008 83F31188 		msr     BASEPRI, r3
 277              	@ 0 "" 2
 278              		.thumb
 279              	.LBE5:
 280 000c FFF7FEFF 		bl	dbg_check_lock
 281              	.LVL25:
 282              		.loc 1 174 0
 283 0010 2846     		mov	r0, r5
 284 0012 2146     		mov	r1, r4
 285 0014 FFF7FEFF 		bl	chPoolFreeI
ARM GAS  /tmp/cc5dJfi9.s 			page 6


 286              	.LVL26:
 287              		.loc 1 175 0
 288 0018 FFF7FEFF 		bl	dbg_check_unlock
 289              	.LVL27:
 290              	.LBB6:
 291 001c 0023     		movs	r3, #0
 292              	@ 175 "../../ChibiOS_2.6.5/os/kernel/src/chmempools.c" 1
 293 001e 83F31188 		msr     BASEPRI, r3
 294              	@ 0 "" 2
 295              		.thumb
 296 0022 38BD     		pop	{r3, r4, r5, pc}
 297              	.LBE6:
 298              		.cfi_endproc
 299              	.LFE12:
 300              		.size	chPoolFree, .-chPoolFree
 301              		.section	.text.chPoolLoadArray,"ax",%progbits
 302              		.align	2
 303              		.p2align 4,,15
 304              		.global	chPoolLoadArray
 305              		.thumb
 306              		.thumb_func
 307              		.type	chPoolLoadArray, %function
 308              	chPoolLoadArray:
 309              	.LFB8:
 310              		.loc 1 84 0
 311              		.cfi_startproc
 312              		@ args = 0, pretend = 0, frame = 0
 313              		@ frame_needed = 0, uses_anonymous_args = 0
 314              	.LVL28:
 315 0000 70B5     		push	{r4, r5, r6, lr}
 316              		.cfi_def_cfa_offset 16
 317              		.cfi_offset 4, -16
 318              		.cfi_offset 5, -12
 319              		.cfi_offset 6, -8
 320              		.cfi_offset 14, -4
 321              		.loc 1 84 0
 322 0002 0D46     		mov	r5, r1
 323 0004 1446     		mov	r4, r2
 324              		.loc 1 86 0
 325 0006 0646     		mov	r6, r0
 326 0008 28B1     		cbz	r0, .L36
 327              		.loc 1 86 0 is_stmt 0 discriminator 2
 328 000a 42B9     		cbnz	r2, .L38
 329              		.loc 1 86 0
 330 000c 0948     		ldr	r0, .L43
 331              	.LVL29:
 332              		.loc 1 93 0 is_stmt 1
 333 000e BDE87040 		pop	{r4, r5, r6, lr}
 334              		.cfi_remember_state
 335              		.cfi_restore 14
 336              		.cfi_restore 6
 337              		.cfi_restore 5
 338              		.cfi_restore 4
 339              		.cfi_def_cfa_offset 0
 340              	.LVL30:
 341              		.loc 1 86 0
 342 0012 FFF7FEBF 		b	chDbgPanic
ARM GAS  /tmp/cc5dJfi9.s 			page 7


 343              	.LVL31:
 344              	.L36:
 345              		.cfi_restore_state
 346              		.loc 1 86 0 is_stmt 0 discriminator 3
 347 0016 0748     		ldr	r0, .L43
 348              	.LVL32:
 349 0018 FFF7FEFF 		bl	chDbgPanic
 350              	.LVL33:
 351              		.loc 1 88 0 is_stmt 1 discriminator 3
 352 001c 44B1     		cbz	r4, .L35
 353              	.LVL34:
 354              	.L38:
 355              		.loc 1 89 0
 356 001e 2946     		mov	r1, r5
 357 0020 3046     		mov	r0, r6
 358 0022 FFF7FEFF 		bl	chPoolFree
 359              	.LVL35:
 360              		.loc 1 90 0
 361 0026 7368     		ldr	r3, [r6, #4]
 362              		.loc 1 88 0
 363 0028 013C     		subs	r4, r4, #1
 364              	.LVL36:
 365              		.loc 1 90 0
 366 002a 1D44     		add	r5, r5, r3
 367              	.LVL37:
 368              		.loc 1 88 0
 369 002c F7D1     		bne	.L38
 370 002e 70BD     		pop	{r4, r5, r6, pc}
 371              	.LVL38:
 372              	.L35:
 373 0030 70BD     		pop	{r4, r5, r6, pc}
 374              	.LVL39:
 375              	.L44:
 376 0032 00BF     		.align	2
 377              	.L43:
 378 0034 34000000 		.word	.LC3
 379              		.cfi_endproc
 380              	.LFE8:
 381              		.size	chPoolLoadArray, .-chPoolLoadArray
 382              		.section	.rodata.str1.4,"aMS",%progbits,1
 383              		.align	2
 384              	.LC0:
 385 0000 22636850 		.ascii	"\"chPoolInit\"()\000"
 385      6F6F6C49 
 385      6E697422 
 385      282900
 386 000f 00       		.space	1
 387              	.LC1:
 388 0010 22636850 		.ascii	"\"chPoolAllocI\"()\000"
 388      6F6F6C41 
 388      6C6C6F63 
 388      49222829 
 388      00
 389 0021 000000   		.space	3
 390              	.LC2:
 391 0024 22636850 		.ascii	"\"chPoolFreeI\"()\000"
 391      6F6F6C46 
ARM GAS  /tmp/cc5dJfi9.s 			page 8


 391      72656549 
 391      22282900 
 392              	.LC3:
 393 0034 22636850 		.ascii	"\"chPoolLoadArray\"()\000"
 393      6F6F6C4C 
 393      6F616441 
 393      72726179 
 393      22282900 
 394              		.text
 395              	.Letext0:
 396              		.file 2 "/usr/lib/gcc/arm-none-eabi/4.9.3/include/stddef.h"
 397              		.file 3 "/usr/include/newlib/machine/_default_types.h"
 398              		.file 4 "/usr/include/newlib/sys/_stdint.h"
 399              		.file 5 "../../ChibiOS_2.6.5/os/kernel/include/chmemcore.h"
 400              		.file 6 "../../ChibiOS_2.6.5/os/kernel/include/chmempools.h"
 401              		.file 7 "../../ChibiOS_2.6.5/os/kernel/include/chdebug.h"