ARM GAS  /tmp/cc0Fhlr9.s 			page 1


   1              		.syntax unified
   2              		.cpu cortex-m4
   3              		.fpu softvfp
   4              		.eabi_attribute 20, 1
   5              		.eabi_attribute 21, 1
   6              		.eabi_attribute 23, 3
   7              		.eabi_attribute 24, 1
   8              		.eabi_attribute 25, 1
   9              		.eabi_attribute 26, 1
  10              		.eabi_attribute 30, 2
  11              		.eabi_attribute 34, 1
  12              		.eabi_attribute 18, 4
  13              		.thumb
  14              		.file	"chmemcore.c"
  15              		.text
  16              	.Ltext0:
  17              		.cfi_sections	.debug_frame
  18              		.section	.text._core_init,"ax",%progbits
  19              		.align	2
  20              		.p2align 4,,15
  21              		.global	_core_init
  22              		.thumb
  23              		.thumb_func
  24              		.type	_core_init, %function
  25              	_core_init:
  26              	.LFB7:
  27              		.file 1 "../../ChibiOS_2.6.5/os/kernel/src/chmemcore.c"
  28              		.loc 1 66 0
  29              		.cfi_startproc
  30              		@ args = 0, pretend = 0, frame = 0
  31              		@ frame_needed = 0, uses_anonymous_args = 0
  32              		@ link register save eliminated.
  33              		.loc 1 70 0
  34 0000 054A     		ldr	r2, .L2
  35              		.loc 1 71 0
  36 0002 064B     		ldr	r3, .L2+4
  37              		.loc 1 70 0
  38 0004 0648     		ldr	r0, .L2+8
  39              		.loc 1 71 0
  40 0006 0749     		ldr	r1, .L2+12
  41              		.loc 1 70 0
  42 0008 22F00702 		bic	r2, r2, #7
  43              		.loc 1 71 0
  44 000c 23F00703 		bic	r3, r3, #7
  45              		.loc 1 70 0
  46 0010 0260     		str	r2, [r0]
  47              		.loc 1 71 0
  48 0012 0B60     		str	r3, [r1]
  49 0014 7047     		bx	lr
  50              	.L3:
  51 0016 00BF     		.align	2
  52              	.L2:
  53 0018 07000000 		.word	__heap_base__+7
  54 001c 00000000 		.word	__heap_end__
  55 0020 00000000 		.word	.LANCHOR0
  56 0024 00000000 		.word	.LANCHOR1
  57              		.cfi_endproc
ARM GAS  /tmp/cc0Fhlr9.s 			page 2


  58              	.LFE7:
  59              		.size	_core_init, .-_core_init
  60              		.section	.text.chCoreAllocI,"ax",%progbits
  61              		.align	2
  62              		.p2align 4,,15
  63              		.global	chCoreAllocI
  64              		.thumb
  65              		.thumb_func
  66              		.type	chCoreAllocI, %function
  67              	chCoreAllocI:
  68              	.LFB9:
  69              		.loc 1 112 0
  70              		.cfi_startproc
  71              		@ args = 0, pretend = 0, frame = 0
  72              		@ frame_needed = 0, uses_anonymous_args = 0
  73              	.LVL0:
  74 0000 10B5     		push	{r4, lr}
  75              		.cfi_def_cfa_offset 8
  76              		.cfi_offset 4, -8
  77              		.cfi_offset 14, -4
  78              		.loc 1 112 0
  79 0002 0446     		mov	r4, r0
  80              		.loc 1 115 0
  81 0004 FFF7FEFF 		bl	chDbgCheckClassI
  82              	.LVL1:
  83              		.loc 1 118 0
  84 0008 0649     		ldr	r1, .L8
  85 000a 074B     		ldr	r3, .L8+4
  86 000c 0868     		ldr	r0, [r1]
  87 000e 1A68     		ldr	r2, [r3]
  88              		.loc 1 117 0
  89 0010 E31D     		adds	r3, r4, #7
  90 0012 23F00703 		bic	r3, r3, #7
  91              	.LVL2:
  92              		.loc 1 118 0
  93 0016 121A     		subs	r2, r2, r0
  94 0018 9342     		cmp	r3, r2
  95              	.LVL3:
  96              		.loc 1 121 0
  97 001a 9ABF     		itte	ls
  98 001c 1B18     		addls	r3, r3, r0
  99              	.LVL4:
 100 001e 0B60     		strls	r3, [r1]
 101              		.loc 1 119 0
 102 0020 0020     		movhi	r0, #0
 103              	.LVL5:
 104              		.loc 1 123 0
 105 0022 10BD     		pop	{r4, pc}
 106              	.LVL6:
 107              	.L9:
 108              		.align	2
 109              	.L8:
 110 0024 00000000 		.word	.LANCHOR0
 111 0028 00000000 		.word	.LANCHOR1
 112              		.cfi_endproc
 113              	.LFE9:
 114              		.size	chCoreAllocI, .-chCoreAllocI
ARM GAS  /tmp/cc0Fhlr9.s 			page 3


 115              		.section	.text.chCoreAlloc,"ax",%progbits
 116              		.align	2
 117              		.p2align 4,,15
 118              		.global	chCoreAlloc
 119              		.thumb
 120              		.thumb_func
 121              		.type	chCoreAlloc, %function
 122              	chCoreAlloc:
 123              	.LFB8:
 124              		.loc 1 91 0
 125              		.cfi_startproc
 126              		@ args = 0, pretend = 0, frame = 0
 127              		@ frame_needed = 0, uses_anonymous_args = 0
 128              	.LVL7:
 129 0000 10B5     		push	{r4, lr}
 130              		.cfi_def_cfa_offset 8
 131              		.cfi_offset 4, -8
 132              		.cfi_offset 14, -4
 133              	.LBB2:
 134              		.loc 1 94 0
 135 0002 2023     		movs	r3, #32
 136              	.LBE2:
 137              		.loc 1 91 0
 138 0004 0446     		mov	r4, r0
 139              	.LBB3:
 140              		.loc 1 94 0
 141              	@ 94 "../../ChibiOS_2.6.5/os/kernel/src/chmemcore.c" 1
 142 0006 83F31188 		msr     BASEPRI, r3
 143              	@ 0 "" 2
 144              		.thumb
 145              	.LBE3:
 146 000a FFF7FEFF 		bl	dbg_check_lock
 147              	.LVL8:
 148              		.loc 1 95 0
 149 000e 2046     		mov	r0, r4
 150 0010 FFF7FEFF 		bl	chCoreAllocI
 151              	.LVL9:
 152 0014 0446     		mov	r4, r0
 153              	.LVL10:
 154              		.loc 1 96 0
 155 0016 FFF7FEFF 		bl	dbg_check_unlock
 156              	.LVL11:
 157              	.LBB4:
 158 001a 0023     		movs	r3, #0
 159              	@ 96 "../../ChibiOS_2.6.5/os/kernel/src/chmemcore.c" 1
 160 001c 83F31188 		msr     BASEPRI, r3
 161              	@ 0 "" 2
 162              		.thumb
 163              	.LBE4:
 164              		.loc 1 98 0
 165 0020 2046     		mov	r0, r4
 166 0022 10BD     		pop	{r4, pc}
 167              		.cfi_endproc
 168              	.LFE8:
 169              		.size	chCoreAlloc, .-chCoreAlloc
 170              		.section	.text.chCoreStatus,"ax",%progbits
 171              		.align	2
ARM GAS  /tmp/cc0Fhlr9.s 			page 4


 172              		.p2align 4,,15
 173              		.global	chCoreStatus
 174              		.thumb
 175              		.thumb_func
 176              		.type	chCoreStatus, %function
 177              	chCoreStatus:
 178              	.LFB10:
 179              		.loc 1 132 0
 180              		.cfi_startproc
 181              		@ args = 0, pretend = 0, frame = 0
 182              		@ frame_needed = 0, uses_anonymous_args = 0
 183              		@ link register save eliminated.
 184              		.loc 1 134 0
 185 0000 024A     		ldr	r2, .L13
 186 0002 034B     		ldr	r3, .L13+4
 187 0004 1068     		ldr	r0, [r2]
 188 0006 1B68     		ldr	r3, [r3]
 189              		.loc 1 135 0
 190 0008 C01A     		subs	r0, r0, r3
 191 000a 7047     		bx	lr
 192              	.L14:
 193              		.align	2
 194              	.L13:
 195 000c 00000000 		.word	.LANCHOR1
 196 0010 00000000 		.word	.LANCHOR0
 197              		.cfi_endproc
 198              	.LFE10:
 199              		.size	chCoreStatus, .-chCoreStatus
 200              		.section	.bss.endmem,"aw",%nobits
 201              		.align	2
 202              		.set	.LANCHOR1,. + 0
 203              		.type	endmem, %object
 204              		.size	endmem, 4
 205              	endmem:
 206 0000 00000000 		.space	4
 207              		.section	.bss.nextmem,"aw",%nobits
 208              		.align	2
 209              		.set	.LANCHOR0,. + 0
 210              		.type	nextmem, %object
 211              		.size	nextmem, 4
 212              	nextmem:
 213 0000 00000000 		.space	4
 214              		.text
 215              	.Letext0:
 216              		.file 2 "/usr/lib/gcc/arm-none-eabi/4.9.3/include/stddef.h"
 217              		.file 3 "/usr/include/newlib/machine/_default_types.h"
 218              		.file 4 "/usr/include/newlib/sys/_stdint.h"
 219              		.file 5 "../../ChibiOS_2.6.5/os/kernel/include/chdebug.h"