ARM GAS  /tmp/cc4tjo3O.s 			page 1


   1              		.syntax unified
   2              		.cpu cortex-m4
   3              		.fpu softvfp
   4              		.eabi_attribute 20, 1
   5              		.eabi_attribute 21, 1
   6              		.eabi_attribute 23, 3
   7              		.eabi_attribute 24, 1
   8              		.eabi_attribute 25, 1
   9              		.eabi_attribute 26, 1
  10              		.eabi_attribute 30, 2
  11              		.eabi_attribute 34, 1
  12              		.eabi_attribute 18, 4
  13              		.thumb
  14              		.file	"chmsg.c"
  15              		.text
  16              	.Ltext0:
  17              		.cfi_sections	.debug_frame
  18              		.section	.text.chMsgSend,"ax",%progbits
  19              		.align	2
  20              		.p2align 4,,15
  21              		.global	chMsgSend
  22              		.thumb
  23              		.thumb_func
  24              		.type	chMsgSend, %function
  25              	chMsgSend:
  26              	.LFB7:
  27              		.file 1 "../../ChibiOS_2.6.5/os/kernel/src/chmsg.c"
  28              		.loc 1 75 0
  29              		.cfi_startproc
  30              		@ args = 0, pretend = 0, frame = 0
  31              		@ frame_needed = 0, uses_anonymous_args = 0
  32              	.LVL0:
  33              		.loc 1 76 0
  34 0000 154B     		ldr	r3, .L8
  35              		.loc 1 75 0
  36 0002 70B5     		push	{r4, r5, r6, lr}
  37              		.cfi_def_cfa_offset 16
  38              		.cfi_offset 4, -16
  39              		.cfi_offset 5, -12
  40              		.cfi_offset 6, -8
  41              		.cfi_offset 14, -4
  42              		.loc 1 75 0
  43 0004 0E46     		mov	r6, r1
  44              		.loc 1 76 0
  45 0006 9C69     		ldr	r4, [r3, #24]
  46              	.LVL1:
  47              		.loc 1 78 0
  48 0008 0546     		mov	r5, r0
  49 000a 00B3     		cbz	r0, .L6
  50              	.LVL2:
  51              	.L2:
  52              	.LBB10:
  53              		.loc 1 80 0
  54 000c 2023     		movs	r3, #32
  55              	@ 80 "../../ChibiOS_2.6.5/os/kernel/src/chmsg.c" 1
  56 000e 83F31188 		msr     BASEPRI, r3
  57              	@ 0 "" 2
ARM GAS  /tmp/cc4tjo3O.s 			page 2


  58              		.thumb
  59              	.LBE10:
  60 0012 FFF7FEFF 		bl	dbg_check_lock
  61              	.LVL3:
  62              		.loc 1 82 0
  63 0016 05F13002 		add	r2, r5, #48
  64              		.loc 1 84 0
  65 001a 95F82000 		ldrb	r0, [r5, #32]	@ zero_extendqisi2
  66              		.loc 1 82 0
  67 001e A262     		str	r2, [r4, #40]
  68              	.LVL4:
  69              	.LBB11:
  70              	.LBB12:
  71              		.file 2 "../../ChibiOS_2.6.5/os/kernel/include/chinline.h"
  72              		.loc 2 55 0
  73 0020 6B6B     		ldr	r3, [r5, #52]
  74              	.LBE12:
  75              	.LBE11:
  76              		.loc 1 81 0
  77 0022 A663     		str	r6, [r4, #56]
  78              		.loc 1 84 0
  79 0024 0C28     		cmp	r0, #12
  80              	.LBB14:
  81              	.LBB13:
  82              		.loc 2 55 0
  83 0026 84E80C00 		stmia	r4, {r2, r3}
  84              		.loc 2 56 0
  85 002a 6C63     		str	r4, [r5, #52]
  86 002c 1C60     		str	r4, [r3]
  87              	.LBE13:
  88              	.LBE14:
  89              		.loc 1 84 0
  90 002e 0AD0     		beq	.L7
  91              	.LVL5:
  92              	.L3:
  93              		.loc 1 86 0
  94 0030 0A20     		movs	r0, #10
  95 0032 FFF7FEFF 		bl	chSchGoSleepS
  96              	.LVL6:
  97              		.loc 1 87 0
  98 0036 A46A     		ldr	r4, [r4, #40]
  99              	.LVL7:
 100              		.loc 1 88 0
 101 0038 FFF7FEFF 		bl	dbg_check_unlock
 102              	.LVL8:
 103              	.LBB15:
 104 003c 0023     		movs	r3, #0
 105              	@ 88 "../../ChibiOS_2.6.5/os/kernel/src/chmsg.c" 1
 106 003e 83F31188 		msr     BASEPRI, r3
 107              	@ 0 "" 2
 108              		.thumb
 109              	.LBE15:
 110              		.loc 1 90 0
 111 0042 2046     		mov	r0, r4
 112 0044 70BD     		pop	{r4, r5, r6, pc}
 113              	.LVL9:
 114              	.L7:
ARM GAS  /tmp/cc4tjo3O.s 			page 3


 115              		.loc 1 85 0
 116 0046 2846     		mov	r0, r5
 117 0048 FFF7FEFF 		bl	chSchReadyI
 118              	.LVL10:
 119 004c F0E7     		b	.L3
 120              	.LVL11:
 121              	.L6:
 122              		.loc 1 78 0 discriminator 1
 123 004e 0348     		ldr	r0, .L8+4
 124              	.LVL12:
 125 0050 FFF7FEFF 		bl	chDbgPanic
 126              	.LVL13:
 127 0054 DAE7     		b	.L2
 128              	.L9:
 129 0056 00BF     		.align	2
 130              	.L8:
 131 0058 00000000 		.word	rlist
 132 005c 00000000 		.word	.LC0
 133              		.cfi_endproc
 134              	.LFE7:
 135              		.size	chMsgSend, .-chMsgSend
 136              		.section	.text.chMsgWait,"ax",%progbits
 137              		.align	2
 138              		.p2align 4,,15
 139              		.global	chMsgWait
 140              		.thumb
 141              		.thumb_func
 142              		.type	chMsgWait, %function
 143              	chMsgWait:
 144              	.LFB8:
 145              		.loc 1 106 0
 146              		.cfi_startproc
 147              		@ args = 0, pretend = 0, frame = 0
 148              		@ frame_needed = 0, uses_anonymous_args = 0
 149 0000 38B5     		push	{r3, r4, r5, lr}
 150              		.cfi_def_cfa_offset 16
 151              		.cfi_offset 3, -16
 152              		.cfi_offset 4, -12
 153              		.cfi_offset 5, -8
 154              		.cfi_offset 14, -4
 155              	.LBB16:
 156              		.loc 1 109 0
 157 0002 2023     		movs	r3, #32
 158              	@ 109 "../../ChibiOS_2.6.5/os/kernel/src/chmsg.c" 1
 159 0004 83F31188 		msr     BASEPRI, r3
 160              	@ 0 "" 2
 161              		.thumb
 162              	.LBE16:
 163              		.loc 1 110 0
 164 0008 0E4D     		ldr	r5, .L14
 165              		.loc 1 109 0
 166 000a FFF7FEFF 		bl	dbg_check_lock
 167              	.LVL14:
 168              		.loc 1 110 0
 169 000e AA69     		ldr	r2, [r5, #24]
 170 0010 1346     		mov	r3, r2
 171 0012 53F8304F 		ldr	r4, [r3, #48]!
ARM GAS  /tmp/cc4tjo3O.s 			page 4


 172 0016 9C42     		cmp	r4, r3
 173 0018 0CD0     		beq	.L13
 174              	.L11:
 175              	.LVL15:
 176              	.LBB17:
 177              	.LBB18:
 178              		.loc 2 62 0
 179 001a 2168     		ldr	r1, [r4]
 180 001c 1163     		str	r1, [r2, #48]
 181              	.LBE18:
 182              	.LBE17:
 183              		.loc 1 113 0
 184 001e 0B22     		movs	r2, #11
 185              	.LBB20:
 186              	.LBB19:
 187              		.loc 2 62 0
 188 0020 4B60     		str	r3, [r1, #4]
 189              	.LBE19:
 190              	.LBE20:
 191              		.loc 1 113 0
 192 0022 84F82020 		strb	r2, [r4, #32]
 193              		.loc 1 114 0
 194 0026 FFF7FEFF 		bl	dbg_check_unlock
 195              	.LVL16:
 196              	.LBB21:
 197 002a 0023     		movs	r3, #0
 198              	@ 114 "../../ChibiOS_2.6.5/os/kernel/src/chmsg.c" 1
 199 002c 83F31188 		msr     BASEPRI, r3
 200              	@ 0 "" 2
 201              		.thumb
 202              	.LBE21:
 203              		.loc 1 116 0
 204 0030 2046     		mov	r0, r4
 205 0032 38BD     		pop	{r3, r4, r5, pc}
 206              	.LVL17:
 207              	.L13:
 208              		.loc 1 111 0
 209 0034 0C20     		movs	r0, #12
 210 0036 FFF7FEFF 		bl	chSchGoSleepS
 211              	.LVL18:
 212 003a AA69     		ldr	r2, [r5, #24]
 213 003c 146B     		ldr	r4, [r2, #48]
 214 003e 02F13003 		add	r3, r2, #48
 215 0042 EAE7     		b	.L11
 216              	.L15:
 217              		.align	2
 218              	.L14:
 219 0044 00000000 		.word	rlist
 220              		.cfi_endproc
 221              	.LFE8:
 222              		.size	chMsgWait, .-chMsgWait
 223              		.section	.text.chMsgRelease,"ax",%progbits
 224              		.align	2
 225              		.p2align 4,,15
 226              		.global	chMsgRelease
 227              		.thumb
 228              		.thumb_func
ARM GAS  /tmp/cc4tjo3O.s 			page 5


 229              		.type	chMsgRelease, %function
 230              	chMsgRelease:
 231              	.LFB9:
 232              		.loc 1 128 0
 233              		.cfi_startproc
 234              		@ args = 0, pretend = 0, frame = 0
 235              		@ frame_needed = 0, uses_anonymous_args = 0
 236              	.LVL19:
 237 0000 38B5     		push	{r3, r4, r5, lr}
 238              		.cfi_def_cfa_offset 16
 239              		.cfi_offset 3, -16
 240              		.cfi_offset 4, -12
 241              		.cfi_offset 5, -8
 242              		.cfi_offset 14, -4
 243              		.loc 1 128 0
 244 0002 0446     		mov	r4, r0
 245 0004 0D46     		mov	r5, r1
 246              	.LBB22:
 247              		.loc 1 130 0
 248 0006 2023     		movs	r3, #32
 249              	@ 130 "../../ChibiOS_2.6.5/os/kernel/src/chmsg.c" 1
 250 0008 83F31188 		msr     BASEPRI, r3
 251              	@ 0 "" 2
 252              		.thumb
 253              	.LBE22:
 254 000c FFF7FEFF 		bl	dbg_check_lock
 255              	.LVL20:
 256              		.loc 1 131 0
 257 0010 94F82030 		ldrb	r3, [r4, #32]	@ zero_extendqisi2
 258 0014 0B2B     		cmp	r3, #11
 259 0016 02D0     		beq	.L17
 260              		.loc 1 131 0 is_stmt 0 discriminator 1
 261 0018 0648     		ldr	r0, .L22
 262 001a FFF7FEFF 		bl	chDbgPanic
 263              	.LVL21:
 264              	.L17:
 265              		.loc 1 133 0 is_stmt 1
 266 001e 2046     		mov	r0, r4
 267 0020 2946     		mov	r1, r5
 268 0022 FFF7FEFF 		bl	chSchWakeupS
 269              	.LVL22:
 270              		.loc 1 134 0
 271 0026 FFF7FEFF 		bl	dbg_check_unlock
 272              	.LVL23:
 273              	.LBB23:
 274 002a 0023     		movs	r3, #0
 275              	@ 134 "../../ChibiOS_2.6.5/os/kernel/src/chmsg.c" 1
 276 002c 83F31188 		msr     BASEPRI, r3
 277              	@ 0 "" 2
 278              		.thumb
 279 0030 38BD     		pop	{r3, r4, r5, pc}
 280              	.LVL24:
 281              	.L23:
 282 0032 00BF     		.align	2
 283              	.L22:
 284 0034 10000000 		.word	.LC1
 285              	.LBE23:
ARM GAS  /tmp/cc4tjo3O.s 			page 6


 286              		.cfi_endproc
 287              	.LFE9:
 288              		.size	chMsgRelease, .-chMsgRelease
 289              		.section	.rodata.str1.4,"aMS",%progbits,1
 290              		.align	2
 291              	.LC0:
 292 0000 2263684D 		.ascii	"\"chMsgSend\"()\000"
 292      73675365 
 292      6E642228 
 292      2900
 293 000e 0000     		.space	2
 294              	.LC1:
 295 0010 63684D73 		.ascii	"chMsgRelease(), #1\000"
 295      6752656C 
 295      65617365 
 295      28292C20 
 295      233100
 296              		.text
 297              	.Letext0:
 298              		.file 3 "/usr/include/newlib/machine/_default_types.h"
 299              		.file 4 "/usr/include/newlib/sys/_stdint.h"
 300              		.file 5 "../../ChibiOS_2.6.5/os/ports/GCC/ARMCMx/chtypes.h"
 301              		.file 6 "../../ChibiOS_2.6.5/os/kernel/include/chlists.h"
 302              		.file 7 "../../ChibiOS_2.6.5/os/kernel/include/chthreads.h"
 303              		.file 8 "../../ChibiOS_2.6.5/os/ports/GCC/ARMCMx/chcore_v7m.h"
 304              		.file 9 "../../ChibiOS_2.6.5/os/kernel/include/chschd.h"
 305              		.file 10 "../../ChibiOS_2.6.5/os/kernel/include/chmtx.h"
 306              		.file 11 "../../ChibiOS_2.6.5/os/kernel/include/chdebug.h"