ARM GAS  /tmp/cc8oKFvA.s 			page 1


   1              		.syntax unified
   2              		.cpu cortex-m4
   3              		.fpu softvfp
   4              		.eabi_attribute 20, 1
   5              		.eabi_attribute 21, 1
   6              		.eabi_attribute 23, 3
   7              		.eabi_attribute 24, 1
   8              		.eabi_attribute 25, 1
   9              		.eabi_attribute 26, 1
  10              		.eabi_attribute 30, 2
  11              		.eabi_attribute 34, 1
  12              		.eabi_attribute 18, 4
  13              		.thumb
  14              		.file	"chmtx.c"
  15              		.text
  16              	.Ltext0:
  17              		.cfi_sections	.debug_frame
  18              		.section	.text.chMtxInit,"ax",%progbits
  19              		.align	2
  20              		.p2align 4,,15
  21              		.global	chMtxInit
  22              		.thumb
  23              		.thumb_func
  24              		.type	chMtxInit, %function
  25              	chMtxInit:
  26              	.LFB7:
  27              		.file 1 "../../ChibiOS_2.6.5/os/kernel/src/chmtx.c"
  28              		.loc 1 86 0
  29              		.cfi_startproc
  30              		@ args = 0, pretend = 0, frame = 0
  31              		@ frame_needed = 0, uses_anonymous_args = 0
  32              	.LVL0:
  33 0000 10B5     		push	{r4, lr}
  34              		.cfi_def_cfa_offset 8
  35              		.cfi_offset 4, -8
  36              		.cfi_offset 14, -4
  37              		.loc 1 88 0
  38 0002 0446     		mov	r4, r0
  39 0004 20B1     		cbz	r0, .L5
  40              	.LVL1:
  41              	.L2:
  42              		.loc 1 91 0
  43 0006 0023     		movs	r3, #0
  44              		.loc 1 90 0
  45 0008 6460     		str	r4, [r4, #4]
  46 000a 2460     		str	r4, [r4]
  47              		.loc 1 91 0
  48 000c A360     		str	r3, [r4, #8]
  49 000e 10BD     		pop	{r4, pc}
  50              	.LVL2:
  51              	.L5:
  52              		.loc 1 88 0 discriminator 1
  53 0010 0148     		ldr	r0, .L6
  54              	.LVL3:
  55 0012 FFF7FEFF 		bl	chDbgPanic
  56              	.LVL4:
  57 0016 F6E7     		b	.L2
ARM GAS  /tmp/cc8oKFvA.s 			page 2


  58              	.L7:
  59              		.align	2
  60              	.L6:
  61 0018 00000000 		.word	.LC0
  62              		.cfi_endproc
  63              	.LFE7:
  64              		.size	chMtxInit, .-chMtxInit
  65              		.section	.text.chMtxLockS,"ax",%progbits
  66              		.align	2
  67              		.p2align 4,,15
  68              		.global	chMtxLockS
  69              		.thumb
  70              		.thumb_func
  71              		.type	chMtxLockS, %function
  72              	chMtxLockS:
  73              	.LFB9:
  74              		.loc 1 121 0
  75              		.cfi_startproc
  76              		@ args = 0, pretend = 0, frame = 0
  77              		@ frame_needed = 0, uses_anonymous_args = 0
  78              	.LVL5:
  79              		.loc 1 122 0
  80 0000 3B4B     		ldr	r3, .L38
  81              		.loc 1 121 0
  82 0002 70B5     		push	{r4, r5, r6, lr}
  83              		.cfi_def_cfa_offset 16
  84              		.cfi_offset 4, -16
  85              		.cfi_offset 5, -12
  86              		.cfi_offset 6, -8
  87              		.cfi_offset 14, -4
  88              		.loc 1 121 0
  89 0004 0546     		mov	r5, r0
  90              		.loc 1 122 0
  91 0006 9C69     		ldr	r4, [r3, #24]
  92              	.LVL6:
  93              		.loc 1 124 0
  94 0008 FFF7FEFF 		bl	chDbgCheckClassS
  95              	.LVL7:
  96              		.loc 1 125 0
  97 000c 002D     		cmp	r5, #0
  98 000e 6BD0     		beq	.L36
  99              	.L9:
 100              		.loc 1 128 0
 101 0010 A868     		ldr	r0, [r5, #8]
 102 0012 0028     		cmp	r0, #0
 103 0014 36D0     		beq	.L10
 104              	.LVL8:
 105              	.LBB29:
 106              		.loc 1 135 0
 107 0016 A268     		ldr	r2, [r4, #8]
 108 0018 8368     		ldr	r3, [r0, #8]
 109 001a 9A42     		cmp	r2, r3
 110 001c 07D9     		bls	.L12
 111              	.L17:
 112              		.loc 1 139 0
 113 001e 90F82030 		ldrb	r3, [r0, #32]	@ zero_extendqisi2
 114              		.loc 1 137 0
ARM GAS  /tmp/cc8oKFvA.s 			page 3


 115 0022 8260     		str	r2, [r0, #8]
 116              		.loc 1 139 0
 117 0024 042B     		cmp	r3, #4
 118 0026 46D0     		beq	.L13
 119 0028 052B     		cmp	r3, #5
 120 002a 30D0     		beq	.L14
 121 002c FBB1     		cbz	r3, .L37
 122              	.LVL9:
 123              	.L12:
 124              	.LBB30:
 125              	.LBB31:
 126              		.file 2 "../../ChibiOS_2.6.5/os/kernel/include/chinline.h"
 127              		.loc 2 43 0
 128 002e 2B46     		mov	r3, r5
 129 0030 03E0     		b	.L27
 130              	.LVL10:
 131              	.L24:
 132              		.loc 2 46 0
 133 0032 9968     		ldr	r1, [r3, #8]
 134 0034 A268     		ldr	r2, [r4, #8]
 135 0036 9142     		cmp	r1, r2
 136 0038 02D3     		bcc	.L28
 137              	.L27:
 138              		.loc 2 45 0
 139 003a 1B68     		ldr	r3, [r3]
 140              	.LVL11:
 141              		.loc 2 46 0
 142 003c 9D42     		cmp	r5, r3
 143 003e F8D1     		bne	.L24
 144              	.L28:
 145              		.loc 2 48 0
 146 0040 5A68     		ldr	r2, [r3, #4]
 147 0042 6260     		str	r2, [r4, #4]
 148              		.loc 2 47 0
 149 0044 2360     		str	r3, [r4]
 150              	.LBE31:
 151              	.LBE30:
 152              		.loc 1 175 0
 153 0046 0420     		movs	r0, #4
 154              	.LBB33:
 155              	.LBB32:
 156              		.loc 2 49 0
 157 0048 5C60     		str	r4, [r3, #4]
 158 004a 1460     		str	r4, [r2]
 159              	.LBE32:
 160              	.LBE33:
 161              		.loc 1 174 0
 162 004c A562     		str	r5, [r4, #40]
 163              		.loc 1 175 0
 164 004e FFF7FEFF 		bl	chSchGoSleepS
 165              	.LVL12:
 166              		.loc 1 178 0
 167 0052 AB68     		ldr	r3, [r5, #8]
 168 0054 A342     		cmp	r3, r4
 169 0056 02D0     		beq	.L26
 170              		.loc 1 178 0 is_stmt 0 discriminator 1
 171 0058 2648     		ldr	r0, .L38+4
ARM GAS  /tmp/cc8oKFvA.s 			page 4


 172 005a FFF7FEFF 		bl	chDbgPanic
 173              	.LVL13:
 174              	.L26:
 175              		.loc 1 179 0 is_stmt 1
 176 005e 236C     		ldr	r3, [r4, #64]
 177 0060 AB42     		cmp	r3, r5
 178 0062 13D0     		beq	.L8
 179              		.loc 1 179 0 is_stmt 0 discriminator 1
 180 0064 2448     		ldr	r0, .L38+8
 181              	.LBE29:
 182              		.loc 1 187 0 is_stmt 1 discriminator 1
 183 0066 BDE87040 		pop	{r4, r5, r6, lr}
 184              		.cfi_remember_state
 185              		.cfi_restore 14
 186              		.cfi_restore 6
 187              		.cfi_restore 5
 188              		.cfi_restore 4
 189              		.cfi_def_cfa_offset 0
 190              	.LVL14:
 191              	.LBB50:
 192              		.loc 1 179 0 discriminator 1
 193 006a FFF7FEBF 		b	chDbgPanic
 194              	.LVL15:
 195              	.L37:
 196              		.cfi_restore_state
 197              	.LBB34:
 198              	.LBB35:
 199              		.loc 2 75 0
 200 006e 90E80C00 		ldmia	r0, {r2, r3}
 201              	.LBE35:
 202              	.LBE34:
 203              		.loc 1 164 0
 204 0072 0121     		movs	r1, #1
 205 0074 80F82010 		strb	r1, [r0, #32]
 206              	.LVL16:
 207              	.LBB37:
 208              	.LBB36:
 209              		.loc 2 75 0
 210 0078 1A60     		str	r2, [r3]
 211              		.loc 2 76 0
 212 007a 0268     		ldr	r2, [r0]
 213 007c 5360     		str	r3, [r2, #4]
 214              	.LBE36:
 215              	.LBE37:
 216              		.loc 1 167 0
 217 007e FFF7FEFF 		bl	chSchReadyI
 218              	.LVL17:
 219              		.loc 1 168 0
 220 0082 D4E7     		b	.L12
 221              	.L10:
 222              	.LBE50:
 223              		.loc 1 184 0
 224 0084 236C     		ldr	r3, [r4, #64]
 225 0086 EB60     		str	r3, [r5, #12]
 226              		.loc 1 183 0
 227 0088 AC60     		str	r4, [r5, #8]
 228              		.loc 1 185 0
ARM GAS  /tmp/cc8oKFvA.s 			page 5


 229 008a 2564     		str	r5, [r4, #64]
 230              	.L8:
 231 008c 70BD     		pop	{r4, r5, r6, pc}
 232              	.LVL18:
 233              	.L14:
 234              	.LBB51:
 235              	.LBB38:
 236              	.LBB39:
 237              		.loc 2 75 0
 238 008e 90E80A00 		ldmia	r0, {r1, r3}
 239 0092 1960     		str	r1, [r3]
 240              	.LBE39:
 241              	.LBE38:
 242              		.loc 1 158 0
 243 0094 866A     		ldr	r6, [r0, #40]
 244              	.LVL19:
 245              	.LBB41:
 246              	.LBB40:
 247              		.loc 2 76 0
 248 0096 0168     		ldr	r1, [r0]
 249 0098 4B60     		str	r3, [r1, #4]
 250              	.LBE40:
 251              	.LBE41:
 252              	.LBB42:
 253              	.LBB43:
 254              		.loc 2 43 0
 255 009a 3346     		mov	r3, r6
 256 009c 02E0     		b	.L22
 257              	.LVL20:
 258              	.L21:
 259              		.loc 2 46 0
 260 009e 9968     		ldr	r1, [r3, #8]
 261 00a0 9142     		cmp	r1, r2
 262 00a2 02D3     		bcc	.L23
 263              	.L22:
 264              		.loc 2 45 0
 265 00a4 1B68     		ldr	r3, [r3]
 266              	.LVL21:
 267              		.loc 2 46 0
 268 00a6 9E42     		cmp	r6, r3
 269 00a8 F9D1     		bne	.L21
 270              	.L23:
 271              		.loc 2 48 0
 272 00aa 5A68     		ldr	r2, [r3, #4]
 273 00ac 4260     		str	r2, [r0, #4]
 274              		.loc 2 47 0
 275 00ae 0360     		str	r3, [r0]
 276              		.loc 2 49 0
 277 00b0 5860     		str	r0, [r3, #4]
 278 00b2 1060     		str	r0, [r2]
 279 00b4 BBE7     		b	.L12
 280              	.LVL22:
 281              	.L13:
 282              	.LBE43:
 283              	.LBE42:
 284              	.LBB44:
 285              	.LBB45:
ARM GAS  /tmp/cc8oKFvA.s 			page 6


 286              		.loc 2 75 0
 287 00b6 90E80A00 		ldmia	r0, {r1, r3}
 288 00ba 1960     		str	r1, [r3]
 289              	.LBE45:
 290              	.LBE44:
 291              		.loc 1 142 0
 292 00bc 866A     		ldr	r6, [r0, #40]
 293              	.LVL23:
 294              	.LBB47:
 295              	.LBB46:
 296              		.loc 2 76 0
 297 00be 0168     		ldr	r1, [r0]
 298 00c0 4B60     		str	r3, [r1, #4]
 299              	.LBE46:
 300              	.LBE47:
 301              		.loc 1 142 0
 302 00c2 3346     		mov	r3, r6
 303 00c4 02E0     		b	.L19
 304              	.LVL24:
 305              	.L16:
 306              	.LBB48:
 307              	.LBB49:
 308              		.loc 2 46 0
 309 00c6 9968     		ldr	r1, [r3, #8]
 310 00c8 9142     		cmp	r1, r2
 311 00ca 02D3     		bcc	.L20
 312              	.L19:
 313              		.loc 2 45 0
 314 00cc 1B68     		ldr	r3, [r3]
 315              	.LVL25:
 316              		.loc 2 46 0
 317 00ce 9E42     		cmp	r6, r3
 318 00d0 F9D1     		bne	.L16
 319              	.L20:
 320              		.loc 2 48 0
 321 00d2 5A68     		ldr	r2, [r3, #4]
 322 00d4 4260     		str	r2, [r0, #4]
 323              		.loc 2 47 0
 324 00d6 0360     		str	r3, [r0]
 325              		.loc 2 49 0
 326 00d8 5860     		str	r0, [r3, #4]
 327 00da 1060     		str	r0, [r2]
 328              	.LBE49:
 329              	.LBE48:
 330              		.loc 1 143 0
 331 00dc B068     		ldr	r0, [r6, #8]
 332              	.LVL26:
 333              		.loc 1 135 0
 334 00de A268     		ldr	r2, [r4, #8]
 335 00e0 8368     		ldr	r3, [r0, #8]
 336              	.LVL27:
 337 00e2 9342     		cmp	r3, r2
 338 00e4 9BD3     		bcc	.L17
 339 00e6 A2E7     		b	.L12
 340              	.LVL28:
 341              	.L36:
 342              	.LBE51:
ARM GAS  /tmp/cc8oKFvA.s 			page 7


 343              		.loc 1 125 0 discriminator 1
 344 00e8 0448     		ldr	r0, .L38+12
 345 00ea FFF7FEFF 		bl	chDbgPanic
 346              	.LVL29:
 347 00ee 8FE7     		b	.L9
 348              	.L39:
 349              		.align	2
 350              	.L38:
 351 00f0 00000000 		.word	rlist
 352 00f4 20000000 		.word	.LC2
 353 00f8 34000000 		.word	.LC3
 354 00fc 10000000 		.word	.LC1
 355              		.cfi_endproc
 356              	.LFE9:
 357              		.size	chMtxLockS, .-chMtxLockS
 358              		.section	.text.chMtxLock,"ax",%progbits
 359              		.align	2
 360              		.p2align 4,,15
 361              		.global	chMtxLock
 362              		.thumb
 363              		.thumb_func
 364              		.type	chMtxLock, %function
 365              	chMtxLock:
 366              	.LFB8:
 367              		.loc 1 103 0
 368              		.cfi_startproc
 369              		@ args = 0, pretend = 0, frame = 0
 370              		@ frame_needed = 0, uses_anonymous_args = 0
 371              	.LVL30:
 372 0000 10B5     		push	{r4, lr}
 373              		.cfi_def_cfa_offset 8
 374              		.cfi_offset 4, -8
 375              		.cfi_offset 14, -4
 376              	.LBB52:
 377              		.loc 1 105 0
 378 0002 2023     		movs	r3, #32
 379              	.LBE52:
 380              		.loc 1 103 0
 381 0004 0446     		mov	r4, r0
 382              	.LBB53:
 383              		.loc 1 105 0
 384              	@ 105 "../../ChibiOS_2.6.5/os/kernel/src/chmtx.c" 1
 385 0006 83F31188 		msr     BASEPRI, r3
 386              	@ 0 "" 2
 387              		.thumb
 388              	.LBE53:
 389 000a FFF7FEFF 		bl	dbg_check_lock
 390              	.LVL31:
 391              		.loc 1 107 0
 392 000e 2046     		mov	r0, r4
 393 0010 FFF7FEFF 		bl	chMtxLockS
 394              	.LVL32:
 395              		.loc 1 109 0
 396 0014 FFF7FEFF 		bl	dbg_check_unlock
 397              	.LVL33:
 398              	.LBB54:
 399 0018 0023     		movs	r3, #0
ARM GAS  /tmp/cc8oKFvA.s 			page 8


 400              	@ 109 "../../ChibiOS_2.6.5/os/kernel/src/chmtx.c" 1
 401 001a 83F31188 		msr     BASEPRI, r3
 402              	@ 0 "" 2
 403              		.thumb
 404 001e 10BD     		pop	{r4, pc}
 405              	.LBE54:
 406              		.cfi_endproc
 407              	.LFE8:
 408              		.size	chMtxLock, .-chMtxLock
 409              		.section	.text.chMtxTryLockS,"ax",%progbits
 410              		.align	2
 411              		.p2align 4,,15
 412              		.global	chMtxTryLockS
 413              		.thumb
 414              		.thumb_func
 415              		.type	chMtxTryLockS, %function
 416              	chMtxTryLockS:
 417              	.LFB11:
 418              		.loc 1 234 0
 419              		.cfi_startproc
 420              		@ args = 0, pretend = 0, frame = 0
 421              		@ frame_needed = 0, uses_anonymous_args = 0
 422              	.LVL34:
 423 0000 10B5     		push	{r4, lr}
 424              		.cfi_def_cfa_offset 8
 425              		.cfi_offset 4, -8
 426              		.cfi_offset 14, -4
 427              		.loc 1 234 0
 428 0002 0446     		mov	r4, r0
 429              		.loc 1 236 0
 430 0004 FFF7FEFF 		bl	chDbgCheckClassS
 431              	.LVL35:
 432              		.loc 1 237 0
 433 0008 5CB1     		cbz	r4, .L47
 434              	.L43:
 435              		.loc 1 239 0
 436 000a A368     		ldr	r3, [r4, #8]
 437 000c 0BB1     		cbz	r3, .L48
 438              		.loc 1 240 0
 439 000e 0020     		movs	r0, #0
 440              		.loc 1 245 0
 441 0010 10BD     		pop	{r4, pc}
 442              	.LVL36:
 443              	.L48:
 444              	.LBB57:
 445              	.LBB58:
 446              		.loc 1 241 0
 447 0012 064B     		ldr	r3, .L49
 448 0014 9B69     		ldr	r3, [r3, #24]
 449 0016 A360     		str	r3, [r4, #8]
 450              		.loc 1 242 0
 451 0018 1A6C     		ldr	r2, [r3, #64]
 452 001a E260     		str	r2, [r4, #12]
 453              		.loc 1 243 0
 454 001c 0120     		movs	r0, #1
 455 001e 1C64     		str	r4, [r3, #64]
 456 0020 10BD     		pop	{r4, pc}
ARM GAS  /tmp/cc8oKFvA.s 			page 9


 457              	.LVL37:
 458              	.L47:
 459              	.LBE58:
 460              	.LBE57:
 461              		.loc 1 237 0 discriminator 1
 462 0022 0348     		ldr	r0, .L49+4
 463 0024 FFF7FEFF 		bl	chDbgPanic
 464              	.LVL38:
 465 0028 EFE7     		b	.L43
 466              	.L50:
 467 002a 00BF     		.align	2
 468              	.L49:
 469 002c 00000000 		.word	rlist
 470 0030 48000000 		.word	.LC4
 471              		.cfi_endproc
 472              	.LFE11:
 473              		.size	chMtxTryLockS, .-chMtxTryLockS
 474              		.section	.text.chMtxTryLock,"ax",%progbits
 475              		.align	2
 476              		.p2align 4,,15
 477              		.global	chMtxTryLock
 478              		.thumb
 479              		.thumb_func
 480              		.type	chMtxTryLock, %function
 481              	chMtxTryLock:
 482              	.LFB10:
 483              		.loc 1 206 0
 484              		.cfi_startproc
 485              		@ args = 0, pretend = 0, frame = 0
 486              		@ frame_needed = 0, uses_anonymous_args = 0
 487              	.LVL39:
 488 0000 10B5     		push	{r4, lr}
 489              		.cfi_def_cfa_offset 8
 490              		.cfi_offset 4, -8
 491              		.cfi_offset 14, -4
 492              	.LBB59:
 493              		.loc 1 209 0
 494 0002 2023     		movs	r3, #32
 495              	.LBE59:
 496              		.loc 1 206 0
 497 0004 0446     		mov	r4, r0
 498              	.LBB60:
 499              		.loc 1 209 0
 500              	@ 209 "../../ChibiOS_2.6.5/os/kernel/src/chmtx.c" 1
 501 0006 83F31188 		msr     BASEPRI, r3
 502              	@ 0 "" 2
 503              		.thumb
 504              	.LBE60:
 505 000a FFF7FEFF 		bl	dbg_check_lock
 506              	.LVL40:
 507              		.loc 1 211 0
 508 000e 2046     		mov	r0, r4
 509 0010 FFF7FEFF 		bl	chMtxTryLockS
 510              	.LVL41:
 511 0014 0446     		mov	r4, r0
 512              	.LVL42:
 513              		.loc 1 213 0
ARM GAS  /tmp/cc8oKFvA.s 			page 10


 514 0016 FFF7FEFF 		bl	dbg_check_unlock
 515              	.LVL43:
 516              	.LBB61:
 517 001a 0023     		movs	r3, #0
 518              	@ 213 "../../ChibiOS_2.6.5/os/kernel/src/chmtx.c" 1
 519 001c 83F31188 		msr     BASEPRI, r3
 520              	@ 0 "" 2
 521              		.thumb
 522              	.LBE61:
 523              		.loc 1 215 0
 524 0020 2046     		mov	r0, r4
 525 0022 10BD     		pop	{r4, pc}
 526              		.cfi_endproc
 527              	.LFE10:
 528              		.size	chMtxTryLock, .-chMtxTryLock
 529              		.section	.text.chMtxUnlock,"ax",%progbits
 530              		.align	2
 531              		.p2align 4,,15
 532              		.global	chMtxUnlock
 533              		.thumb
 534              		.thumb_func
 535              		.type	chMtxUnlock, %function
 536              	chMtxUnlock:
 537              	.LFB12:
 538              		.loc 1 257 0
 539              		.cfi_startproc
 540              		@ args = 0, pretend = 0, frame = 0
 541              		@ frame_needed = 0, uses_anonymous_args = 0
 542              		.loc 1 258 0
 543 0000 1E4A     		ldr	r2, .L67
 544              		.loc 1 257 0
 545 0002 70B5     		push	{r4, r5, r6, lr}
 546              		.cfi_def_cfa_offset 16
 547              		.cfi_offset 4, -16
 548              		.cfi_offset 5, -12
 549              		.cfi_offset 6, -8
 550              		.cfi_offset 14, -4
 551              	.LBB62:
 552              		.loc 1 261 0
 553 0004 2023     		movs	r3, #32
 554              	.LBE62:
 555              		.loc 1 258 0
 556 0006 9569     		ldr	r5, [r2, #24]
 557              	.LVL44:
 558              	.LBB63:
 559              		.loc 1 261 0
 560              	@ 261 "../../ChibiOS_2.6.5/os/kernel/src/chmtx.c" 1
 561 0008 83F31188 		msr     BASEPRI, r3
 562              	@ 0 "" 2
 563              		.thumb
 564              	.LBE63:
 565 000c FFF7FEFF 		bl	dbg_check_lock
 566              	.LVL45:
 567              		.loc 1 262 0
 568 0010 2C6C     		ldr	r4, [r5, #64]
 569 0012 002C     		cmp	r4, #0
 570 0014 2DD0     		beq	.L66
ARM GAS  /tmp/cc8oKFvA.s 			page 11


 571              	.L54:
 572              		.loc 1 265 0
 573 0016 A368     		ldr	r3, [r4, #8]
 574 0018 AB42     		cmp	r3, r5
 575 001a 03D0     		beq	.L55
 576              		.loc 1 265 0 is_stmt 0 discriminator 1
 577 001c 1848     		ldr	r0, .L67+4
 578 001e FFF7FEFF 		bl	chDbgPanic
 579              	.LVL46:
 580 0022 2C6C     		ldr	r4, [r5, #64]
 581              	.L55:
 582              	.LVL47:
 583              		.loc 1 273 0 is_stmt 1
 584 0024 2668     		ldr	r6, [r4]
 585              		.loc 1 271 0
 586 0026 E368     		ldr	r3, [r4, #12]
 587 0028 2B64     		str	r3, [r5, #64]
 588              		.loc 1 273 0
 589 002a A642     		cmp	r6, r4
 590 002c 1ED0     		beq	.L56
 591              	.LBB64:
 592              		.loc 1 278 0
 593 002e 696C     		ldr	r1, [r5, #68]
 594              	.LVL48:
 595              		.loc 1 280 0
 596 0030 4BB1     		cbz	r3, .L57
 597              	.L59:
 598              		.loc 1 284 0
 599 0032 1A68     		ldr	r2, [r3]
 600 0034 9A42     		cmp	r2, r3
 601 0036 03D0     		beq	.L58
 602              		.loc 1 284 0 is_stmt 0 discriminator 1
 603 0038 9268     		ldr	r2, [r2, #8]
 604 003a 9142     		cmp	r1, r2
 605 003c 38BF     		it	cc
 606 003e 1146     		movcc	r1, r2
 607              	.LVL49:
 608              	.L58:
 609              		.loc 1 286 0 is_stmt 1
 610 0040 DB68     		ldr	r3, [r3, #12]
 611              	.LVL50:
 612              		.loc 1 280 0
 613 0042 002B     		cmp	r3, #0
 614 0044 F5D1     		bne	.L59
 615              	.L57:
 616              	.LBB65:
 617              	.LBB66:
 618              		.loc 2 62 0
 619 0046 3368     		ldr	r3, [r6]
 620              	.LVL51:
 621              	.LBE66:
 622              	.LBE65:
 623              		.loc 1 295 0
 624 0048 326C     		ldr	r2, [r6, #64]
 625              		.loc 1 290 0
 626 004a A960     		str	r1, [r5, #8]
 627              	.LVL52:
ARM GAS  /tmp/cc8oKFvA.s 			page 12


 628              		.loc 1 297 0
 629 004c 3046     		mov	r0, r6
 630              	.LBB69:
 631              	.LBB67:
 632              		.loc 2 62 0
 633 004e 2360     		str	r3, [r4]
 634              	.LBE67:
 635              	.LBE69:
 636              		.loc 1 297 0
 637 0050 0021     		movs	r1, #0
 638              	.LVL53:
 639              	.LBB70:
 640              	.LBB68:
 641              		.loc 2 62 0
 642 0052 5C60     		str	r4, [r3, #4]
 643              	.LBE68:
 644              	.LBE70:
 645              		.loc 1 294 0
 646 0054 A660     		str	r6, [r4, #8]
 647              		.loc 1 295 0
 648 0056 E260     		str	r2, [r4, #12]
 649              		.loc 1 296 0
 650 0058 3464     		str	r4, [r6, #64]
 651              		.loc 1 297 0
 652 005a FFF7FEFF 		bl	chSchWakeupS
 653              	.LVL54:
 654              	.L60:
 655              	.LBE64:
 656              		.loc 1 301 0
 657 005e FFF7FEFF 		bl	dbg_check_unlock
 658              	.LVL55:
 659              	.LBB71:
 660 0062 0023     		movs	r3, #0
 661              	@ 301 "../../ChibiOS_2.6.5/os/kernel/src/chmtx.c" 1
 662 0064 83F31188 		msr     BASEPRI, r3
 663              	@ 0 "" 2
 664              		.thumb
 665              	.LBE71:
 666              		.loc 1 303 0
 667 0068 2046     		mov	r0, r4
 668 006a 70BD     		pop	{r4, r5, r6, pc}
 669              	.LVL56:
 670              	.L56:
 671              		.loc 1 300 0
 672 006c 0023     		movs	r3, #0
 673 006e A360     		str	r3, [r4, #8]
 674 0070 F5E7     		b	.L60
 675              	.LVL57:
 676              	.L66:
 677              		.loc 1 262 0 discriminator 1
 678 0072 0448     		ldr	r0, .L67+8
 679 0074 FFF7FEFF 		bl	chDbgPanic
 680              	.LVL58:
 681 0078 2C6C     		ldr	r4, [r5, #64]
 682 007a CCE7     		b	.L54
 683              	.L68:
 684              		.align	2
ARM GAS  /tmp/cc8oKFvA.s 			page 13


 685              	.L67:
 686 007c 00000000 		.word	rlist
 687 0080 70000000 		.word	.LC6
 688 0084 5C000000 		.word	.LC5
 689              		.cfi_endproc
 690              	.LFE12:
 691              		.size	chMtxUnlock, .-chMtxUnlock
 692              		.section	.text.chMtxUnlockS,"ax",%progbits
 693              		.align	2
 694              		.p2align 4,,15
 695              		.global	chMtxUnlockS
 696              		.thumb
 697              		.thumb_func
 698              		.type	chMtxUnlockS, %function
 699              	chMtxUnlockS:
 700              	.LFB13:
 701              		.loc 1 317 0
 702              		.cfi_startproc
 703              		@ args = 0, pretend = 0, frame = 0
 704              		@ frame_needed = 0, uses_anonymous_args = 0
 705              		.loc 1 318 0
 706 0000 1A4B     		ldr	r3, .L83
 707              		.loc 1 317 0
 708 0002 70B5     		push	{r4, r5, r6, lr}
 709              		.cfi_def_cfa_offset 16
 710              		.cfi_offset 4, -16
 711              		.cfi_offset 5, -12
 712              		.cfi_offset 6, -8
 713              		.cfi_offset 14, -4
 714              		.loc 1 318 0
 715 0004 9D69     		ldr	r5, [r3, #24]
 716              	.LVL59:
 717              		.loc 1 321 0
 718 0006 FFF7FEFF 		bl	chDbgCheckClassS
 719              	.LVL60:
 720              		.loc 1 322 0
 721 000a 2C6C     		ldr	r4, [r5, #64]
 722 000c 44B3     		cbz	r4, .L82
 723              	.L70:
 724              		.loc 1 325 0
 725 000e A368     		ldr	r3, [r4, #8]
 726 0010 AB42     		cmp	r3, r5
 727 0012 03D0     		beq	.L71
 728              		.loc 1 325 0 is_stmt 0 discriminator 1
 729 0014 1648     		ldr	r0, .L83+4
 730 0016 FFF7FEFF 		bl	chDbgPanic
 731              	.LVL61:
 732 001a 2C6C     		ldr	r4, [r5, #64]
 733              	.L71:
 734              	.LVL62:
 735              		.loc 1 334 0 is_stmt 1
 736 001c 2668     		ldr	r6, [r4]
 737              		.loc 1 332 0
 738 001e E368     		ldr	r3, [r4, #12]
 739 0020 2B64     		str	r3, [r5, #64]
 740              		.loc 1 334 0
 741 0022 A642     		cmp	r6, r4
ARM GAS  /tmp/cc8oKFvA.s 			page 14


 742 0024 18D0     		beq	.L72
 743              	.LBB72:
 744              		.loc 1 339 0
 745 0026 696C     		ldr	r1, [r5, #68]
 746              	.LVL63:
 747              		.loc 1 341 0
 748 0028 4BB1     		cbz	r3, .L73
 749              	.L75:
 750              		.loc 1 345 0
 751 002a 1A68     		ldr	r2, [r3]
 752 002c 9A42     		cmp	r2, r3
 753 002e 03D0     		beq	.L74
 754              		.loc 1 345 0 is_stmt 0 discriminator 1
 755 0030 9268     		ldr	r2, [r2, #8]
 756 0032 9142     		cmp	r1, r2
 757 0034 38BF     		it	cc
 758 0036 1146     		movcc	r1, r2
 759              	.LVL64:
 760              	.L74:
 761              		.loc 1 347 0 is_stmt 1
 762 0038 DB68     		ldr	r3, [r3, #12]
 763              	.LVL65:
 764              		.loc 1 341 0
 765 003a 002B     		cmp	r3, #0
 766 003c F5D1     		bne	.L75
 767              	.L73:
 768              	.LBB73:
 769              	.LBB74:
 770              		.loc 2 62 0
 771 003e 3368     		ldr	r3, [r6]
 772              	.LVL66:
 773              	.LBE74:
 774              	.LBE73:
 775              		.loc 1 354 0
 776 0040 326C     		ldr	r2, [r6, #64]
 777              		.loc 1 349 0
 778 0042 A960     		str	r1, [r5, #8]
 779              	.LVL67:
 780              		.loc 1 356 0
 781 0044 3046     		mov	r0, r6
 782              	.LBB76:
 783              	.LBB75:
 784              		.loc 2 62 0
 785 0046 2360     		str	r3, [r4]
 786 0048 5C60     		str	r4, [r3, #4]
 787              	.LBE75:
 788              	.LBE76:
 789              		.loc 1 353 0
 790 004a A660     		str	r6, [r4, #8]
 791              		.loc 1 354 0
 792 004c E260     		str	r2, [r4, #12]
 793              		.loc 1 355 0
 794 004e 3464     		str	r4, [r6, #64]
 795              		.loc 1 356 0
 796 0050 FFF7FEFF 		bl	chSchReadyI
 797              	.LVL68:
 798              	.LBE72:
ARM GAS  /tmp/cc8oKFvA.s 			page 15


 799              		.loc 1 361 0
 800 0054 2046     		mov	r0, r4
 801 0056 70BD     		pop	{r4, r5, r6, pc}
 802              	.LVL69:
 803              	.L72:
 804              		.loc 1 359 0
 805 0058 0023     		movs	r3, #0
 806 005a A360     		str	r3, [r4, #8]
 807              		.loc 1 361 0
 808 005c 2046     		mov	r0, r4
 809 005e 70BD     		pop	{r4, r5, r6, pc}
 810              	.LVL70:
 811              	.L82:
 812              		.loc 1 322 0 discriminator 1
 813 0060 0448     		ldr	r0, .L83+8
 814 0062 FFF7FEFF 		bl	chDbgPanic
 815              	.LVL71:
 816 0066 2C6C     		ldr	r4, [r5, #64]
 817 0068 D1E7     		b	.L70
 818              	.L84:
 819 006a 00BF     		.align	2
 820              	.L83:
 821 006c 00000000 		.word	rlist
 822 0070 98000000 		.word	.LC8
 823 0074 84000000 		.word	.LC7
 824              		.cfi_endproc
 825              	.LFE13:
 826              		.size	chMtxUnlockS, .-chMtxUnlockS
 827              		.section	.text.chMtxUnlockAll,"ax",%progbits
 828              		.align	2
 829              		.p2align 4,,15
 830              		.global	chMtxUnlockAll
 831              		.thumb
 832              		.thumb_func
 833              		.type	chMtxUnlockAll, %function
 834              	chMtxUnlockAll:
 835              	.LFB14:
 836              		.loc 1 374 0
 837              		.cfi_startproc
 838              		@ args = 0, pretend = 0, frame = 0
 839              		@ frame_needed = 0, uses_anonymous_args = 0
 840              		.loc 1 375 0
 841 0000 154A     		ldr	r2, .L97
 842              		.loc 1 374 0
 843 0002 70B5     		push	{r4, r5, r6, lr}
 844              		.cfi_def_cfa_offset 16
 845              		.cfi_offset 4, -16
 846              		.cfi_offset 5, -12
 847              		.cfi_offset 6, -8
 848              		.cfi_offset 14, -4
 849              	.LBB77:
 850              		.loc 1 377 0
 851 0004 2023     		movs	r3, #32
 852              	.LBE77:
 853              		.loc 1 375 0
 854 0006 9469     		ldr	r4, [r2, #24]
 855              	.LVL72:
ARM GAS  /tmp/cc8oKFvA.s 			page 16


 856              	.LBB78:
 857              		.loc 1 377 0
 858              	@ 377 "../../ChibiOS_2.6.5/os/kernel/src/chmtx.c" 1
 859 0008 83F31188 		msr     BASEPRI, r3
 860              	@ 0 "" 2
 861              		.thumb
 862              	.LBE78:
 863 000c FFF7FEFF 		bl	dbg_check_lock
 864              	.LVL73:
 865              		.loc 1 378 0
 866 0010 236C     		ldr	r3, [r4, #64]
 867 0012 D3B1     		cbz	r3, .L86
 868              	.LBB79:
 869              		.loc 1 390 0
 870 0014 0026     		movs	r6, #0
 871 0016 0AE0     		b	.L89
 872              	.LVL74:
 873              	.L96:
 874              	.LBB80:
 875              	.LBB81:
 876              	.LBB82:
 877              		.loc 2 62 0
 878 0018 1168     		ldr	r1, [r2]
 879              	.LBE82:
 880              	.LBE81:
 881              		.loc 1 385 0
 882 001a 156C     		ldr	r5, [r2, #64]
 883              	.LBB84:
 884              	.LBB83:
 885              		.loc 2 62 0
 886 001c 1960     		str	r1, [r3]
 887 001e 4B60     		str	r3, [r1, #4]
 888              	.LBE83:
 889              	.LBE84:
 890              		.loc 1 384 0
 891 0020 9A60     		str	r2, [r3, #8]
 892              		.loc 1 385 0
 893 0022 DD60     		str	r5, [r3, #12]
 894              		.loc 1 386 0
 895 0024 1364     		str	r3, [r2, #64]
 896              		.loc 1 387 0
 897 0026 FFF7FEFF 		bl	chSchReadyI
 898              	.LVL75:
 899              	.LBE80:
 900              	.LBE79:
 901              		.loc 1 391 0
 902 002a 236C     		ldr	r3, [r4, #64]
 903 002c 4BB1     		cbz	r3, .L95
 904              	.L89:
 905              	.LVL76:
 906              	.LBB86:
 907              		.loc 1 382 0
 908 002e 1A68     		ldr	r2, [r3]
 909              	.LVL77:
 910              		.loc 1 381 0
 911 0030 D968     		ldr	r1, [r3, #12]
 912 0032 2164     		str	r1, [r4, #64]
ARM GAS  /tmp/cc8oKFvA.s 			page 17


 913              		.loc 1 382 0
 914 0034 9A42     		cmp	r2, r3
 915              	.LBB85:
 916              		.loc 1 387 0
 917 0036 1046     		mov	r0, r2
 918              	.LBE85:
 919              		.loc 1 382 0
 920 0038 EED1     		bne	.L96
 921              		.loc 1 390 0
 922 003a 9E60     		str	r6, [r3, #8]
 923              	.LBE86:
 924              		.loc 1 391 0
 925 003c 236C     		ldr	r3, [r4, #64]
 926              	.LVL78:
 927 003e 002B     		cmp	r3, #0
 928 0040 F5D1     		bne	.L89
 929              	.LVL79:
 930              	.L95:
 931              		.loc 1 392 0
 932 0042 636C     		ldr	r3, [r4, #68]
 933 0044 A360     		str	r3, [r4, #8]
 934              		.loc 1 393 0
 935 0046 FFF7FEFF 		bl	chSchRescheduleS
 936              	.LVL80:
 937              	.L86:
 938              		.loc 1 395 0
 939 004a FFF7FEFF 		bl	dbg_check_unlock
 940              	.LVL81:
 941              	.LBB87:
 942 004e 0023     		movs	r3, #0
 943              	@ 395 "../../ChibiOS_2.6.5/os/kernel/src/chmtx.c" 1
 944 0050 83F31188 		msr     BASEPRI, r3
 945              	@ 0 "" 2
 946              		.thumb
 947 0054 70BD     		pop	{r4, r5, r6, pc}
 948              	.LVL82:
 949              	.L98:
 950 0056 00BF     		.align	2
 951              	.L97:
 952 0058 00000000 		.word	rlist
 953              	.LBE87:
 954              		.cfi_endproc
 955              	.LFE14:
 956              		.size	chMtxUnlockAll, .-chMtxUnlockAll
 957              		.section	.rodata.str1.4,"aMS",%progbits,1
 958              		.align	2
 959              	.LC0:
 960 0000 2263684D 		.ascii	"\"chMtxInit\"()\000"
 960      7478496E 
 960      69742228 
 960      2900
 961 000e 0000     		.space	2
 962              	.LC1:
 963 0010 2263684D 		.ascii	"\"chMtxLockS\"()\000"
 963      74784C6F 
 963      636B5322 
 963      282900
ARM GAS  /tmp/cc8oKFvA.s 			page 18


 964 001f 00       		.space	1
 965              	.LC2:
 966 0020 63684D74 		.ascii	"chMtxLockS(), #1\000"
 966      784C6F63 
 966      6B532829 
 966      2C202331 
 966      00
 967 0031 000000   		.space	3
 968              	.LC3:
 969 0034 63684D74 		.ascii	"chMtxLockS(), #2\000"
 969      784C6F63 
 969      6B532829 
 969      2C202332 
 969      00
 970 0045 000000   		.space	3
 971              	.LC4:
 972 0048 2263684D 		.ascii	"\"chMtxTryLockS\"()\000"
 972      74785472 
 972      794C6F63 
 972      6B532228 
 972      2900
 973 005a 0000     		.space	2
 974              	.LC5:
 975 005c 63684D74 		.ascii	"chMtxUnlock(), #1\000"
 975      78556E6C 
 975      6F636B28 
 975      292C2023 
 975      3100
 976 006e 0000     		.space	2
 977              	.LC6:
 978 0070 63684D74 		.ascii	"chMtxUnlock(), #2\000"
 978      78556E6C 
 978      6F636B28 
 978      292C2023 
 978      3200
 979 0082 0000     		.space	2
 980              	.LC7:
 981 0084 63684D74 		.ascii	"chMtxUnlockS(), #1\000"
 981      78556E6C 
 981      6F636B53 
 981      28292C20 
 981      233100
 982 0097 00       		.space	1
 983              	.LC8:
 984 0098 63684D74 		.ascii	"chMtxUnlockS(), #2\000"
 984      78556E6C 
 984      6F636B53 
 984      28292C20 
 984      233200
 985              		.text
 986              	.Letext0:
 987              		.file 3 "/usr/include/newlib/machine/_default_types.h"
 988              		.file 4 "/usr/include/newlib/sys/_stdint.h"
 989              		.file 5 "../../ChibiOS_2.6.5/os/ports/GCC/ARMCMx/chtypes.h"
 990              		.file 6 "../../ChibiOS_2.6.5/os/kernel/include/chlists.h"
 991              		.file 7 "../../ChibiOS_2.6.5/os/kernel/include/chthreads.h"
 992              		.file 8 "../../ChibiOS_2.6.5/os/ports/GCC/ARMCMx/chcore_v7m.h"
ARM GAS  /tmp/cc8oKFvA.s 			page 19


 993              		.file 9 "../../ChibiOS_2.6.5/os/kernel/include/chschd.h"
 994              		.file 10 "../../ChibiOS_2.6.5/os/kernel/include/chmtx.h"
 995              		.file 11 "../../ChibiOS_2.6.5/os/kernel/include/chdebug.h"
 996              		.section	.debug_info,"",%progbits
 997              	.Ldebug_info0:
 998 0000 5C0B0000 		.4byte	0xb5c
 999 0004 0400     		.2byte	0x4
 1000 0006 00000000 		.4byte	.Ldebug_abbrev0
 1001 000a 04       		.byte	0x4
 1002 000b 01       		.uleb128 0x1
 1003 000c 42000000 		.4byte	.LASF90
 1004 0010 01       		.byte	0x1
 1005 0011 CE010000 		.4byte	.LASF91
 1006 0015 5A030000 		.4byte	.LASF92
 1007 0019 60010000 		.4byte	.Ldebug_ranges0+0x160
 1008 001d 00000000 		.4byte	0
 1009 0021 00000000 		.4byte	.Ldebug_line0
 1010 0025 02       		.uleb128 0x2
 1011 0026 04       		.byte	0x4
 1012 0027 05       		.byte	0x5
 1013 0028 696E7400 		.ascii	"int\000"
 1014 002c 03       		.uleb128 0x3
 1015 002d 04       		.byte	0x4
 1016 002e 07       		.byte	0x7
 1017 002f AF010000 		.4byte	.LASF0
 1018 0033 03       		.uleb128 0x3
 1019 0034 01       		.byte	0x1
 1020 0035 06       		.byte	0x6
 1021 0036 1F010000 		.4byte	.LASF1
 1022 003a 04       		.uleb128 0x4
 1023 003b 21000000 		.4byte	.LASF5
 1024 003f 03       		.byte	0x3
 1025 0040 1D       		.byte	0x1d
 1026 0041 45000000 		.4byte	0x45
 1027 0045 03       		.uleb128 0x3
 1028 0046 01       		.byte	0x1
 1029 0047 08       		.byte	0x8
 1030 0048 1F030000 		.4byte	.LASF2
 1031 004c 03       		.uleb128 0x3
 1032 004d 02       		.byte	0x2
 1033 004e 05       		.byte	0x5
 1034 004f 37030000 		.4byte	.LASF3
 1035 0053 03       		.uleb128 0x3
 1036 0054 02       		.byte	0x2
 1037 0055 07       		.byte	0x7
 1038 0056 00020000 		.4byte	.LASF4
 1039 005a 04       		.uleb128 0x4
 1040 005b 48040000 		.4byte	.LASF6
 1041 005f 03       		.byte	0x3
 1042 0060 3F       		.byte	0x3f
 1043 0061 65000000 		.4byte	0x65
 1044 0065 03       		.uleb128 0x3
 1045 0066 04       		.byte	0x4
 1046 0067 05       		.byte	0x5
 1047 0068 4C010000 		.4byte	.LASF7
 1048 006c 04       		.uleb128 0x4
 1049 006d 90010000 		.4byte	.LASF8
ARM GAS  /tmp/cc8oKFvA.s 			page 20


 1050 0071 03       		.byte	0x3
 1051 0072 41       		.byte	0x41
 1052 0073 77000000 		.4byte	0x77
 1053 0077 03       		.uleb128 0x3
 1054 0078 04       		.byte	0x4
 1055 0079 07       		.byte	0x7
 1056 007a BC010000 		.4byte	.LASF9
 1057 007e 03       		.uleb128 0x3
 1058 007f 08       		.byte	0x8
 1059 0080 05       		.byte	0x5
 1060 0081 11010000 		.4byte	.LASF10
 1061 0085 04       		.uleb128 0x4
 1062 0086 EF020000 		.4byte	.LASF11
 1063 008a 03       		.byte	0x3
 1064 008b 5B       		.byte	0x5b
 1065 008c 90000000 		.4byte	0x90
 1066 0090 03       		.uleb128 0x3
 1067 0091 08       		.byte	0x8
 1068 0092 07       		.byte	0x7
 1069 0093 2B000000 		.4byte	.LASF12
 1070 0097 04       		.uleb128 0x4
 1071 0098 A5040000 		.4byte	.LASF13
 1072 009c 04       		.byte	0x4
 1073 009d 14       		.byte	0x14
 1074 009e 3A000000 		.4byte	0x3a
 1075 00a2 04       		.uleb128 0x4
 1076 00a3 17030000 		.4byte	.LASF14
 1077 00a7 04       		.byte	0x4
 1078 00a8 1F       		.byte	0x1f
 1079 00a9 5A000000 		.4byte	0x5a
 1080 00ad 04       		.uleb128 0x4
 1081 00ae FE030000 		.4byte	.LASF15
 1082 00b2 04       		.byte	0x4
 1083 00b3 20       		.byte	0x20
 1084 00b4 6C000000 		.4byte	0x6c
 1085 00b8 04       		.uleb128 0x4
 1086 00b9 18000000 		.4byte	.LASF16
 1087 00bd 04       		.byte	0x4
 1088 00be 26       		.byte	0x26
 1089 00bf 85000000 		.4byte	0x85
 1090 00c3 04       		.uleb128 0x4
 1091 00c4 33010000 		.4byte	.LASF17
 1092 00c8 05       		.byte	0x5
 1093 00c9 2B       		.byte	0x2b
 1094 00ca CE000000 		.4byte	0xce
 1095 00ce 03       		.uleb128 0x3
 1096 00cf 01       		.byte	0x1
 1097 00d0 02       		.byte	0x2
 1098 00d1 11030000 		.4byte	.LASF18
 1099 00d5 04       		.uleb128 0x4
 1100 00d6 38020000 		.4byte	.LASF19
 1101 00da 05       		.byte	0x5
 1102 00db 2C       		.byte	0x2c
 1103 00dc 97000000 		.4byte	0x97
 1104 00e0 04       		.uleb128 0x4
 1105 00e1 55010000 		.4byte	.LASF20
 1106 00e5 05       		.byte	0x5
ARM GAS  /tmp/cc8oKFvA.s 			page 21


 1107 00e6 2D       		.byte	0x2d
 1108 00e7 97000000 		.4byte	0x97
 1109 00eb 04       		.uleb128 0x4
 1110 00ec FA020000 		.4byte	.LASF21
 1111 00f0 05       		.byte	0x5
 1112 00f1 2E       		.byte	0x2e
 1113 00f2 97000000 		.4byte	0x97
 1114 00f6 04       		.uleb128 0x4
 1115 00f7 42010000 		.4byte	.LASF22
 1116 00fb 05       		.byte	0x5
 1117 00fc 2F       		.byte	0x2f
 1118 00fd 97000000 		.4byte	0x97
 1119 0101 04       		.uleb128 0x4
 1120 0102 09030000 		.4byte	.LASF23
 1121 0106 05       		.byte	0x5
 1122 0107 30       		.byte	0x30
 1123 0108 AD000000 		.4byte	0xad
 1124 010c 04       		.uleb128 0x4
 1125 010d 13020000 		.4byte	.LASF24
 1126 0111 05       		.byte	0x5
 1127 0112 31       		.byte	0x31
 1128 0113 A2000000 		.4byte	0xa2
 1129 0117 04       		.uleb128 0x4
 1130 0118 5D020000 		.4byte	.LASF25
 1131 011c 05       		.byte	0x5
 1132 011d 33       		.byte	0x33
 1133 011e AD000000 		.4byte	0xad
 1134 0122 04       		.uleb128 0x4
 1135 0123 33040000 		.4byte	.LASF26
 1136 0127 05       		.byte	0x5
 1137 0128 35       		.byte	0x35
 1138 0129 AD000000 		.4byte	0xad
 1139 012d 04       		.uleb128 0x4
 1140 012e DE030000 		.4byte	.LASF27
 1141 0132 06       		.byte	0x6
 1142 0133 2A       		.byte	0x2a
 1143 0134 38010000 		.4byte	0x138
 1144 0138 05       		.uleb128 0x5
 1145 0139 DE030000 		.4byte	.LASF27
 1146 013d 4C       		.byte	0x4c
 1147 013e 07       		.byte	0x7
 1148 013f 5E       		.byte	0x5e
 1149 0140 41020000 		.4byte	0x241
 1150 0144 06       		.uleb128 0x6
 1151 0145 C2030000 		.4byte	.LASF28
 1152 0149 07       		.byte	0x7
 1153 014a 5F       		.byte	0x5f
 1154 014b 62020000 		.4byte	0x262
 1155 014f 00       		.byte	0
 1156 0150 06       		.uleb128 0x6
 1157 0151 02030000 		.4byte	.LASF29
 1158 0155 07       		.byte	0x7
 1159 0156 61       		.byte	0x61
 1160 0157 62020000 		.4byte	0x262
 1161 015b 04       		.byte	0x4
 1162 015c 06       		.uleb128 0x6
 1163 015d 0A010000 		.4byte	.LASF30
ARM GAS  /tmp/cc8oKFvA.s 			page 22


 1164 0161 07       		.byte	0x7
 1165 0162 63       		.byte	0x63
 1166 0163 01010000 		.4byte	0x101
 1167 0167 08       		.byte	0x8
 1168 0168 06       		.uleb128 0x6
 1169 0169 C3040000 		.4byte	.LASF31
 1170 016d 07       		.byte	0x7
 1171 016e 64       		.byte	0x64
 1172 016f 27030000 		.4byte	0x327
 1173 0173 0C       		.byte	0xc
 1174 0174 06       		.uleb128 0x6
 1175 0175 77010000 		.4byte	.LASF32
 1176 0179 07       		.byte	0x7
 1177 017a 66       		.byte	0x66
 1178 017b 62020000 		.4byte	0x262
 1179 017f 10       		.byte	0x10
 1180 0180 06       		.uleb128 0x6
 1181 0181 A9020000 		.4byte	.LASF33
 1182 0185 07       		.byte	0x7
 1183 0186 67       		.byte	0x67
 1184 0187 62020000 		.4byte	0x262
 1185 018b 14       		.byte	0x14
 1186 018c 06       		.uleb128 0x6
 1187 018d B4040000 		.4byte	.LASF34
 1188 0191 07       		.byte	0x7
 1189 0192 6E       		.byte	0x6e
 1190 0193 27040000 		.4byte	0x427
 1191 0197 18       		.byte	0x18
 1192 0198 06       		.uleb128 0x6
 1193 0199 A4010000 		.4byte	.LASF35
 1194 019d 07       		.byte	0x7
 1195 019e 74       		.byte	0x74
 1196 019f 39040000 		.4byte	0x439
 1197 01a3 1C       		.byte	0x1c
 1198 01a4 06       		.uleb128 0x6
 1199 01a5 41030000 		.4byte	.LASF36
 1200 01a9 07       		.byte	0x7
 1201 01aa 79       		.byte	0x79
 1202 01ab E0000000 		.4byte	0xe0
 1203 01af 20       		.byte	0x20
 1204 01b0 06       		.uleb128 0x6
 1205 01b1 C9030000 		.4byte	.LASF37
 1206 01b5 07       		.byte	0x7
 1207 01b6 7D       		.byte	0x7d
 1208 01b7 D5000000 		.4byte	0xd5
 1209 01bb 21       		.byte	0x21
 1210 01bc 06       		.uleb128 0x6
 1211 01bd 8E040000 		.4byte	.LASF38
 1212 01c1 07       		.byte	0x7
 1213 01c2 82       		.byte	0x82
 1214 01c3 EB000000 		.4byte	0xeb
 1215 01c7 22       		.byte	0x22
 1216 01c8 06       		.uleb128 0x6
 1217 01c9 49030000 		.4byte	.LASF39
 1218 01cd 07       		.byte	0x7
 1219 01ce 88       		.byte	0x88
 1220 01cf F6000000 		.4byte	0xf6
ARM GAS  /tmp/cc8oKFvA.s 			page 23


 1221 01d3 23       		.byte	0x23
 1222 01d4 06       		.uleb128 0x6
 1223 01d5 5E040000 		.4byte	.LASF40
 1224 01d9 07       		.byte	0x7
 1225 01da 8F       		.byte	0x8f
 1226 01db 4F030000 		.4byte	0x34f
 1227 01df 24       		.byte	0x24
 1228 01e0 07       		.uleb128 0x7
 1229 01e1 705F7500 		.ascii	"p_u\000"
 1230 01e5 07       		.byte	0x7
 1231 01e6 B4       		.byte	0xb4
 1232 01e7 F2030000 		.4byte	0x3f2
 1233 01eb 28       		.byte	0x28
 1234 01ec 06       		.uleb128 0x6
 1235 01ed C9040000 		.4byte	.LASF41
 1236 01f1 07       		.byte	0x7
 1237 01f2 B9       		.byte	0xb9
 1238 01f3 88020000 		.4byte	0x288
 1239 01f7 2C       		.byte	0x2c
 1240 01f8 06       		.uleb128 0x6
 1241 01f9 6C040000 		.4byte	.LASF42
 1242 01fd 07       		.byte	0x7
 1243 01fe BF       		.byte	0xbf
 1244 01ff 68020000 		.4byte	0x268
 1245 0203 30       		.byte	0x30
 1246 0204 06       		.uleb128 0x6
 1247 0205 00000000 		.4byte	.LASF43
 1248 0209 07       		.byte	0x7
 1249 020a C3       		.byte	0xc3
 1250 020b 0C010000 		.4byte	0x10c
 1251 020f 38       		.byte	0x38
 1252 0210 06       		.uleb128 0x6
 1253 0211 F3030000 		.4byte	.LASF44
 1254 0215 07       		.byte	0x7
 1255 0216 C9       		.byte	0xc9
 1256 0217 17010000 		.4byte	0x117
 1257 021b 3C       		.byte	0x3c
 1258 021c 06       		.uleb128 0x6
 1259 021d 2D030000 		.4byte	.LASF45
 1260 0221 07       		.byte	0x7
 1261 0222 D0       		.byte	0xd0
 1262 0223 3F040000 		.4byte	0x43f
 1263 0227 40       		.byte	0x40
 1264 0228 06       		.uleb128 0x6
 1265 0229 3D040000 		.4byte	.LASF46
 1266 022d 07       		.byte	0x7
 1267 022e D4       		.byte	0xd4
 1268 022f 01010000 		.4byte	0x101
 1269 0233 44       		.byte	0x44
 1270 0234 06       		.uleb128 0x6
 1271 0235 2B010000 		.4byte	.LASF47
 1272 0239 07       		.byte	0x7
 1273 023a DA       		.byte	0xda
 1274 023b 9E020000 		.4byte	0x29e
 1275 023f 48       		.byte	0x48
 1276 0240 00       		.byte	0
 1277 0241 08       		.uleb128 0x8
ARM GAS  /tmp/cc8oKFvA.s 			page 24


 1278 0242 08       		.byte	0x8
 1279 0243 06       		.byte	0x6
 1280 0244 61       		.byte	0x61
 1281 0245 62020000 		.4byte	0x262
 1282 0249 06       		.uleb128 0x6
 1283 024a C2030000 		.4byte	.LASF28
 1284 024e 06       		.byte	0x6
 1285 024f 62       		.byte	0x62
 1286 0250 62020000 		.4byte	0x262
 1287 0254 00       		.byte	0
 1288 0255 06       		.uleb128 0x6
 1289 0256 02030000 		.4byte	.LASF29
 1290 025a 06       		.byte	0x6
 1291 025b 64       		.byte	0x64
 1292 025c 62020000 		.4byte	0x262
 1293 0260 04       		.byte	0x4
 1294 0261 00       		.byte	0
 1295 0262 09       		.uleb128 0x9
 1296 0263 04       		.byte	0x4
 1297 0264 2D010000 		.4byte	0x12d
 1298 0268 04       		.uleb128 0x4
 1299 0269 B7020000 		.4byte	.LASF48
 1300 026d 06       		.byte	0x6
 1301 026e 66       		.byte	0x66
 1302 026f 41020000 		.4byte	0x241
 1303 0273 08       		.uleb128 0x8
 1304 0274 04       		.byte	0x4
 1305 0275 06       		.byte	0x6
 1306 0276 6B       		.byte	0x6b
 1307 0277 88020000 		.4byte	0x288
 1308 027b 06       		.uleb128 0x6
 1309 027c C2030000 		.4byte	.LASF28
 1310 0280 06       		.byte	0x6
 1311 0281 6D       		.byte	0x6d
 1312 0282 62020000 		.4byte	0x262
 1313 0286 00       		.byte	0
 1314 0287 00       		.byte	0
 1315 0288 04       		.uleb128 0x4
 1316 0289 51020000 		.4byte	.LASF49
 1317 028d 06       		.byte	0x6
 1318 028e 70       		.byte	0x70
 1319 028f 73020000 		.4byte	0x273
 1320 0293 04       		.uleb128 0x4
 1321 0294 9B010000 		.4byte	.LASF50
 1322 0298 08       		.byte	0x8
 1323 0299 E5       		.byte	0xe5
 1324 029a 9E020000 		.4byte	0x29e
 1325 029e 0A       		.uleb128 0xa
 1326 029f 04       		.byte	0x4
 1327 02a0 04       		.uleb128 0x4
 1328 02a1 7C020000 		.4byte	.LASF51
 1329 02a5 08       		.byte	0x8
 1330 02a6 EB       		.byte	0xeb
 1331 02a7 B8000000 		.4byte	0xb8
 1332 02ab 0B       		.uleb128 0xb
 1333 02ac 65040000 		.4byte	.LASF52
 1334 02b0 24       		.byte	0x24
ARM GAS  /tmp/cc8oKFvA.s 			page 25


 1335 02b1 08       		.byte	0x8
 1336 02b2 0C01     		.2byte	0x10c
 1337 02b4 27030000 		.4byte	0x327
 1338 02b8 0C       		.uleb128 0xc
 1339 02b9 723400   		.ascii	"r4\000"
 1340 02bc 08       		.byte	0x8
 1341 02bd 1F01     		.2byte	0x11f
 1342 02bf 93020000 		.4byte	0x293
 1343 02c3 00       		.byte	0
 1344 02c4 0C       		.uleb128 0xc
 1345 02c5 723500   		.ascii	"r5\000"
 1346 02c8 08       		.byte	0x8
 1347 02c9 2001     		.2byte	0x120
 1348 02cb 93020000 		.4byte	0x293
 1349 02cf 04       		.byte	0x4
 1350 02d0 0C       		.uleb128 0xc
 1351 02d1 723600   		.ascii	"r6\000"
 1352 02d4 08       		.byte	0x8
 1353 02d5 2101     		.2byte	0x121
 1354 02d7 93020000 		.4byte	0x293
 1355 02db 08       		.byte	0x8
 1356 02dc 0C       		.uleb128 0xc
 1357 02dd 723700   		.ascii	"r7\000"
 1358 02e0 08       		.byte	0x8
 1359 02e1 2201     		.2byte	0x122
 1360 02e3 93020000 		.4byte	0x293
 1361 02e7 0C       		.byte	0xc
 1362 02e8 0C       		.uleb128 0xc
 1363 02e9 723800   		.ascii	"r8\000"
 1364 02ec 08       		.byte	0x8
 1365 02ed 2301     		.2byte	0x123
 1366 02ef 93020000 		.4byte	0x293
 1367 02f3 10       		.byte	0x10
 1368 02f4 0C       		.uleb128 0xc
 1369 02f5 723900   		.ascii	"r9\000"
 1370 02f8 08       		.byte	0x8
 1371 02f9 2401     		.2byte	0x124
 1372 02fb 93020000 		.4byte	0x293
 1373 02ff 14       		.byte	0x14
 1374 0300 0C       		.uleb128 0xc
 1375 0301 72313000 		.ascii	"r10\000"
 1376 0305 08       		.byte	0x8
 1377 0306 2501     		.2byte	0x125
 1378 0308 93020000 		.4byte	0x293
 1379 030c 18       		.byte	0x18
 1380 030d 0C       		.uleb128 0xc
 1381 030e 72313100 		.ascii	"r11\000"
 1382 0312 08       		.byte	0x8
 1383 0313 2601     		.2byte	0x126
 1384 0315 93020000 		.4byte	0x293
 1385 0319 1C       		.byte	0x1c
 1386 031a 0C       		.uleb128 0xc
 1387 031b 6C7200   		.ascii	"lr\000"
 1388 031e 08       		.byte	0x8
 1389 031f 2701     		.2byte	0x127
 1390 0321 93020000 		.4byte	0x293
 1391 0325 20       		.byte	0x20
ARM GAS  /tmp/cc8oKFvA.s 			page 26


 1392 0326 00       		.byte	0
 1393 0327 0B       		.uleb128 0xb
 1394 0328 F8010000 		.4byte	.LASF53
 1395 032c 04       		.byte	0x4
 1396 032d 08       		.byte	0x8
 1397 032e 3101     		.2byte	0x131
 1398 0330 42030000 		.4byte	0x342
 1399 0334 0C       		.uleb128 0xc
 1400 0335 72313300 		.ascii	"r13\000"
 1401 0339 08       		.byte	0x8
 1402 033a 3201     		.2byte	0x132
 1403 033c 42030000 		.4byte	0x342
 1404 0340 00       		.byte	0
 1405 0341 00       		.byte	0
 1406 0342 09       		.uleb128 0x9
 1407 0343 04       		.byte	0x4
 1408 0344 AB020000 		.4byte	0x2ab
 1409 0348 03       		.uleb128 0x3
 1410 0349 04       		.byte	0x4
 1411 034a 07       		.byte	0x7
 1412 034b 87020000 		.4byte	.LASF54
 1413 034f 0D       		.uleb128 0xd
 1414 0350 22010000 		.4byte	0x122
 1415 0354 08       		.uleb128 0x8
 1416 0355 1C       		.byte	0x1c
 1417 0356 09       		.byte	0x9
 1418 0357 5E       		.byte	0x5e
 1419 0358 A5030000 		.4byte	0x3a5
 1420 035c 06       		.uleb128 0x6
 1421 035d 07040000 		.4byte	.LASF55
 1422 0361 09       		.byte	0x9
 1423 0362 5F       		.byte	0x5f
 1424 0363 68020000 		.4byte	0x268
 1425 0367 00       		.byte	0
 1426 0368 06       		.uleb128 0x6
 1427 0369 53030000 		.4byte	.LASF56
 1428 036d 09       		.byte	0x9
 1429 036e 60       		.byte	0x60
 1430 036f 01010000 		.4byte	0x101
 1431 0373 08       		.byte	0x8
 1432 0374 06       		.uleb128 0x6
 1433 0375 B1020000 		.4byte	.LASF57
 1434 0379 09       		.byte	0x9
 1435 037a 62       		.byte	0x62
 1436 037b 27030000 		.4byte	0x327
 1437 037f 0C       		.byte	0xc
 1438 0380 06       		.uleb128 0x6
 1439 0381 19020000 		.4byte	.LASF58
 1440 0385 09       		.byte	0x9
 1441 0386 65       		.byte	0x65
 1442 0387 62020000 		.4byte	0x262
 1443 038b 10       		.byte	0x10
 1444 038c 06       		.uleb128 0x6
 1445 038d D6020000 		.4byte	.LASF59
 1446 0391 09       		.byte	0x9
 1447 0392 66       		.byte	0x66
 1448 0393 62020000 		.4byte	0x262
ARM GAS  /tmp/cc8oKFvA.s 			page 27


 1449 0397 14       		.byte	0x14
 1450 0398 06       		.uleb128 0x6
 1451 0399 CC020000 		.4byte	.LASF60
 1452 039d 09       		.byte	0x9
 1453 039e 69       		.byte	0x69
 1454 039f 62020000 		.4byte	0x262
 1455 03a3 18       		.byte	0x18
 1456 03a4 00       		.byte	0
 1457 03a5 04       		.uleb128 0x4
 1458 03a6 95040000 		.4byte	.LASF61
 1459 03aa 09       		.byte	0x9
 1460 03ab 6B       		.byte	0x6b
 1461 03ac 54030000 		.4byte	0x354
 1462 03b0 05       		.uleb128 0x5
 1463 03b1 76020000 		.4byte	.LASF62
 1464 03b5 10       		.byte	0x10
 1465 03b6 0A       		.byte	0xa
 1466 03b7 2C       		.byte	0x2c
 1467 03b8 E1030000 		.4byte	0x3e1
 1468 03bc 06       		.uleb128 0x6
 1469 03bd 3A010000 		.4byte	.LASF63
 1470 03c1 0A       		.byte	0xa
 1471 03c2 2D       		.byte	0x2d
 1472 03c3 68020000 		.4byte	0x268
 1473 03c7 00       		.byte	0
 1474 03c8 06       		.uleb128 0x6
 1475 03c9 BB040000 		.4byte	.LASF64
 1476 03cd 0A       		.byte	0xa
 1477 03ce 2F       		.byte	0x2f
 1478 03cf 62020000 		.4byte	0x262
 1479 03d3 08       		.byte	0x8
 1480 03d4 06       		.uleb128 0x6
 1481 03d5 2C040000 		.4byte	.LASF65
 1482 03d9 0A       		.byte	0xa
 1483 03da 31       		.byte	0x31
 1484 03db E1030000 		.4byte	0x3e1
 1485 03df 0C       		.byte	0xc
 1486 03e0 00       		.byte	0
 1487 03e1 09       		.uleb128 0x9
 1488 03e2 04       		.byte	0x4
 1489 03e3 B0030000 		.4byte	0x3b0
 1490 03e7 04       		.uleb128 0x4
 1491 03e8 76020000 		.4byte	.LASF62
 1492 03ec 0A       		.byte	0xa
 1493 03ed 33       		.byte	0x33
 1494 03ee B0030000 		.4byte	0x3b0
 1495 03f2 0E       		.uleb128 0xe
 1496 03f3 04       		.byte	0x4
 1497 03f4 07       		.byte	0x7
 1498 03f5 96       		.byte	0x96
 1499 03f6 27040000 		.4byte	0x427
 1500 03fa 0F       		.uleb128 0xf
 1501 03fb 11000000 		.4byte	.LASF66
 1502 03ff 07       		.byte	0x7
 1503 0400 9D       		.byte	0x9d
 1504 0401 0C010000 		.4byte	0x10c
 1505 0405 0F       		.uleb128 0xf
ARM GAS  /tmp/cc8oKFvA.s 			page 28


 1506 0406 F5000000 		.4byte	.LASF67
 1507 040a 07       		.byte	0x7
 1508 040b A4       		.byte	0xa4
 1509 040c 0C010000 		.4byte	0x10c
 1510 0410 0F       		.uleb128 0xf
 1511 0411 AD040000 		.4byte	.LASF68
 1512 0415 07       		.byte	0x7
 1513 0416 AB       		.byte	0xab
 1514 0417 9E020000 		.4byte	0x29e
 1515 041b 0F       		.uleb128 0xf
 1516 041c BB030000 		.4byte	.LASF69
 1517 0420 07       		.byte	0x7
 1518 0421 B2       		.byte	0xb2
 1519 0422 17010000 		.4byte	0x117
 1520 0426 00       		.byte	0
 1521 0427 09       		.uleb128 0x9
 1522 0428 04       		.byte	0x4
 1523 0429 2D040000 		.4byte	0x42d
 1524 042d 10       		.uleb128 0x10
 1525 042e 32040000 		.4byte	0x432
 1526 0432 03       		.uleb128 0x3
 1527 0433 01       		.byte	0x1
 1528 0434 08       		.byte	0x8
 1529 0435 1B040000 		.4byte	.LASF70
 1530 0439 09       		.uleb128 0x9
 1531 043a 04       		.byte	0x4
 1532 043b A0020000 		.4byte	0x2a0
 1533 043f 09       		.uleb128 0x9
 1534 0440 04       		.byte	0x4
 1535 0441 E7030000 		.4byte	0x3e7
 1536 0445 11       		.uleb128 0x11
 1537 0446 C4020000 		.4byte	.LASF71
 1538 044a 02       		.byte	0x2
 1539 044b 49       		.byte	0x49
 1540 044c 62020000 		.4byte	0x262
 1541 0450 03       		.byte	0x3
 1542 0451 60040000 		.4byte	0x460
 1543 0455 12       		.uleb128 0x12
 1544 0456 747000   		.ascii	"tp\000"
 1545 0459 02       		.byte	0x2
 1546 045a 49       		.byte	0x49
 1547 045b 62020000 		.4byte	0x262
 1548 045f 00       		.byte	0
 1549 0460 13       		.uleb128 0x13
 1550 0461 52040000 		.4byte	.LASF93
 1551 0465 02       		.byte	0x2
 1552 0466 29       		.byte	0x29
 1553 0467 03       		.byte	0x3
 1554 0468 8C040000 		.4byte	0x48c
 1555 046c 12       		.uleb128 0x12
 1556 046d 747000   		.ascii	"tp\000"
 1557 0470 02       		.byte	0x2
 1558 0471 29       		.byte	0x29
 1559 0472 62020000 		.4byte	0x262
 1560 0476 12       		.uleb128 0x12
 1561 0477 74717000 		.ascii	"tqp\000"
 1562 047b 02       		.byte	0x2
ARM GAS  /tmp/cc8oKFvA.s 			page 29


 1563 047c 29       		.byte	0x29
 1564 047d 8C040000 		.4byte	0x48c
 1565 0481 14       		.uleb128 0x14
 1566 0482 637000   		.ascii	"cp\000"
 1567 0485 02       		.byte	0x2
 1568 0486 2B       		.byte	0x2b
 1569 0487 62020000 		.4byte	0x262
 1570 048b 00       		.byte	0
 1571 048c 09       		.uleb128 0x9
 1572 048d 04       		.byte	0x4
 1573 048e 68020000 		.4byte	0x268
 1574 0492 15       		.uleb128 0x15
 1575 0493 69010000 		.4byte	.LASF83
 1576 0497 01       		.byte	0x1
 1577 0498 EA       		.byte	0xea
 1578 0499 C3000000 		.4byte	0xc3
 1579 049d 01       		.byte	0x1
 1580 049e AD040000 		.4byte	0x4ad
 1581 04a2 12       		.uleb128 0x12
 1582 04a3 6D7000   		.ascii	"mp\000"
 1583 04a6 01       		.byte	0x1
 1584 04a7 EA       		.byte	0xea
 1585 04a8 3F040000 		.4byte	0x43f
 1586 04ac 00       		.byte	0
 1587 04ad 11       		.uleb128 0x11
 1588 04ae 20040000 		.4byte	.LASF72
 1589 04b2 02       		.byte	0x2
 1590 04b3 3B       		.byte	0x3b
 1591 04b4 62020000 		.4byte	0x262
 1592 04b8 03       		.byte	0x3
 1593 04b9 D3040000 		.4byte	0x4d3
 1594 04bd 12       		.uleb128 0x12
 1595 04be 74717000 		.ascii	"tqp\000"
 1596 04c2 02       		.byte	0x2
 1597 04c3 3B       		.byte	0x3b
 1598 04c4 8C040000 		.4byte	0x48c
 1599 04c8 14       		.uleb128 0x14
 1600 04c9 747000   		.ascii	"tp\000"
 1601 04cc 02       		.byte	0x2
 1602 04cd 3C       		.byte	0x3c
 1603 04ce 62020000 		.4byte	0x262
 1604 04d2 00       		.byte	0
 1605 04d3 16       		.uleb128 0x16
 1606 04d4 84040000 		.4byte	.LASF73
 1607 04d8 01       		.byte	0x1
 1608 04d9 56       		.byte	0x56
 1609 04da 00000000 		.4byte	.LFB7
 1610 04de 1C000000 		.4byte	.LFE7-.LFB7
 1611 04e2 01       		.uleb128 0x1
 1612 04e3 9C       		.byte	0x9c
 1613 04e4 0A050000 		.4byte	0x50a
 1614 04e8 17       		.uleb128 0x17
 1615 04e9 6D7000   		.ascii	"mp\000"
 1616 04ec 01       		.byte	0x1
 1617 04ed 56       		.byte	0x56
 1618 04ee 3F040000 		.4byte	0x43f
 1619 04f2 00000000 		.4byte	.LLST0
ARM GAS  /tmp/cc8oKFvA.s 			page 30


 1620 04f6 18       		.uleb128 0x18
 1621 04f7 16000000 		.4byte	.LVL4
 1622 04fb F60A0000 		.4byte	0xaf6
 1623 04ff 19       		.uleb128 0x19
 1624 0500 01       		.uleb128 0x1
 1625 0501 50       		.byte	0x50
 1626 0502 05       		.uleb128 0x5
 1627 0503 03       		.byte	0x3
 1628 0504 00000000 		.4byte	.LC0
 1629 0508 00       		.byte	0
 1630 0509 00       		.byte	0
 1631 050a 16       		.uleb128 0x16
 1632 050b 5E010000 		.4byte	.LASF74
 1633 050f 01       		.byte	0x1
 1634 0510 79       		.byte	0x79
 1635 0511 00000000 		.4byte	.LFB9
 1636 0515 00010000 		.4byte	.LFE9-.LFB9
 1637 0519 01       		.uleb128 0x1
 1638 051a 9C       		.byte	0x9c
 1639 051b B9060000 		.4byte	0x6b9
 1640 051f 17       		.uleb128 0x17
 1641 0520 6D7000   		.ascii	"mp\000"
 1642 0523 01       		.byte	0x1
 1643 0524 79       		.byte	0x79
 1644 0525 3F040000 		.4byte	0x43f
 1645 0529 34000000 		.4byte	.LLST1
 1646 052d 1A       		.uleb128 0x1a
 1647 052e 63747000 		.ascii	"ctp\000"
 1648 0532 01       		.byte	0x1
 1649 0533 7A       		.byte	0x7a
 1650 0534 62020000 		.4byte	0x262
 1651 0538 6B000000 		.4byte	.LLST2
 1652 053c 1B       		.uleb128 0x1b
 1653 053d 00000000 		.4byte	.Ldebug_ranges0+0
 1654 0541 9C060000 		.4byte	0x69c
 1655 0545 1A       		.uleb128 0x1a
 1656 0546 747000   		.ascii	"tp\000"
 1657 0549 01       		.byte	0x1
 1658 054a 84       		.byte	0x84
 1659 054b 62020000 		.4byte	0x262
 1660 054f 89000000 		.4byte	.LLST3
 1661 0553 1C       		.uleb128 0x1c
 1662 0554 60040000 		.4byte	0x460
 1663 0558 2E000000 		.4byte	.LBB30
 1664 055c 20000000 		.4byte	.Ldebug_ranges0+0x20
 1665 0560 01       		.byte	0x1
 1666 0561 AD       		.byte	0xad
 1667 0562 88050000 		.4byte	0x588
 1668 0566 1D       		.uleb128 0x1d
 1669 0567 76040000 		.4byte	0x476
 1670 056b B2000000 		.4byte	.LLST4
 1671 056f 1D       		.uleb128 0x1d
 1672 0570 6C040000 		.4byte	0x46c
 1673 0574 D3000000 		.4byte	.LLST5
 1674 0578 1E       		.uleb128 0x1e
 1675 0579 20000000 		.4byte	.Ldebug_ranges0+0x20
 1676 057d 1F       		.uleb128 0x1f
ARM GAS  /tmp/cc8oKFvA.s 			page 31


 1677 057e 81040000 		.4byte	0x481
 1678 0582 E6000000 		.4byte	.LLST6
 1679 0586 00       		.byte	0
 1680 0587 00       		.byte	0
 1681 0588 1C       		.uleb128 0x1c
 1682 0589 45040000 		.4byte	0x445
 1683 058d 6E000000 		.4byte	.LBB34
 1684 0591 38000000 		.4byte	.Ldebug_ranges0+0x38
 1685 0595 01       		.byte	0x1
 1686 0596 A7       		.byte	0xa7
 1687 0597 A5050000 		.4byte	0x5a5
 1688 059b 1D       		.uleb128 0x1d
 1689 059c 55040000 		.4byte	0x455
 1690 05a0 04010000 		.4byte	.LLST7
 1691 05a4 00       		.byte	0
 1692 05a5 1C       		.uleb128 0x1c
 1693 05a6 45040000 		.4byte	0x445
 1694 05aa 8E000000 		.4byte	.LBB38
 1695 05ae 50000000 		.4byte	.Ldebug_ranges0+0x50
 1696 05b2 01       		.byte	0x1
 1697 05b3 9E       		.byte	0x9e
 1698 05b4 C2050000 		.4byte	0x5c2
 1699 05b8 1D       		.uleb128 0x1d
 1700 05b9 55040000 		.4byte	0x455
 1701 05bd 17010000 		.4byte	.LLST8
 1702 05c1 00       		.byte	0
 1703 05c2 20       		.uleb128 0x20
 1704 05c3 60040000 		.4byte	0x460
 1705 05c7 9A000000 		.4byte	.LBB42
 1706 05cb 1C000000 		.4byte	.LBE42-.LBB42
 1707 05cf 01       		.byte	0x1
 1708 05d0 9E       		.byte	0x9e
 1709 05d1 FB050000 		.4byte	0x5fb
 1710 05d5 1D       		.uleb128 0x1d
 1711 05d6 76040000 		.4byte	0x476
 1712 05da 2A010000 		.4byte	.LLST9
 1713 05de 1D       		.uleb128 0x1d
 1714 05df 6C040000 		.4byte	0x46c
 1715 05e3 3D010000 		.4byte	.LLST10
 1716 05e7 21       		.uleb128 0x21
 1717 05e8 9A000000 		.4byte	.LBB43
 1718 05ec 1C000000 		.4byte	.LBE43-.LBB43
 1719 05f0 1F       		.uleb128 0x1f
 1720 05f1 81040000 		.4byte	0x481
 1721 05f5 50010000 		.4byte	.LLST11
 1722 05f9 00       		.byte	0
 1723 05fa 00       		.byte	0
 1724 05fb 1C       		.uleb128 0x1c
 1725 05fc 45040000 		.4byte	0x445
 1726 0600 B6000000 		.4byte	.LBB44
 1727 0604 68000000 		.4byte	.Ldebug_ranges0+0x68
 1728 0608 01       		.byte	0x1
 1729 0609 8E       		.byte	0x8e
 1730 060a 18060000 		.4byte	0x618
 1731 060e 1D       		.uleb128 0x1d
 1732 060f 55040000 		.4byte	0x455
 1733 0613 6E010000 		.4byte	.LLST12
ARM GAS  /tmp/cc8oKFvA.s 			page 32


 1734 0617 00       		.byte	0
 1735 0618 20       		.uleb128 0x20
 1736 0619 60040000 		.4byte	0x460
 1737 061d C6000000 		.4byte	.LBB48
 1738 0621 16000000 		.4byte	.LBE48-.LBB48
 1739 0625 01       		.byte	0x1
 1740 0626 8E       		.byte	0x8e
 1741 0627 51060000 		.4byte	0x651
 1742 062b 1D       		.uleb128 0x1d
 1743 062c 76040000 		.4byte	0x476
 1744 0630 8D010000 		.4byte	.LLST13
 1745 0634 1D       		.uleb128 0x1d
 1746 0635 6C040000 		.4byte	0x46c
 1747 0639 A0010000 		.4byte	.LLST14
 1748 063d 21       		.uleb128 0x21
 1749 063e C6000000 		.4byte	.LBB49
 1750 0642 16000000 		.4byte	.LBE49-.LBB49
 1751 0646 1F       		.uleb128 0x1f
 1752 0647 81040000 		.4byte	0x481
 1753 064b BF010000 		.4byte	.LLST15
 1754 064f 00       		.byte	0
 1755 0650 00       		.byte	0
 1756 0651 22       		.uleb128 0x22
 1757 0652 52000000 		.4byte	.LVL12
 1758 0656 070B0000 		.4byte	0xb07
 1759 065a 64060000 		.4byte	0x664
 1760 065e 19       		.uleb128 0x19
 1761 065f 01       		.uleb128 0x1
 1762 0660 50       		.byte	0x50
 1763 0661 01       		.uleb128 0x1
 1764 0662 34       		.byte	0x34
 1765 0663 00       		.byte	0
 1766 0664 22       		.uleb128 0x22
 1767 0665 5E000000 		.4byte	.LVL13
 1768 0669 F60A0000 		.4byte	0xaf6
 1769 066d 7B060000 		.4byte	0x67b
 1770 0671 19       		.uleb128 0x19
 1771 0672 01       		.uleb128 0x1
 1772 0673 50       		.byte	0x50
 1773 0674 05       		.uleb128 0x5
 1774 0675 03       		.byte	0x3
 1775 0676 20000000 		.4byte	.LC2
 1776 067a 00       		.byte	0
 1777 067b 23       		.uleb128 0x23
 1778 067c 6E000000 		.4byte	.LVL15
 1779 0680 F60A0000 		.4byte	0xaf6
 1780 0684 92060000 		.4byte	0x692
 1781 0688 19       		.uleb128 0x19
 1782 0689 01       		.uleb128 0x1
 1783 068a 50       		.byte	0x50
 1784 068b 05       		.uleb128 0x5
 1785 068c 03       		.byte	0x3
 1786 068d 34000000 		.4byte	.LC3
 1787 0691 00       		.byte	0
 1788 0692 24       		.uleb128 0x24
 1789 0693 82000000 		.4byte	.LVL17
 1790 0697 180B0000 		.4byte	0xb18
ARM GAS  /tmp/cc8oKFvA.s 			page 33


 1791 069b 00       		.byte	0
 1792 069c 24       		.uleb128 0x24
 1793 069d 0C000000 		.4byte	.LVL7
 1794 06a1 2D0B0000 		.4byte	0xb2d
 1795 06a5 18       		.uleb128 0x18
 1796 06a6 EE000000 		.4byte	.LVL29
 1797 06aa F60A0000 		.4byte	0xaf6
 1798 06ae 19       		.uleb128 0x19
 1799 06af 01       		.uleb128 0x1
 1800 06b0 50       		.byte	0x50
 1801 06b1 05       		.uleb128 0x5
 1802 06b2 03       		.byte	0x3
 1803 06b3 10000000 		.4byte	.LC1
 1804 06b7 00       		.byte	0
 1805 06b8 00       		.byte	0
 1806 06b9 16       		.uleb128 0x16
 1807 06ba 9F020000 		.4byte	.LASF75
 1808 06be 01       		.byte	0x1
 1809 06bf 67       		.byte	0x67
 1810 06c0 00000000 		.4byte	.LFB8
 1811 06c4 20000000 		.4byte	.LFE8-.LFB8
 1812 06c8 01       		.uleb128 0x1
 1813 06c9 9C       		.byte	0x9c
 1814 06ca 35070000 		.4byte	0x735
 1815 06ce 17       		.uleb128 0x17
 1816 06cf 6D7000   		.ascii	"mp\000"
 1817 06d2 01       		.byte	0x1
 1818 06d3 67       		.byte	0x67
 1819 06d4 3F040000 		.4byte	0x43f
 1820 06d8 DD010000 		.4byte	.LLST16
 1821 06dc 1B       		.uleb128 0x1b
 1822 06dd 80000000 		.4byte	.Ldebug_ranges0+0x80
 1823 06e1 F3060000 		.4byte	0x6f3
 1824 06e5 25       		.uleb128 0x25
 1825 06e6 746D7000 		.ascii	"tmp\000"
 1826 06ea 01       		.byte	0x1
 1827 06eb 69       		.byte	0x69
 1828 06ec AD000000 		.4byte	0xad
 1829 06f0 01       		.uleb128 0x1
 1830 06f1 53       		.byte	0x53
 1831 06f2 00       		.byte	0
 1832 06f3 26       		.uleb128 0x26
 1833 06f4 18000000 		.4byte	.LBB54
 1834 06f8 08000000 		.4byte	.LBE54-.LBB54
 1835 06fc 0E070000 		.4byte	0x70e
 1836 0700 25       		.uleb128 0x25
 1837 0701 746D7000 		.ascii	"tmp\000"
 1838 0705 01       		.byte	0x1
 1839 0706 6D       		.byte	0x6d
 1840 0707 AD000000 		.4byte	0xad
 1841 070b 01       		.uleb128 0x1
 1842 070c 53       		.byte	0x53
 1843 070d 00       		.byte	0
 1844 070e 24       		.uleb128 0x24
 1845 070f 0E000000 		.4byte	.LVL31
 1846 0713 340B0000 		.4byte	0xb34
 1847 0717 22       		.uleb128 0x22
ARM GAS  /tmp/cc8oKFvA.s 			page 34


 1848 0718 14000000 		.4byte	.LVL32
 1849 071c 0A050000 		.4byte	0x50a
 1850 0720 2B070000 		.4byte	0x72b
 1851 0724 19       		.uleb128 0x19
 1852 0725 01       		.uleb128 0x1
 1853 0726 50       		.byte	0x50
 1854 0727 02       		.uleb128 0x2
 1855 0728 74       		.byte	0x74
 1856 0729 00       		.sleb128 0
 1857 072a 00       		.byte	0
 1858 072b 24       		.uleb128 0x24
 1859 072c 18000000 		.4byte	.LVL33
 1860 0730 3B0B0000 		.4byte	0xb3b
 1861 0734 00       		.byte	0
 1862 0735 27       		.uleb128 0x27
 1863 0736 92040000 		.4byte	0x492
 1864 073a 00000000 		.4byte	.LFB11
 1865 073e 34000000 		.4byte	.LFE11-.LFB11
 1866 0742 01       		.uleb128 0x1
 1867 0743 9C       		.byte	0x9c
 1868 0744 85070000 		.4byte	0x785
 1869 0748 1D       		.uleb128 0x1d
 1870 0749 A2040000 		.4byte	0x4a2
 1871 074d FB010000 		.4byte	.LLST17
 1872 0751 26       		.uleb128 0x26
 1873 0752 12000000 		.4byte	.LBB57
 1874 0756 10000000 		.4byte	.LBE57-.LBB57
 1875 075a 68070000 		.4byte	0x768
 1876 075e 1D       		.uleb128 0x1d
 1877 075f A2040000 		.4byte	0x4a2
 1878 0763 19020000 		.4byte	.LLST18
 1879 0767 00       		.byte	0
 1880 0768 24       		.uleb128 0x24
 1881 0769 08000000 		.4byte	.LVL35
 1882 076d 2D0B0000 		.4byte	0xb2d
 1883 0771 18       		.uleb128 0x18
 1884 0772 28000000 		.4byte	.LVL38
 1885 0776 F60A0000 		.4byte	0xaf6
 1886 077a 19       		.uleb128 0x19
 1887 077b 01       		.uleb128 0x1
 1888 077c 50       		.byte	0x50
 1889 077d 05       		.uleb128 0x5
 1890 077e 03       		.byte	0x3
 1891 077f 48000000 		.4byte	.LC4
 1892 0783 00       		.byte	0
 1893 0784 00       		.byte	0
 1894 0785 28       		.uleb128 0x28
 1895 0786 69020000 		.4byte	.LASF76
 1896 078a 01       		.byte	0x1
 1897 078b CE       		.byte	0xce
 1898 078c C3000000 		.4byte	0xc3
 1899 0790 00000000 		.4byte	.LFB10
 1900 0794 24000000 		.4byte	.LFE10-.LFB10
 1901 0798 01       		.uleb128 0x1
 1902 0799 9C       		.byte	0x9c
 1903 079a 10080000 		.4byte	0x810
 1904 079e 17       		.uleb128 0x17
ARM GAS  /tmp/cc8oKFvA.s 			page 35


 1905 079f 6D7000   		.ascii	"mp\000"
 1906 07a2 01       		.byte	0x1
 1907 07a3 CE       		.byte	0xce
 1908 07a4 3F040000 		.4byte	0x43f
 1909 07a8 2C020000 		.4byte	.LLST19
 1910 07ac 25       		.uleb128 0x25
 1911 07ad 6200     		.ascii	"b\000"
 1912 07af 01       		.byte	0x1
 1913 07b0 CF       		.byte	0xcf
 1914 07b1 C3000000 		.4byte	0xc3
 1915 07b5 01       		.uleb128 0x1
 1916 07b6 54       		.byte	0x54
 1917 07b7 1B       		.uleb128 0x1b
 1918 07b8 98000000 		.4byte	.Ldebug_ranges0+0x98
 1919 07bc CE070000 		.4byte	0x7ce
 1920 07c0 25       		.uleb128 0x25
 1921 07c1 746D7000 		.ascii	"tmp\000"
 1922 07c5 01       		.byte	0x1
 1923 07c6 D1       		.byte	0xd1
 1924 07c7 AD000000 		.4byte	0xad
 1925 07cb 01       		.uleb128 0x1
 1926 07cc 53       		.byte	0x53
 1927 07cd 00       		.byte	0
 1928 07ce 26       		.uleb128 0x26
 1929 07cf 1A000000 		.4byte	.LBB61
 1930 07d3 06000000 		.4byte	.LBE61-.LBB61
 1931 07d7 E9070000 		.4byte	0x7e9
 1932 07db 25       		.uleb128 0x25
 1933 07dc 746D7000 		.ascii	"tmp\000"
 1934 07e0 01       		.byte	0x1
 1935 07e1 D5       		.byte	0xd5
 1936 07e2 AD000000 		.4byte	0xad
 1937 07e6 01       		.uleb128 0x1
 1938 07e7 53       		.byte	0x53
 1939 07e8 00       		.byte	0
 1940 07e9 24       		.uleb128 0x24
 1941 07ea 0E000000 		.4byte	.LVL40
 1942 07ee 340B0000 		.4byte	0xb34
 1943 07f2 22       		.uleb128 0x22
 1944 07f3 14000000 		.4byte	.LVL41
 1945 07f7 92040000 		.4byte	0x492
 1946 07fb 06080000 		.4byte	0x806
 1947 07ff 19       		.uleb128 0x19
 1948 0800 01       		.uleb128 0x1
 1949 0801 50       		.byte	0x50
 1950 0802 02       		.uleb128 0x2
 1951 0803 74       		.byte	0x74
 1952 0804 00       		.sleb128 0
 1953 0805 00       		.byte	0
 1954 0806 24       		.uleb128 0x24
 1955 0807 1A000000 		.4byte	.LVL43
 1956 080b 3B0B0000 		.4byte	0xb3b
 1957 080f 00       		.byte	0
 1958 0810 29       		.uleb128 0x29
 1959 0811 FE000000 		.4byte	.LASF77
 1960 0815 01       		.byte	0x1
 1961 0816 0101     		.2byte	0x101
ARM GAS  /tmp/cc8oKFvA.s 			page 36


 1962 0818 3F040000 		.4byte	0x43f
 1963 081c 00000000 		.4byte	.LFB12
 1964 0820 88000000 		.4byte	.LFE12-.LFB12
 1965 0824 01       		.uleb128 0x1
 1966 0825 9C       		.byte	0x9c
 1967 0826 33090000 		.4byte	0x933
 1968 082a 2A       		.uleb128 0x2a
 1969 082b 63747000 		.ascii	"ctp\000"
 1970 082f 01       		.byte	0x1
 1971 0830 0201     		.2byte	0x102
 1972 0832 62020000 		.4byte	0x262
 1973 0836 01       		.uleb128 0x1
 1974 0837 55       		.byte	0x55
 1975 0838 2B       		.uleb128 0x2b
 1976 0839 756D7000 		.ascii	"ump\000"
 1977 083d 01       		.byte	0x1
 1978 083e 0301     		.2byte	0x103
 1979 0840 3F040000 		.4byte	0x43f
 1980 0844 58020000 		.4byte	.LLST20
 1981 0848 2B       		.uleb128 0x2b
 1982 0849 6D7000   		.ascii	"mp\000"
 1983 084c 01       		.byte	0x1
 1984 084d 0301     		.2byte	0x103
 1985 084f 3F040000 		.4byte	0x43f
 1986 0853 6B020000 		.4byte	.LLST21
 1987 0857 1B       		.uleb128 0x1b
 1988 0858 B0000000 		.4byte	.Ldebug_ranges0+0xb0
 1989 085c 6F080000 		.4byte	0x86f
 1990 0860 2A       		.uleb128 0x2a
 1991 0861 746D7000 		.ascii	"tmp\000"
 1992 0865 01       		.byte	0x1
 1993 0866 0501     		.2byte	0x105
 1994 0868 AD000000 		.4byte	0xad
 1995 086c 01       		.uleb128 0x1
 1996 086d 53       		.byte	0x53
 1997 086e 00       		.byte	0
 1998 086f 26       		.uleb128 0x26
 1999 0870 2E000000 		.4byte	.LBB64
 2000 0874 30000000 		.4byte	.LBE64-.LBB64
 2001 0878 DA080000 		.4byte	0x8da
 2002 087c 2C       		.uleb128 0x2c
 2003 087d 747000   		.ascii	"tp\000"
 2004 0880 01       		.byte	0x1
 2005 0881 1201     		.2byte	0x112
 2006 0883 62020000 		.4byte	0x262
 2007 0887 2D       		.uleb128 0x2d
 2008 0888 30020000 		.4byte	.LASF78
 2009 088c 01       		.byte	0x1
 2010 088d 1601     		.2byte	0x116
 2011 088f 01010000 		.4byte	0x101
 2012 0893 7E020000 		.4byte	.LLST22
 2013 0897 2E       		.uleb128 0x2e
 2014 0898 AD040000 		.4byte	0x4ad
 2015 089c 46000000 		.4byte	.LBB65
 2016 08a0 C8000000 		.4byte	.Ldebug_ranges0+0xc8
 2017 08a4 01       		.byte	0x1
 2018 08a5 2501     		.2byte	0x125
ARM GAS  /tmp/cc8oKFvA.s 			page 37


 2019 08a7 C4080000 		.4byte	0x8c4
 2020 08ab 1D       		.uleb128 0x1d
 2021 08ac BD040000 		.4byte	0x4bd
 2022 08b0 9D020000 		.4byte	.LLST23
 2023 08b4 1E       		.uleb128 0x1e
 2024 08b5 C8000000 		.4byte	.Ldebug_ranges0+0xc8
 2025 08b9 1F       		.uleb128 0x1f
 2026 08ba C8040000 		.4byte	0x4c8
 2027 08be B0020000 		.4byte	.LLST24
 2028 08c2 00       		.byte	0
 2029 08c3 00       		.byte	0
 2030 08c4 18       		.uleb128 0x18
 2031 08c5 5E000000 		.4byte	.LVL54
 2032 08c9 420B0000 		.4byte	0xb42
 2033 08cd 19       		.uleb128 0x19
 2034 08ce 01       		.uleb128 0x1
 2035 08cf 51       		.byte	0x51
 2036 08d0 01       		.uleb128 0x1
 2037 08d1 30       		.byte	0x30
 2038 08d2 19       		.uleb128 0x19
 2039 08d3 01       		.uleb128 0x1
 2040 08d4 50       		.byte	0x50
 2041 08d5 02       		.uleb128 0x2
 2042 08d6 76       		.byte	0x76
 2043 08d7 00       		.sleb128 0
 2044 08d8 00       		.byte	0
 2045 08d9 00       		.byte	0
 2046 08da 26       		.uleb128 0x26
 2047 08db 62000000 		.4byte	.LBB71
 2048 08df 06000000 		.4byte	.LBE71-.LBB71
 2049 08e3 F6080000 		.4byte	0x8f6
 2050 08e7 2A       		.uleb128 0x2a
 2051 08e8 746D7000 		.ascii	"tmp\000"
 2052 08ec 01       		.byte	0x1
 2053 08ed 2D01     		.2byte	0x12d
 2054 08ef AD000000 		.4byte	0xad
 2055 08f3 01       		.uleb128 0x1
 2056 08f4 53       		.byte	0x53
 2057 08f5 00       		.byte	0
 2058 08f6 24       		.uleb128 0x24
 2059 08f7 10000000 		.4byte	.LVL45
 2060 08fb 340B0000 		.4byte	0xb34
 2061 08ff 22       		.uleb128 0x22
 2062 0900 22000000 		.4byte	.LVL46
 2063 0904 F60A0000 		.4byte	0xaf6
 2064 0908 16090000 		.4byte	0x916
 2065 090c 19       		.uleb128 0x19
 2066 090d 01       		.uleb128 0x1
 2067 090e 50       		.byte	0x50
 2068 090f 05       		.uleb128 0x5
 2069 0910 03       		.byte	0x3
 2070 0911 70000000 		.4byte	.LC6
 2071 0915 00       		.byte	0
 2072 0916 24       		.uleb128 0x24
 2073 0917 62000000 		.4byte	.LVL55
 2074 091b 3B0B0000 		.4byte	0xb3b
 2075 091f 18       		.uleb128 0x18
ARM GAS  /tmp/cc8oKFvA.s 			page 38


 2076 0920 78000000 		.4byte	.LVL58
 2077 0924 F60A0000 		.4byte	0xaf6
 2078 0928 19       		.uleb128 0x19
 2079 0929 01       		.uleb128 0x1
 2080 092a 50       		.byte	0x50
 2081 092b 05       		.uleb128 0x5
 2082 092c 03       		.byte	0x3
 2083 092d 5C000000 		.4byte	.LC5
 2084 0931 00       		.byte	0
 2085 0932 00       		.byte	0
 2086 0933 29       		.uleb128 0x29
 2087 0934 D1030000 		.4byte	.LASF79
 2088 0938 01       		.byte	0x1
 2089 0939 3D01     		.2byte	0x13d
 2090 093b 3F040000 		.4byte	0x43f
 2091 093f 00000000 		.4byte	.LFB13
 2092 0943 78000000 		.4byte	.LFE13-.LFB13
 2093 0947 01       		.uleb128 0x1
 2094 0948 9C       		.byte	0x9c
 2095 0949 140A0000 		.4byte	0xa14
 2096 094d 2A       		.uleb128 0x2a
 2097 094e 63747000 		.ascii	"ctp\000"
 2098 0952 01       		.byte	0x1
 2099 0953 3E01     		.2byte	0x13e
 2100 0955 62020000 		.4byte	0x262
 2101 0959 01       		.uleb128 0x1
 2102 095a 55       		.byte	0x55
 2103 095b 2B       		.uleb128 0x2b
 2104 095c 756D7000 		.ascii	"ump\000"
 2105 0960 01       		.byte	0x1
 2106 0961 3F01     		.2byte	0x13f
 2107 0963 3F040000 		.4byte	0x43f
 2108 0967 C3020000 		.4byte	.LLST25
 2109 096b 2B       		.uleb128 0x2b
 2110 096c 6D7000   		.ascii	"mp\000"
 2111 096f 01       		.byte	0x1
 2112 0970 3F01     		.2byte	0x13f
 2113 0972 3F040000 		.4byte	0x43f
 2114 0976 D6020000 		.4byte	.LLST26
 2115 097a 26       		.uleb128 0x26
 2116 097b 26000000 		.4byte	.LBB72
 2117 097f 2E000000 		.4byte	.LBE72-.LBB72
 2118 0983 E0090000 		.4byte	0x9e0
 2119 0987 2C       		.uleb128 0x2c
 2120 0988 747000   		.ascii	"tp\000"
 2121 098b 01       		.byte	0x1
 2122 098c 4F01     		.2byte	0x14f
 2123 098e 62020000 		.4byte	0x262
 2124 0992 2D       		.uleb128 0x2d
 2125 0993 30020000 		.4byte	.LASF78
 2126 0997 01       		.byte	0x1
 2127 0998 5301     		.2byte	0x153
 2128 099a 01010000 		.4byte	0x101
 2129 099e E9020000 		.4byte	.LLST27
 2130 09a2 2E       		.uleb128 0x2e
 2131 09a3 AD040000 		.4byte	0x4ad
 2132 09a7 3E000000 		.4byte	.LBB73
ARM GAS  /tmp/cc8oKFvA.s 			page 39


 2133 09ab E8000000 		.4byte	.Ldebug_ranges0+0xe8
 2134 09af 01       		.byte	0x1
 2135 09b0 6001     		.2byte	0x160
 2136 09b2 CF090000 		.4byte	0x9cf
 2137 09b6 1D       		.uleb128 0x1d
 2138 09b7 BD040000 		.4byte	0x4bd
 2139 09bb FC020000 		.4byte	.LLST28
 2140 09bf 1E       		.uleb128 0x1e
 2141 09c0 E8000000 		.4byte	.Ldebug_ranges0+0xe8
 2142 09c4 1F       		.uleb128 0x1f
 2143 09c5 C8040000 		.4byte	0x4c8
 2144 09c9 0F030000 		.4byte	.LLST29
 2145 09cd 00       		.byte	0
 2146 09ce 00       		.byte	0
 2147 09cf 18       		.uleb128 0x18
 2148 09d0 54000000 		.4byte	.LVL68
 2149 09d4 180B0000 		.4byte	0xb18
 2150 09d8 19       		.uleb128 0x19
 2151 09d9 01       		.uleb128 0x1
 2152 09da 50       		.byte	0x50
 2153 09db 02       		.uleb128 0x2
 2154 09dc 76       		.byte	0x76
 2155 09dd 00       		.sleb128 0
 2156 09de 00       		.byte	0
 2157 09df 00       		.byte	0
 2158 09e0 24       		.uleb128 0x24
 2159 09e1 0A000000 		.4byte	.LVL60
 2160 09e5 2D0B0000 		.4byte	0xb2d
 2161 09e9 22       		.uleb128 0x22
 2162 09ea 1A000000 		.4byte	.LVL61
 2163 09ee F60A0000 		.4byte	0xaf6
 2164 09f2 000A0000 		.4byte	0xa00
 2165 09f6 19       		.uleb128 0x19
 2166 09f7 01       		.uleb128 0x1
 2167 09f8 50       		.byte	0x50
 2168 09f9 05       		.uleb128 0x5
 2169 09fa 03       		.byte	0x3
 2170 09fb 98000000 		.4byte	.LC8
 2171 09ff 00       		.byte	0
 2172 0a00 18       		.uleb128 0x18
 2173 0a01 66000000 		.4byte	.LVL71
 2174 0a05 F60A0000 		.4byte	0xaf6
 2175 0a09 19       		.uleb128 0x19
 2176 0a0a 01       		.uleb128 0x1
 2177 0a0b 50       		.byte	0x50
 2178 0a0c 05       		.uleb128 0x5
 2179 0a0d 03       		.byte	0x3
 2180 0a0e 84000000 		.4byte	.LC7
 2181 0a12 00       		.byte	0
 2182 0a13 00       		.byte	0
 2183 0a14 2F       		.uleb128 0x2f
 2184 0a15 21020000 		.4byte	.LASF80
 2185 0a19 01       		.byte	0x1
 2186 0a1a 7601     		.2byte	0x176
 2187 0a1c 00000000 		.4byte	.LFB14
 2188 0a20 5C000000 		.4byte	.LFE14-.LFB14
 2189 0a24 01       		.uleb128 0x1
ARM GAS  /tmp/cc8oKFvA.s 			page 40


 2190 0a25 9C       		.byte	0x9c
 2191 0a26 EB0A0000 		.4byte	0xaeb
 2192 0a2a 2B       		.uleb128 0x2b
 2193 0a2b 63747000 		.ascii	"ctp\000"
 2194 0a2f 01       		.byte	0x1
 2195 0a30 7701     		.2byte	0x177
 2196 0a32 62020000 		.4byte	0x262
 2197 0a36 22030000 		.4byte	.LLST30
 2198 0a3a 1B       		.uleb128 0x1b
 2199 0a3b 00010000 		.4byte	.Ldebug_ranges0+0x100
 2200 0a3f 520A0000 		.4byte	0xa52
 2201 0a43 2A       		.uleb128 0x2a
 2202 0a44 746D7000 		.ascii	"tmp\000"
 2203 0a48 01       		.byte	0x1
 2204 0a49 7901     		.2byte	0x179
 2205 0a4b AD000000 		.4byte	0xad
 2206 0a4f 01       		.uleb128 0x1
 2207 0a50 53       		.byte	0x53
 2208 0a51 00       		.byte	0
 2209 0a52 1B       		.uleb128 0x1b
 2210 0a53 18010000 		.4byte	.Ldebug_ranges0+0x118
 2211 0a57 B30A0000 		.4byte	0xab3
 2212 0a5b 2B       		.uleb128 0x2b
 2213 0a5c 756D7000 		.ascii	"ump\000"
 2214 0a60 01       		.byte	0x1
 2215 0a61 7C01     		.2byte	0x17c
 2216 0a63 3F040000 		.4byte	0x43f
 2217 0a67 35030000 		.4byte	.LLST31
 2218 0a6b 1E       		.uleb128 0x1e
 2219 0a6c 30010000 		.4byte	.Ldebug_ranges0+0x130
 2220 0a70 2C       		.uleb128 0x2c
 2221 0a71 747000   		.ascii	"tp\000"
 2222 0a74 01       		.byte	0x1
 2223 0a75 7F01     		.2byte	0x17f
 2224 0a77 62020000 		.4byte	0x262
 2225 0a7b 2E       		.uleb128 0x2e
 2226 0a7c AD040000 		.4byte	0x4ad
 2227 0a80 18000000 		.4byte	.LBB81
 2228 0a84 48010000 		.4byte	.Ldebug_ranges0+0x148
 2229 0a88 01       		.byte	0x1
 2230 0a89 7F01     		.2byte	0x17f
 2231 0a8b A80A0000 		.4byte	0xaa8
 2232 0a8f 1D       		.uleb128 0x1d
 2233 0a90 BD040000 		.4byte	0x4bd
 2234 0a94 35030000 		.4byte	.LLST31
 2235 0a98 1E       		.uleb128 0x1e
 2236 0a99 48010000 		.4byte	.Ldebug_ranges0+0x148
 2237 0a9d 1F       		.uleb128 0x1f
 2238 0a9e C8040000 		.4byte	0x4c8
 2239 0aa2 53030000 		.4byte	.LLST33
 2240 0aa6 00       		.byte	0
 2241 0aa7 00       		.byte	0
 2242 0aa8 24       		.uleb128 0x24
 2243 0aa9 2A000000 		.4byte	.LVL75
 2244 0aad 180B0000 		.4byte	0xb18
 2245 0ab1 00       		.byte	0
 2246 0ab2 00       		.byte	0
ARM GAS  /tmp/cc8oKFvA.s 			page 41


 2247 0ab3 26       		.uleb128 0x26
 2248 0ab4 4E000000 		.4byte	.LBB87
 2249 0ab8 0E000000 		.4byte	.LBE87-.LBB87
 2250 0abc CF0A0000 		.4byte	0xacf
 2251 0ac0 2A       		.uleb128 0x2a
 2252 0ac1 746D7000 		.ascii	"tmp\000"
 2253 0ac5 01       		.byte	0x1
 2254 0ac6 8B01     		.2byte	0x18b
 2255 0ac8 AD000000 		.4byte	0xad
 2256 0acc 01       		.uleb128 0x1
 2257 0acd 53       		.byte	0x53
 2258 0ace 00       		.byte	0
 2259 0acf 24       		.uleb128 0x24
 2260 0ad0 10000000 		.4byte	.LVL73
 2261 0ad4 340B0000 		.4byte	0xb34
 2262 0ad8 24       		.uleb128 0x24
 2263 0ad9 4A000000 		.4byte	.LVL80
 2264 0add 580B0000 		.4byte	0xb58
 2265 0ae1 24       		.uleb128 0x24
 2266 0ae2 4E000000 		.4byte	.LVL81
 2267 0ae6 3B0B0000 		.4byte	0xb3b
 2268 0aea 00       		.byte	0
 2269 0aeb 30       		.uleb128 0x30
 2270 0aec 9F040000 		.4byte	.LASF94
 2271 0af0 09       		.byte	0x9
 2272 0af1 6F       		.byte	0x6f
 2273 0af2 A5030000 		.4byte	0x3a5
 2274 0af6 31       		.uleb128 0x31
 2275 0af7 06000000 		.4byte	.LASF81
 2276 0afb 0B       		.byte	0xb
 2277 0afc F6       		.byte	0xf6
 2278 0afd 070B0000 		.4byte	0xb07
 2279 0b01 32       		.uleb128 0x32
 2280 0b02 27040000 		.4byte	0x427
 2281 0b06 00       		.byte	0
 2282 0b07 31       		.uleb128 0x31
 2283 0b08 E5030000 		.4byte	.LASF82
 2284 0b0c 09       		.byte	0x9
 2285 0b0d 93       		.byte	0x93
 2286 0b0e 180B0000 		.4byte	0xb18
 2287 0b12 32       		.uleb128 0x32
 2288 0b13 E0000000 		.4byte	0xe0
 2289 0b17 00       		.byte	0
 2290 0b18 33       		.uleb128 0x33
 2291 0b19 0F040000 		.4byte	.LASF84
 2292 0b1d 09       		.byte	0x9
 2293 0b1e 90       		.byte	0x90
 2294 0b1f 62020000 		.4byte	0x262
 2295 0b23 2D0B0000 		.4byte	0xb2d
 2296 0b27 32       		.uleb128 0x32
 2297 0b28 62020000 		.4byte	0x262
 2298 0b2c 00       		.byte	0
 2299 0b2d 34       		.uleb128 0x34
 2300 0b2e 40020000 		.4byte	.LASF85
 2301 0b32 0B       		.byte	0xb
 2302 0b33 EE       		.byte	0xee
 2303 0b34 34       		.uleb128 0x34
ARM GAS  /tmp/cc8oKFvA.s 			page 42


 2304 0b35 90020000 		.4byte	.LASF86
 2305 0b39 0B       		.byte	0xb
 2306 0b3a E7       		.byte	0xe7
 2307 0b3b 34       		.uleb128 0x34
 2308 0b3c DE020000 		.4byte	.LASF87
 2309 0b40 0B       		.byte	0xb
 2310 0b41 E8       		.byte	0xe8
 2311 0b42 31       		.uleb128 0x31
 2312 0b43 77040000 		.4byte	.LASF88
 2313 0b47 09       		.byte	0x9
 2314 0b48 99       		.byte	0x99
 2315 0b49 580B0000 		.4byte	0xb58
 2316 0b4d 32       		.uleb128 0x32
 2317 0b4e 62020000 		.4byte	0x262
 2318 0b52 32       		.uleb128 0x32
 2319 0b53 0C010000 		.4byte	0x10c
 2320 0b57 00       		.byte	0
 2321 0b58 34       		.uleb128 0x34
 2322 0b59 7F010000 		.4byte	.LASF89
 2323 0b5d 09       		.byte	0x9
 2324 0b5e 9C       		.byte	0x9c
 2325 0b5f 00       		.byte	0
 2326              		.section	.debug_abbrev,"",%progbits
 2327              	.Ldebug_abbrev0:
 2328 0000 01       		.uleb128 0x1
 2329 0001 11       		.uleb128 0x11
 2330 0002 01       		.byte	0x1
 2331 0003 25       		.uleb128 0x25
 2332 0004 0E       		.uleb128 0xe
 2333 0005 13       		.uleb128 0x13
 2334 0006 0B       		.uleb128 0xb
 2335 0007 03       		.uleb128 0x3
 2336 0008 0E       		.uleb128 0xe
 2337 0009 1B       		.uleb128 0x1b
 2338 000a 0E       		.uleb128 0xe
 2339 000b 55       		.uleb128 0x55
 2340 000c 17       		.uleb128 0x17
 2341 000d 11       		.uleb128 0x11
 2342 000e 01       		.uleb128 0x1
 2343 000f 10       		.uleb128 0x10
 2344 0010 17       		.uleb128 0x17
 2345 0011 00       		.byte	0
 2346 0012 00       		.byte	0
 2347 0013 02       		.uleb128 0x2
 2348 0014 24       		.uleb128 0x24
 2349 0015 00       		.byte	0
 2350 0016 0B       		.uleb128 0xb
 2351 0017 0B       		.uleb128 0xb
 2352 0018 3E       		.uleb128 0x3e
 2353 0019 0B       		.uleb128 0xb
 2354 001a 03       		.uleb128 0x3
 2355 001b 08       		.uleb128 0x8
 2356 001c 00       		.byte	0
 2357 001d 00       		.byte	0
 2358 001e 03       		.uleb128 0x3
 2359 001f 24       		.uleb128 0x24
 2360 0020 00       		.byte	0
ARM GAS  /tmp/cc8oKFvA.s 			page 43


 2361 0021 0B       		.uleb128 0xb
 2362 0022 0B       		.uleb128 0xb
 2363 0023 3E       		.uleb128 0x3e
 2364 0024 0B       		.uleb128 0xb
 2365 0025 03       		.uleb128 0x3
 2366 0026 0E       		.uleb128 0xe
 2367 0027 00       		.byte	0
 2368 0028 00       		.byte	0
 2369 0029 04       		.uleb128 0x4
 2370 002a 16       		.uleb128 0x16
 2371 002b 00       		.byte	0
 2372 002c 03       		.uleb128 0x3
 2373 002d 0E       		.uleb128 0xe
 2374 002e 3A       		.uleb128 0x3a
 2375 002f 0B       		.uleb128 0xb
 2376 0030 3B       		.uleb128 0x3b
 2377 0031 0B       		.uleb128 0xb
 2378 0032 49       		.uleb128 0x49
 2379 0033 13       		.uleb128 0x13
 2380 0034 00       		.byte	0
 2381 0035 00       		.byte	0
 2382 0036 05       		.uleb128 0x5
 2383 0037 13       		.uleb128 0x13
 2384 0038 01       		.byte	0x1
 2385 0039 03       		.uleb128 0x3
 2386 003a 0E       		.uleb128 0xe
 2387 003b 0B       		.uleb128 0xb
 2388 003c 0B       		.uleb128 0xb
 2389 003d 3A       		.uleb128 0x3a
 2390 003e 0B       		.uleb128 0xb
 2391 003f 3B       		.uleb128 0x3b
 2392 0040 0B       		.uleb128 0xb
 2393 0041 01       		.uleb128 0x1
 2394 0042 13       		.uleb128 0x13
 2395 0043 00       		.byte	0
 2396 0044 00       		.byte	0
 2397 0045 06       		.uleb128 0x6
 2398 0046 0D       		.uleb128 0xd
 2399 0047 00       		.byte	0
 2400 0048 03       		.uleb128 0x3
 2401 0049 0E       		.uleb128 0xe
 2402 004a 3A       		.uleb128 0x3a
 2403 004b 0B       		.uleb128 0xb
 2404 004c 3B       		.uleb128 0x3b
 2405 004d 0B       		.uleb128 0xb
 2406 004e 49       		.uleb128 0x49
 2407 004f 13       		.uleb128 0x13
 2408 0050 38       		.uleb128 0x38
 2409 0051 0B       		.uleb128 0xb
 2410 0052 00       		.byte	0
 2411 0053 00       		.byte	0
 2412 0054 07       		.uleb128 0x7
 2413 0055 0D       		.uleb128 0xd
 2414 0056 00       		.byte	0
 2415 0057 03       		.uleb128 0x3
 2416 0058 08       		.uleb128 0x8
 2417 0059 3A       		.uleb128 0x3a
ARM GAS  /tmp/cc8oKFvA.s 			page 44


 2418 005a 0B       		.uleb128 0xb
 2419 005b 3B       		.uleb128 0x3b
 2420 005c 0B       		.uleb128 0xb
 2421 005d 49       		.uleb128 0x49
 2422 005e 13       		.uleb128 0x13
 2423 005f 38       		.uleb128 0x38
 2424 0060 0B       		.uleb128 0xb
 2425 0061 00       		.byte	0
 2426 0062 00       		.byte	0
 2427 0063 08       		.uleb128 0x8
 2428 0064 13       		.uleb128 0x13
 2429 0065 01       		.byte	0x1
 2430 0066 0B       		.uleb128 0xb
 2431 0067 0B       		.uleb128 0xb
 2432 0068 3A       		.uleb128 0x3a
 2433 0069 0B       		.uleb128 0xb
 2434 006a 3B       		.uleb128 0x3b
 2435 006b 0B       		.uleb128 0xb
 2436 006c 01       		.uleb128 0x1
 2437 006d 13       		.uleb128 0x13
 2438 006e 00       		.byte	0
 2439 006f 00       		.byte	0
 2440 0070 09       		.uleb128 0x9
 2441 0071 0F       		.uleb128 0xf
 2442 0072 00       		.byte	0
 2443 0073 0B       		.uleb128 0xb
 2444 0074 0B       		.uleb128 0xb
 2445 0075 49       		.uleb128 0x49
 2446 0076 13       		.uleb128 0x13
 2447 0077 00       		.byte	0
 2448 0078 00       		.byte	0
 2449 0079 0A       		.uleb128 0xa
 2450 007a 0F       		.uleb128 0xf
 2451 007b 00       		.byte	0
 2452 007c 0B       		.uleb128 0xb
 2453 007d 0B       		.uleb128 0xb
 2454 007e 00       		.byte	0
 2455 007f 00       		.byte	0
 2456 0080 0B       		.uleb128 0xb
 2457 0081 13       		.uleb128 0x13
 2458 0082 01       		.byte	0x1
 2459 0083 03       		.uleb128 0x3
 2460 0084 0E       		.uleb128 0xe
 2461 0085 0B       		.uleb128 0xb
 2462 0086 0B       		.uleb128 0xb
 2463 0087 3A       		.uleb128 0x3a
 2464 0088 0B       		.uleb128 0xb
 2465 0089 3B       		.uleb128 0x3b
 2466 008a 05       		.uleb128 0x5
 2467 008b 01       		.uleb128 0x1
 2468 008c 13       		.uleb128 0x13
 2469 008d 00       		.byte	0
 2470 008e 00       		.byte	0
 2471 008f 0C       		.uleb128 0xc
 2472 0090 0D       		.uleb128 0xd
 2473 0091 00       		.byte	0
 2474 0092 03       		.uleb128 0x3
ARM GAS  /tmp/cc8oKFvA.s 			page 45


 2475 0093 08       		.uleb128 0x8
 2476 0094 3A       		.uleb128 0x3a
 2477 0095 0B       		.uleb128 0xb
 2478 0096 3B       		.uleb128 0x3b
 2479 0097 05       		.uleb128 0x5
 2480 0098 49       		.uleb128 0x49
 2481 0099 13       		.uleb128 0x13
 2482 009a 38       		.uleb128 0x38
 2483 009b 0B       		.uleb128 0xb
 2484 009c 00       		.byte	0
 2485 009d 00       		.byte	0
 2486 009e 0D       		.uleb128 0xd
 2487 009f 35       		.uleb128 0x35
 2488 00a0 00       		.byte	0
 2489 00a1 49       		.uleb128 0x49
 2490 00a2 13       		.uleb128 0x13
 2491 00a3 00       		.byte	0
 2492 00a4 00       		.byte	0
 2493 00a5 0E       		.uleb128 0xe
 2494 00a6 17       		.uleb128 0x17
 2495 00a7 01       		.byte	0x1
 2496 00a8 0B       		.uleb128 0xb
 2497 00a9 0B       		.uleb128 0xb
 2498 00aa 3A       		.uleb128 0x3a
 2499 00ab 0B       		.uleb128 0xb
 2500 00ac 3B       		.uleb128 0x3b
 2501 00ad 0B       		.uleb128 0xb
 2502 00ae 01       		.uleb128 0x1
 2503 00af 13       		.uleb128 0x13
 2504 00b0 00       		.byte	0
 2505 00b1 00       		.byte	0
 2506 00b2 0F       		.uleb128 0xf
 2507 00b3 0D       		.uleb128 0xd
 2508 00b4 00       		.byte	0
 2509 00b5 03       		.uleb128 0x3
 2510 00b6 0E       		.uleb128 0xe
 2511 00b7 3A       		.uleb128 0x3a
 2512 00b8 0B       		.uleb128 0xb
 2513 00b9 3B       		.uleb128 0x3b
 2514 00ba 0B       		.uleb128 0xb
 2515 00bb 49       		.uleb128 0x49
 2516 00bc 13       		.uleb128 0x13
 2517 00bd 00       		.byte	0
 2518 00be 00       		.byte	0
 2519 00bf 10       		.uleb128 0x10
 2520 00c0 26       		.uleb128 0x26
 2521 00c1 00       		.byte	0
 2522 00c2 49       		.uleb128 0x49
 2523 00c3 13       		.uleb128 0x13
 2524 00c4 00       		.byte	0
 2525 00c5 00       		.byte	0
 2526 00c6 11       		.uleb128 0x11
 2527 00c7 2E       		.uleb128 0x2e
 2528 00c8 01       		.byte	0x1
 2529 00c9 03       		.uleb128 0x3
 2530 00ca 0E       		.uleb128 0xe
 2531 00cb 3A       		.uleb128 0x3a
ARM GAS  /tmp/cc8oKFvA.s 			page 46


 2532 00cc 0B       		.uleb128 0xb
 2533 00cd 3B       		.uleb128 0x3b
 2534 00ce 0B       		.uleb128 0xb
 2535 00cf 27       		.uleb128 0x27
 2536 00d0 19       		.uleb128 0x19
 2537 00d1 49       		.uleb128 0x49
 2538 00d2 13       		.uleb128 0x13
 2539 00d3 20       		.uleb128 0x20
 2540 00d4 0B       		.uleb128 0xb
 2541 00d5 01       		.uleb128 0x1
 2542 00d6 13       		.uleb128 0x13
 2543 00d7 00       		.byte	0
 2544 00d8 00       		.byte	0
 2545 00d9 12       		.uleb128 0x12
 2546 00da 05       		.uleb128 0x5
 2547 00db 00       		.byte	0
 2548 00dc 03       		.uleb128 0x3
 2549 00dd 08       		.uleb128 0x8
 2550 00de 3A       		.uleb128 0x3a
 2551 00df 0B       		.uleb128 0xb
 2552 00e0 3B       		.uleb128 0x3b
 2553 00e1 0B       		.uleb128 0xb
 2554 00e2 49       		.uleb128 0x49
 2555 00e3 13       		.uleb128 0x13
 2556 00e4 00       		.byte	0
 2557 00e5 00       		.byte	0
 2558 00e6 13       		.uleb128 0x13
 2559 00e7 2E       		.uleb128 0x2e
 2560 00e8 01       		.byte	0x1
 2561 00e9 03       		.uleb128 0x3
 2562 00ea 0E       		.uleb128 0xe
 2563 00eb 3A       		.uleb128 0x3a
 2564 00ec 0B       		.uleb128 0xb
 2565 00ed 3B       		.uleb128 0x3b
 2566 00ee 0B       		.uleb128 0xb
 2567 00ef 27       		.uleb128 0x27
 2568 00f0 19       		.uleb128 0x19
 2569 00f1 20       		.uleb128 0x20
 2570 00f2 0B       		.uleb128 0xb
 2571 00f3 01       		.uleb128 0x1
 2572 00f4 13       		.uleb128 0x13
 2573 00f5 00       		.byte	0
 2574 00f6 00       		.byte	0
 2575 00f7 14       		.uleb128 0x14
 2576 00f8 34       		.uleb128 0x34
 2577 00f9 00       		.byte	0
 2578 00fa 03       		.uleb128 0x3
 2579 00fb 08       		.uleb128 0x8
 2580 00fc 3A       		.uleb128 0x3a
 2581 00fd 0B       		.uleb128 0xb
 2582 00fe 3B       		.uleb128 0x3b
 2583 00ff 0B       		.uleb128 0xb
 2584 0100 49       		.uleb128 0x49
 2585 0101 13       		.uleb128 0x13
 2586 0102 00       		.byte	0
 2587 0103 00       		.byte	0
 2588 0104 15       		.uleb128 0x15
ARM GAS  /tmp/cc8oKFvA.s 			page 47


 2589 0105 2E       		.uleb128 0x2e
 2590 0106 01       		.byte	0x1
 2591 0107 3F       		.uleb128 0x3f
 2592 0108 19       		.uleb128 0x19
 2593 0109 03       		.uleb128 0x3
 2594 010a 0E       		.uleb128 0xe
 2595 010b 3A       		.uleb128 0x3a
 2596 010c 0B       		.uleb128 0xb
 2597 010d 3B       		.uleb128 0x3b
 2598 010e 0B       		.uleb128 0xb
 2599 010f 27       		.uleb128 0x27
 2600 0110 19       		.uleb128 0x19
 2601 0111 49       		.uleb128 0x49
 2602 0112 13       		.uleb128 0x13
 2603 0113 20       		.uleb128 0x20
 2604 0114 0B       		.uleb128 0xb
 2605 0115 01       		.uleb128 0x1
 2606 0116 13       		.uleb128 0x13
 2607 0117 00       		.byte	0
 2608 0118 00       		.byte	0
 2609 0119 16       		.uleb128 0x16
 2610 011a 2E       		.uleb128 0x2e
 2611 011b 01       		.byte	0x1
 2612 011c 3F       		.uleb128 0x3f
 2613 011d 19       		.uleb128 0x19
 2614 011e 03       		.uleb128 0x3
 2615 011f 0E       		.uleb128 0xe
 2616 0120 3A       		.uleb128 0x3a
 2617 0121 0B       		.uleb128 0xb
 2618 0122 3B       		.uleb128 0x3b
 2619 0123 0B       		.uleb128 0xb
 2620 0124 27       		.uleb128 0x27
 2621 0125 19       		.uleb128 0x19
 2622 0126 11       		.uleb128 0x11
 2623 0127 01       		.uleb128 0x1
 2624 0128 12       		.uleb128 0x12
 2625 0129 06       		.uleb128 0x6
 2626 012a 40       		.uleb128 0x40
 2627 012b 18       		.uleb128 0x18
 2628 012c 9742     		.uleb128 0x2117
 2629 012e 19       		.uleb128 0x19
 2630 012f 01       		.uleb128 0x1
 2631 0130 13       		.uleb128 0x13
 2632 0131 00       		.byte	0
 2633 0132 00       		.byte	0
 2634 0133 17       		.uleb128 0x17
 2635 0134 05       		.uleb128 0x5
 2636 0135 00       		.byte	0
 2637 0136 03       		.uleb128 0x3
 2638 0137 08       		.uleb128 0x8
 2639 0138 3A       		.uleb128 0x3a
 2640 0139 0B       		.uleb128 0xb
 2641 013a 3B       		.uleb128 0x3b
 2642 013b 0B       		.uleb128 0xb
 2643 013c 49       		.uleb128 0x49
 2644 013d 13       		.uleb128 0x13
 2645 013e 02       		.uleb128 0x2
ARM GAS  /tmp/cc8oKFvA.s 			page 48


 2646 013f 17       		.uleb128 0x17
 2647 0140 00       		.byte	0
 2648 0141 00       		.byte	0
 2649 0142 18       		.uleb128 0x18
 2650 0143 898201   		.uleb128 0x4109
 2651 0146 01       		.byte	0x1
 2652 0147 11       		.uleb128 0x11
 2653 0148 01       		.uleb128 0x1
 2654 0149 31       		.uleb128 0x31
 2655 014a 13       		.uleb128 0x13
 2656 014b 00       		.byte	0
 2657 014c 00       		.byte	0
 2658 014d 19       		.uleb128 0x19
 2659 014e 8A8201   		.uleb128 0x410a
 2660 0151 00       		.byte	0
 2661 0152 02       		.uleb128 0x2
 2662 0153 18       		.uleb128 0x18
 2663 0154 9142     		.uleb128 0x2111
 2664 0156 18       		.uleb128 0x18
 2665 0157 00       		.byte	0
 2666 0158 00       		.byte	0
 2667 0159 1A       		.uleb128 0x1a
 2668 015a 34       		.uleb128 0x34
 2669 015b 00       		.byte	0
 2670 015c 03       		.uleb128 0x3
 2671 015d 08       		.uleb128 0x8
 2672 015e 3A       		.uleb128 0x3a
 2673 015f 0B       		.uleb128 0xb
 2674 0160 3B       		.uleb128 0x3b
 2675 0161 0B       		.uleb128 0xb
 2676 0162 49       		.uleb128 0x49
 2677 0163 13       		.uleb128 0x13
 2678 0164 02       		.uleb128 0x2
 2679 0165 17       		.uleb128 0x17
 2680 0166 00       		.byte	0
 2681 0167 00       		.byte	0
 2682 0168 1B       		.uleb128 0x1b
 2683 0169 0B       		.uleb128 0xb
 2684 016a 01       		.byte	0x1
 2685 016b 55       		.uleb128 0x55
 2686 016c 17       		.uleb128 0x17
 2687 016d 01       		.uleb128 0x1
 2688 016e 13       		.uleb128 0x13
 2689 016f 00       		.byte	0
 2690 0170 00       		.byte	0
 2691 0171 1C       		.uleb128 0x1c
 2692 0172 1D       		.uleb128 0x1d
 2693 0173 01       		.byte	0x1
 2694 0174 31       		.uleb128 0x31
 2695 0175 13       		.uleb128 0x13
 2696 0176 52       		.uleb128 0x52
 2697 0177 01       		.uleb128 0x1
 2698 0178 55       		.uleb128 0x55
 2699 0179 17       		.uleb128 0x17
 2700 017a 58       		.uleb128 0x58
 2701 017b 0B       		.uleb128 0xb
 2702 017c 59       		.uleb128 0x59
ARM GAS  /tmp/cc8oKFvA.s 			page 49


 2703 017d 0B       		.uleb128 0xb
 2704 017e 01       		.uleb128 0x1
 2705 017f 13       		.uleb128 0x13
 2706 0180 00       		.byte	0
 2707 0181 00       		.byte	0
 2708 0182 1D       		.uleb128 0x1d
 2709 0183 05       		.uleb128 0x5
 2710 0184 00       		.byte	0
 2711 0185 31       		.uleb128 0x31
 2712 0186 13       		.uleb128 0x13
 2713 0187 02       		.uleb128 0x2
 2714 0188 17       		.uleb128 0x17
 2715 0189 00       		.byte	0
 2716 018a 00       		.byte	0
 2717 018b 1E       		.uleb128 0x1e
 2718 018c 0B       		.uleb128 0xb
 2719 018d 01       		.byte	0x1
 2720 018e 55       		.uleb128 0x55
 2721 018f 17       		.uleb128 0x17
 2722 0190 00       		.byte	0
 2723 0191 00       		.byte	0
 2724 0192 1F       		.uleb128 0x1f
 2725 0193 34       		.uleb128 0x34
 2726 0194 00       		.byte	0
 2727 0195 31       		.uleb128 0x31
 2728 0196 13       		.uleb128 0x13
 2729 0197 02       		.uleb128 0x2
 2730 0198 17       		.uleb128 0x17
 2731 0199 00       		.byte	0
 2732 019a 00       		.byte	0
 2733 019b 20       		.uleb128 0x20
 2734 019c 1D       		.uleb128 0x1d
 2735 019d 01       		.byte	0x1
 2736 019e 31       		.uleb128 0x31
 2737 019f 13       		.uleb128 0x13
 2738 01a0 11       		.uleb128 0x11
 2739 01a1 01       		.uleb128 0x1
 2740 01a2 12       		.uleb128 0x12
 2741 01a3 06       		.uleb128 0x6
 2742 01a4 58       		.uleb128 0x58
 2743 01a5 0B       		.uleb128 0xb
 2744 01a6 59       		.uleb128 0x59
 2745 01a7 0B       		.uleb128 0xb
 2746 01a8 01       		.uleb128 0x1
 2747 01a9 13       		.uleb128 0x13
 2748 01aa 00       		.byte	0
 2749 01ab 00       		.byte	0
 2750 01ac 21       		.uleb128 0x21
 2751 01ad 0B       		.uleb128 0xb
 2752 01ae 01       		.byte	0x1
 2753 01af 11       		.uleb128 0x11
 2754 01b0 01       		.uleb128 0x1
 2755 01b1 12       		.uleb128 0x12
 2756 01b2 06       		.uleb128 0x6
 2757 01b3 00       		.byte	0
 2758 01b4 00       		.byte	0
 2759 01b5 22       		.uleb128 0x22
ARM GAS  /tmp/cc8oKFvA.s 			page 50


 2760 01b6 898201   		.uleb128 0x4109
 2761 01b9 01       		.byte	0x1
 2762 01ba 11       		.uleb128 0x11
 2763 01bb 01       		.uleb128 0x1
 2764 01bc 31       		.uleb128 0x31
 2765 01bd 13       		.uleb128 0x13
 2766 01be 01       		.uleb128 0x1
 2767 01bf 13       		.uleb128 0x13
 2768 01c0 00       		.byte	0
 2769 01c1 00       		.byte	0
 2770 01c2 23       		.uleb128 0x23
 2771 01c3 898201   		.uleb128 0x4109
 2772 01c6 01       		.byte	0x1
 2773 01c7 11       		.uleb128 0x11
 2774 01c8 01       		.uleb128 0x1
 2775 01c9 9542     		.uleb128 0x2115
 2776 01cb 19       		.uleb128 0x19
 2777 01cc 31       		.uleb128 0x31
 2778 01cd 13       		.uleb128 0x13
 2779 01ce 01       		.uleb128 0x1
 2780 01cf 13       		.uleb128 0x13
 2781 01d0 00       		.byte	0
 2782 01d1 00       		.byte	0
 2783 01d2 24       		.uleb128 0x24
 2784 01d3 898201   		.uleb128 0x4109
 2785 01d6 00       		.byte	0
 2786 01d7 11       		.uleb128 0x11
 2787 01d8 01       		.uleb128 0x1
 2788 01d9 31       		.uleb128 0x31
 2789 01da 13       		.uleb128 0x13
 2790 01db 00       		.byte	0
 2791 01dc 00       		.byte	0
 2792 01dd 25       		.uleb128 0x25
 2793 01de 34       		.uleb128 0x34
 2794 01df 00       		.byte	0
 2795 01e0 03       		.uleb128 0x3
 2796 01e1 08       		.uleb128 0x8
 2797 01e2 3A       		.uleb128 0x3a
 2798 01e3 0B       		.uleb128 0xb
 2799 01e4 3B       		.uleb128 0x3b
 2800 01e5 0B       		.uleb128 0xb
 2801 01e6 49       		.uleb128 0x49
 2802 01e7 13       		.uleb128 0x13
 2803 01e8 02       		.uleb128 0x2
 2804 01e9 18       		.uleb128 0x18
 2805 01ea 00       		.byte	0
 2806 01eb 00       		.byte	0
 2807 01ec 26       		.uleb128 0x26
 2808 01ed 0B       		.uleb128 0xb
 2809 01ee 01       		.byte	0x1
 2810 01ef 11       		.uleb128 0x11
 2811 01f0 01       		.uleb128 0x1
 2812 01f1 12       		.uleb128 0x12
 2813 01f2 06       		.uleb128 0x6
 2814 01f3 01       		.uleb128 0x1
 2815 01f4 13       		.uleb128 0x13
 2816 01f5 00       		.byte	0
ARM GAS  /tmp/cc8oKFvA.s 			page 51


 2817 01f6 00       		.byte	0
 2818 01f7 27       		.uleb128 0x27
 2819 01f8 2E       		.uleb128 0x2e
 2820 01f9 01       		.byte	0x1
 2821 01fa 31       		.uleb128 0x31
 2822 01fb 13       		.uleb128 0x13
 2823 01fc 11       		.uleb128 0x11
 2824 01fd 01       		.uleb128 0x1
 2825 01fe 12       		.uleb128 0x12
 2826 01ff 06       		.uleb128 0x6
 2827 0200 40       		.uleb128 0x40
 2828 0201 18       		.uleb128 0x18
 2829 0202 9742     		.uleb128 0x2117
 2830 0204 19       		.uleb128 0x19
 2831 0205 01       		.uleb128 0x1
 2832 0206 13       		.uleb128 0x13
 2833 0207 00       		.byte	0
 2834 0208 00       		.byte	0
 2835 0209 28       		.uleb128 0x28
 2836 020a 2E       		.uleb128 0x2e
 2837 020b 01       		.byte	0x1
 2838 020c 3F       		.uleb128 0x3f
 2839 020d 19       		.uleb128 0x19
 2840 020e 03       		.uleb128 0x3
 2841 020f 0E       		.uleb128 0xe
 2842 0210 3A       		.uleb128 0x3a
 2843 0211 0B       		.uleb128 0xb
 2844 0212 3B       		.uleb128 0x3b
 2845 0213 0B       		.uleb128 0xb
 2846 0214 27       		.uleb128 0x27
 2847 0215 19       		.uleb128 0x19
 2848 0216 49       		.uleb128 0x49
 2849 0217 13       		.uleb128 0x13
 2850 0218 11       		.uleb128 0x11
 2851 0219 01       		.uleb128 0x1
 2852 021a 12       		.uleb128 0x12
 2853 021b 06       		.uleb128 0x6
 2854 021c 40       		.uleb128 0x40
 2855 021d 18       		.uleb128 0x18
 2856 021e 9742     		.uleb128 0x2117
 2857 0220 19       		.uleb128 0x19
 2858 0221 01       		.uleb128 0x1
 2859 0222 13       		.uleb128 0x13
 2860 0223 00       		.byte	0
 2861 0224 00       		.byte	0
 2862 0225 29       		.uleb128 0x29
 2863 0226 2E       		.uleb128 0x2e
 2864 0227 01       		.byte	0x1
 2865 0228 3F       		.uleb128 0x3f
 2866 0229 19       		.uleb128 0x19
 2867 022a 03       		.uleb128 0x3
 2868 022b 0E       		.uleb128 0xe
 2869 022c 3A       		.uleb128 0x3a
 2870 022d 0B       		.uleb128 0xb
 2871 022e 3B       		.uleb128 0x3b
 2872 022f 05       		.uleb128 0x5
 2873 0230 27       		.uleb128 0x27
ARM GAS  /tmp/cc8oKFvA.s 			page 52


 2874 0231 19       		.uleb128 0x19
 2875 0232 49       		.uleb128 0x49
 2876 0233 13       		.uleb128 0x13
 2877 0234 11       		.uleb128 0x11
 2878 0235 01       		.uleb128 0x1
 2879 0236 12       		.uleb128 0x12
 2880 0237 06       		.uleb128 0x6
 2881 0238 40       		.uleb128 0x40
 2882 0239 18       		.uleb128 0x18
 2883 023a 9742     		.uleb128 0x2117
 2884 023c 19       		.uleb128 0x19
 2885 023d 01       		.uleb128 0x1
 2886 023e 13       		.uleb128 0x13
 2887 023f 00       		.byte	0
 2888 0240 00       		.byte	0
 2889 0241 2A       		.uleb128 0x2a
 2890 0242 34       		.uleb128 0x34
 2891 0243 00       		.byte	0
 2892 0244 03       		.uleb128 0x3
 2893 0245 08       		.uleb128 0x8
 2894 0246 3A       		.uleb128 0x3a
 2895 0247 0B       		.uleb128 0xb
 2896 0248 3B       		.uleb128 0x3b
 2897 0249 05       		.uleb128 0x5
 2898 024a 49       		.uleb128 0x49
 2899 024b 13       		.uleb128 0x13
 2900 024c 02       		.uleb128 0x2
 2901 024d 18       		.uleb128 0x18
 2902 024e 00       		.byte	0
 2903 024f 00       		.byte	0
 2904 0250 2B       		.uleb128 0x2b
 2905 0251 34       		.uleb128 0x34
 2906 0252 00       		.byte	0
 2907 0253 03       		.uleb128 0x3
 2908 0254 08       		.uleb128 0x8
 2909 0255 3A       		.uleb128 0x3a
 2910 0256 0B       		.uleb128 0xb
 2911 0257 3B       		.uleb128 0x3b
 2912 0258 05       		.uleb128 0x5
 2913 0259 49       		.uleb128 0x49
 2914 025a 13       		.uleb128 0x13
 2915 025b 02       		.uleb128 0x2
 2916 025c 17       		.uleb128 0x17
 2917 025d 00       		.byte	0
 2918 025e 00       		.byte	0
 2919 025f 2C       		.uleb128 0x2c
 2920 0260 34       		.uleb128 0x34
 2921 0261 00       		.byte	0
 2922 0262 03       		.uleb128 0x3
 2923 0263 08       		.uleb128 0x8
 2924 0264 3A       		.uleb128 0x3a
 2925 0265 0B       		.uleb128 0xb
 2926 0266 3B       		.uleb128 0x3b
 2927 0267 05       		.uleb128 0x5
 2928 0268 49       		.uleb128 0x49
 2929 0269 13       		.uleb128 0x13
 2930 026a 00       		.byte	0
ARM GAS  /tmp/cc8oKFvA.s 			page 53


 2931 026b 00       		.byte	0
 2932 026c 2D       		.uleb128 0x2d
 2933 026d 34       		.uleb128 0x34
 2934 026e 00       		.byte	0
 2935 026f 03       		.uleb128 0x3
 2936 0270 0E       		.uleb128 0xe
 2937 0271 3A       		.uleb128 0x3a
 2938 0272 0B       		.uleb128 0xb
 2939 0273 3B       		.uleb128 0x3b
 2940 0274 05       		.uleb128 0x5
 2941 0275 49       		.uleb128 0x49
 2942 0276 13       		.uleb128 0x13
 2943 0277 02       		.uleb128 0x2
 2944 0278 17       		.uleb128 0x17
 2945 0279 00       		.byte	0
 2946 027a 00       		.byte	0
 2947 027b 2E       		.uleb128 0x2e
 2948 027c 1D       		.uleb128 0x1d
 2949 027d 01       		.byte	0x1
 2950 027e 31       		.uleb128 0x31
 2951 027f 13       		.uleb128 0x13
 2952 0280 52       		.uleb128 0x52
 2953 0281 01       		.uleb128 0x1
 2954 0282 55       		.uleb128 0x55
 2955 0283 17       		.uleb128 0x17
 2956 0284 58       		.uleb128 0x58
 2957 0285 0B       		.uleb128 0xb
 2958 0286 59       		.uleb128 0x59
 2959 0287 05       		.uleb128 0x5
 2960 0288 01       		.uleb128 0x1
 2961 0289 13       		.uleb128 0x13
 2962 028a 00       		.byte	0
 2963 028b 00       		.byte	0
 2964 028c 2F       		.uleb128 0x2f
 2965 028d 2E       		.uleb128 0x2e
 2966 028e 01       		.byte	0x1
 2967 028f 3F       		.uleb128 0x3f
 2968 0290 19       		.uleb128 0x19
 2969 0291 03       		.uleb128 0x3
 2970 0292 0E       		.uleb128 0xe
 2971 0293 3A       		.uleb128 0x3a
 2972 0294 0B       		.uleb128 0xb
 2973 0295 3B       		.uleb128 0x3b
 2974 0296 05       		.uleb128 0x5
 2975 0297 27       		.uleb128 0x27
 2976 0298 19       		.uleb128 0x19
 2977 0299 11       		.uleb128 0x11
 2978 029a 01       		.uleb128 0x1
 2979 029b 12       		.uleb128 0x12
 2980 029c 06       		.uleb128 0x6
 2981 029d 40       		.uleb128 0x40
 2982 029e 18       		.uleb128 0x18
 2983 029f 9742     		.uleb128 0x2117
 2984 02a1 19       		.uleb128 0x19
 2985 02a2 01       		.uleb128 0x1
 2986 02a3 13       		.uleb128 0x13
 2987 02a4 00       		.byte	0
ARM GAS  /tmp/cc8oKFvA.s 			page 54


 2988 02a5 00       		.byte	0
 2989 02a6 30       		.uleb128 0x30
 2990 02a7 34       		.uleb128 0x34
 2991 02a8 00       		.byte	0
 2992 02a9 03       		.uleb128 0x3
 2993 02aa 0E       		.uleb128 0xe
 2994 02ab 3A       		.uleb128 0x3a
 2995 02ac 0B       		.uleb128 0xb
 2996 02ad 3B       		.uleb128 0x3b
 2997 02ae 0B       		.uleb128 0xb
 2998 02af 49       		.uleb128 0x49
 2999 02b0 13       		.uleb128 0x13
 3000 02b1 3F       		.uleb128 0x3f
 3001 02b2 19       		.uleb128 0x19
 3002 02b3 3C       		.uleb128 0x3c
 3003 02b4 19       		.uleb128 0x19
 3004 02b5 00       		.byte	0
 3005 02b6 00       		.byte	0
 3006 02b7 31       		.uleb128 0x31
 3007 02b8 2E       		.uleb128 0x2e
 3008 02b9 01       		.byte	0x1
 3009 02ba 3F       		.uleb128 0x3f
 3010 02bb 19       		.uleb128 0x19
 3011 02bc 03       		.uleb128 0x3
 3012 02bd 0E       		.uleb128 0xe
 3013 02be 3A       		.uleb128 0x3a
 3014 02bf 0B       		.uleb128 0xb
 3015 02c0 3B       		.uleb128 0x3b
 3016 02c1 0B       		.uleb128 0xb
 3017 02c2 27       		.uleb128 0x27
 3018 02c3 19       		.uleb128 0x19
 3019 02c4 3C       		.uleb128 0x3c
 3020 02c5 19       		.uleb128 0x19
 3021 02c6 01       		.uleb128 0x1
 3022 02c7 13       		.uleb128 0x13
 3023 02c8 00       		.byte	0
 3024 02c9 00       		.byte	0
 3025 02ca 32       		.uleb128 0x32
 3026 02cb 05       		.uleb128 0x5
 3027 02cc 00       		.byte	0
 3028 02cd 49       		.uleb128 0x49
 3029 02ce 13       		.uleb128 0x13
 3030 02cf 00       		.byte	0
 3031 02d0 00       		.byte	0
 3032 02d1 33       		.uleb128 0x33
 3033 02d2 2E       		.uleb128 0x2e
 3034 02d3 01       		.byte	0x1
 3035 02d4 3F       		.uleb128 0x3f
 3036 02d5 19       		.uleb128 0x19
 3037 02d6 03       		.uleb128 0x3
 3038 02d7 0E       		.uleb128 0xe
 3039 02d8 3A       		.uleb128 0x3a
 3040 02d9 0B       		.uleb128 0xb
 3041 02da 3B       		.uleb128 0x3b
 3042 02db 0B       		.uleb128 0xb
 3043 02dc 27       		.uleb128 0x27
 3044 02dd 19       		.uleb128 0x19
ARM GAS  /tmp/cc8oKFvA.s 			page 55


 3045 02de 49       		.uleb128 0x49
 3046 02df 13       		.uleb128 0x13
 3047 02e0 3C       		.uleb128 0x3c
 3048 02e1 19       		.uleb128 0x19
 3049 02e2 01       		.uleb128 0x1
 3050 02e3 13       		.uleb128 0x13
 3051 02e4 00       		.byte	0
 3052 02e5 00       		.byte	0
 3053 02e6 34       		.uleb128 0x34
 3054 02e7 2E       		.uleb128 0x2e
 3055 02e8 00       		.byte	0
 3056 02e9 3F       		.uleb128 0x3f
 3057 02ea 19       		.uleb128 0x19
 3058 02eb 03       		.uleb128 0x3
 3059 02ec 0E       		.uleb128 0xe
 3060 02ed 3A       		.uleb128 0x3a
 3061 02ee 0B       		.uleb128 0xb
 3062 02ef 3B       		.uleb128 0x3b
 3063 02f0 0B       		.uleb128 0xb
 3064 02f1 27       		.uleb128 0x27
 3065 02f2 19       		.uleb128 0x19
 3066 02f3 3C       		.uleb128 0x3c
 3067 02f4 19       		.uleb128 0x19
 3068 02f5 00       		.byte	0
 3069 02f6 00       		.byte	0
 3070 02f7 00       		.byte	0
 3071              		.section	.debug_loc,"",%progbits
 3072              	.Ldebug_loc0:
 3073              	.LLST0:
 3074 0000 00000000 		.4byte	.LVL0
 3075 0004 06000000 		.4byte	.LVL1
 3076 0008 0100     		.2byte	0x1
 3077 000a 50       		.byte	0x50
 3078 000b 06000000 		.4byte	.LVL1
 3079 000f 10000000 		.4byte	.LVL2
 3080 0013 0100     		.2byte	0x1
 3081 0015 54       		.byte	0x54
 3082 0016 10000000 		.4byte	.LVL2
 3083 001a 12000000 		.4byte	.LVL3
 3084 001e 0100     		.2byte	0x1
 3085 0020 50       		.byte	0x50
 3086 0021 12000000 		.4byte	.LVL3
 3087 0025 1C000000 		.4byte	.LFE7
 3088 0029 0100     		.2byte	0x1
 3089 002b 54       		.byte	0x54
 3090 002c 00000000 		.4byte	0
 3091 0030 00000000 		.4byte	0
 3092              	.LLST1:
 3093 0034 00000000 		.4byte	.LVL5
 3094 0038 0B000000 		.4byte	.LVL7-1
 3095 003c 0100     		.2byte	0x1
 3096 003e 50       		.byte	0x50
 3097 003f 0B000000 		.4byte	.LVL7-1
 3098 0043 6A000000 		.4byte	.LVL14
 3099 0047 0100     		.2byte	0x1
 3100 0049 55       		.byte	0x55
 3101 004a 6A000000 		.4byte	.LVL14
ARM GAS  /tmp/cc8oKFvA.s 			page 56


 3102 004e 6E000000 		.4byte	.LVL15
 3103 0052 0400     		.2byte	0x4
 3104 0054 F3       		.byte	0xf3
 3105 0055 01       		.uleb128 0x1
 3106 0056 50       		.byte	0x50
 3107 0057 9F       		.byte	0x9f
 3108 0058 6E000000 		.4byte	.LVL15
 3109 005c 00010000 		.4byte	.LFE9
 3110 0060 0100     		.2byte	0x1
 3111 0062 55       		.byte	0x55
 3112 0063 00000000 		.4byte	0
 3113 0067 00000000 		.4byte	0
 3114              	.LLST2:
 3115 006b 08000000 		.4byte	.LVL6
 3116 006f 6A000000 		.4byte	.LVL14
 3117 0073 0100     		.2byte	0x1
 3118 0075 54       		.byte	0x54
 3119 0076 6E000000 		.4byte	.LVL15
 3120 007a 00010000 		.4byte	.LFE9
 3121 007e 0100     		.2byte	0x1
 3122 0080 54       		.byte	0x54
 3123 0081 00000000 		.4byte	0
 3124 0085 00000000 		.4byte	0
 3125              	.LLST3:
 3126 0089 16000000 		.4byte	.LVL8
 3127 008d 2E000000 		.4byte	.LVL9
 3128 0091 0100     		.2byte	0x1
 3129 0093 50       		.byte	0x50
 3130 0094 6E000000 		.4byte	.LVL15
 3131 0098 81000000 		.4byte	.LVL17-1
 3132 009c 0100     		.2byte	0x1
 3133 009e 50       		.byte	0x50
 3134 009f 8E000000 		.4byte	.LVL18
 3135 00a3 E8000000 		.4byte	.LVL28
 3136 00a7 0100     		.2byte	0x1
 3137 00a9 50       		.byte	0x50
 3138 00aa 00000000 		.4byte	0
 3139 00ae 00000000 		.4byte	0
 3140              	.LLST4:
 3141 00b2 2E000000 		.4byte	.LVL9
 3142 00b6 6A000000 		.4byte	.LVL14
 3143 00ba 0100     		.2byte	0x1
 3144 00bc 55       		.byte	0x55
 3145 00bd 6A000000 		.4byte	.LVL14
 3146 00c1 6E000000 		.4byte	.LVL15
 3147 00c5 0400     		.2byte	0x4
 3148 00c7 F3       		.byte	0xf3
 3149 00c8 01       		.uleb128 0x1
 3150 00c9 50       		.byte	0x50
 3151 00ca 9F       		.byte	0x9f
 3152 00cb 00000000 		.4byte	0
 3153 00cf 00000000 		.4byte	0
 3154              	.LLST5:
 3155 00d3 2E000000 		.4byte	.LVL9
 3156 00d7 6A000000 		.4byte	.LVL14
 3157 00db 0100     		.2byte	0x1
 3158 00dd 54       		.byte	0x54
ARM GAS  /tmp/cc8oKFvA.s 			page 57


 3159 00de 00000000 		.4byte	0
 3160 00e2 00000000 		.4byte	0
 3161              	.LLST6:
 3162 00e6 2E000000 		.4byte	.LVL9
 3163 00ea 32000000 		.4byte	.LVL10
 3164 00ee 0100     		.2byte	0x1
 3165 00f0 55       		.byte	0x55
 3166 00f1 32000000 		.4byte	.LVL10
 3167 00f5 51000000 		.4byte	.LVL12-1
 3168 00f9 0100     		.2byte	0x1
 3169 00fb 53       		.byte	0x53
 3170 00fc 00000000 		.4byte	0
 3171 0100 00000000 		.4byte	0
 3172              	.LLST7:
 3173 0104 78000000 		.4byte	.LVL16
 3174 0108 81000000 		.4byte	.LVL17-1
 3175 010c 0100     		.2byte	0x1
 3176 010e 50       		.byte	0x50
 3177 010f 00000000 		.4byte	0
 3178 0113 00000000 		.4byte	0
 3179              	.LLST8:
 3180 0117 8E000000 		.4byte	.LVL18
 3181 011b B6000000 		.4byte	.LVL22
 3182 011f 0100     		.2byte	0x1
 3183 0121 50       		.byte	0x50
 3184 0122 00000000 		.4byte	0
 3185 0126 00000000 		.4byte	0
 3186              	.LLST9:
 3187 012a 96000000 		.4byte	.LVL19
 3188 012e B6000000 		.4byte	.LVL22
 3189 0132 0100     		.2byte	0x1
 3190 0134 56       		.byte	0x56
 3191 0135 00000000 		.4byte	0
 3192 0139 00000000 		.4byte	0
 3193              	.LLST10:
 3194 013d 96000000 		.4byte	.LVL19
 3195 0141 B6000000 		.4byte	.LVL22
 3196 0145 0100     		.2byte	0x1
 3197 0147 50       		.byte	0x50
 3198 0148 00000000 		.4byte	0
 3199 014c 00000000 		.4byte	0
 3200              	.LLST11:
 3201 0150 96000000 		.4byte	.LVL19
 3202 0154 9E000000 		.4byte	.LVL20
 3203 0158 0100     		.2byte	0x1
 3204 015a 56       		.byte	0x56
 3205 015b 9E000000 		.4byte	.LVL20
 3206 015f B6000000 		.4byte	.LVL22
 3207 0163 0100     		.2byte	0x1
 3208 0165 53       		.byte	0x53
 3209 0166 00000000 		.4byte	0
 3210 016a 00000000 		.4byte	0
 3211              	.LLST12:
 3212 016e B6000000 		.4byte	.LVL22
 3213 0172 DE000000 		.4byte	.LVL26
 3214 0176 0100     		.2byte	0x1
 3215 0178 50       		.byte	0x50
ARM GAS  /tmp/cc8oKFvA.s 			page 58


 3216 0179 DE000000 		.4byte	.LVL26
 3217 017d E2000000 		.4byte	.LVL27
 3218 0181 0200     		.2byte	0x2
 3219 0183 73       		.byte	0x73
 3220 0184 04       		.sleb128 4
 3221 0185 00000000 		.4byte	0
 3222 0189 00000000 		.4byte	0
 3223              	.LLST13:
 3224 018d BE000000 		.4byte	.LVL23
 3225 0191 E8000000 		.4byte	.LVL28
 3226 0195 0100     		.2byte	0x1
 3227 0197 56       		.byte	0x56
 3228 0198 00000000 		.4byte	0
 3229 019c 00000000 		.4byte	0
 3230              	.LLST14:
 3231 01a0 BE000000 		.4byte	.LVL23
 3232 01a4 DE000000 		.4byte	.LVL26
 3233 01a8 0100     		.2byte	0x1
 3234 01aa 50       		.byte	0x50
 3235 01ab DE000000 		.4byte	.LVL26
 3236 01af E2000000 		.4byte	.LVL27
 3237 01b3 0200     		.2byte	0x2
 3238 01b5 73       		.byte	0x73
 3239 01b6 04       		.sleb128 4
 3240 01b7 00000000 		.4byte	0
 3241 01bb 00000000 		.4byte	0
 3242              	.LLST15:
 3243 01bf BE000000 		.4byte	.LVL23
 3244 01c3 C6000000 		.4byte	.LVL24
 3245 01c7 0100     		.2byte	0x1
 3246 01c9 56       		.byte	0x56
 3247 01ca C6000000 		.4byte	.LVL24
 3248 01ce E2000000 		.4byte	.LVL27
 3249 01d2 0100     		.2byte	0x1
 3250 01d4 53       		.byte	0x53
 3251 01d5 00000000 		.4byte	0
 3252 01d9 00000000 		.4byte	0
 3253              	.LLST16:
 3254 01dd 00000000 		.4byte	.LVL30
 3255 01e1 0D000000 		.4byte	.LVL31-1
 3256 01e5 0100     		.2byte	0x1
 3257 01e7 50       		.byte	0x50
 3258 01e8 0D000000 		.4byte	.LVL31-1
 3259 01ec 20000000 		.4byte	.LFE8
 3260 01f0 0100     		.2byte	0x1
 3261 01f2 54       		.byte	0x54
 3262 01f3 00000000 		.4byte	0
 3263 01f7 00000000 		.4byte	0
 3264              	.LLST17:
 3265 01fb 00000000 		.4byte	.LVL34
 3266 01ff 07000000 		.4byte	.LVL35-1
 3267 0203 0100     		.2byte	0x1
 3268 0205 50       		.byte	0x50
 3269 0206 07000000 		.4byte	.LVL35-1
 3270 020a 34000000 		.4byte	.LFE11
 3271 020e 0100     		.2byte	0x1
 3272 0210 54       		.byte	0x54
ARM GAS  /tmp/cc8oKFvA.s 			page 59


 3273 0211 00000000 		.4byte	0
 3274 0215 00000000 		.4byte	0
 3275              	.LLST18:
 3276 0219 12000000 		.4byte	.LVL36
 3277 021d 22000000 		.4byte	.LVL37
 3278 0221 0100     		.2byte	0x1
 3279 0223 54       		.byte	0x54
 3280 0224 00000000 		.4byte	0
 3281 0228 00000000 		.4byte	0
 3282              	.LLST19:
 3283 022c 00000000 		.4byte	.LVL39
 3284 0230 0D000000 		.4byte	.LVL40-1
 3285 0234 0100     		.2byte	0x1
 3286 0236 50       		.byte	0x50
 3287 0237 0D000000 		.4byte	.LVL40-1
 3288 023b 16000000 		.4byte	.LVL42
 3289 023f 0100     		.2byte	0x1
 3290 0241 54       		.byte	0x54
 3291 0242 16000000 		.4byte	.LVL42
 3292 0246 24000000 		.4byte	.LFE10
 3293 024a 0400     		.2byte	0x4
 3294 024c F3       		.byte	0xf3
 3295 024d 01       		.uleb128 0x1
 3296 024e 50       		.byte	0x50
 3297 024f 9F       		.byte	0x9f
 3298 0250 00000000 		.4byte	0
 3299 0254 00000000 		.4byte	0
 3300              	.LLST20:
 3301 0258 24000000 		.4byte	.LVL47
 3302 025c 72000000 		.4byte	.LVL57
 3303 0260 0100     		.2byte	0x1
 3304 0262 54       		.byte	0x54
 3305 0263 00000000 		.4byte	0
 3306 0267 00000000 		.4byte	0
 3307              	.LLST21:
 3308 026b 30000000 		.4byte	.LVL48
 3309 026f 48000000 		.4byte	.LVL51
 3310 0273 0100     		.2byte	0x1
 3311 0275 53       		.byte	0x53
 3312 0276 00000000 		.4byte	0
 3313 027a 00000000 		.4byte	0
 3314              	.LLST22:
 3315 027e 30000000 		.4byte	.LVL48
 3316 0282 52000000 		.4byte	.LVL53
 3317 0286 0100     		.2byte	0x1
 3318 0288 51       		.byte	0x51
 3319 0289 52000000 		.4byte	.LVL53
 3320 028d 5D000000 		.4byte	.LVL54-1
 3321 0291 0200     		.2byte	0x2
 3322 0293 75       		.byte	0x75
 3323 0294 08       		.sleb128 8
 3324 0295 00000000 		.4byte	0
 3325 0299 00000000 		.4byte	0
 3326              	.LLST23:
 3327 029d 4C000000 		.4byte	.LVL52
 3328 02a1 5E000000 		.4byte	.LVL54
 3329 02a5 0100     		.2byte	0x1
ARM GAS  /tmp/cc8oKFvA.s 			page 60


 3330 02a7 54       		.byte	0x54
 3331 02a8 00000000 		.4byte	0
 3332 02ac 00000000 		.4byte	0
 3333              	.LLST24:
 3334 02b0 4C000000 		.4byte	.LVL52
 3335 02b4 5E000000 		.4byte	.LVL54
 3336 02b8 0100     		.2byte	0x1
 3337 02ba 56       		.byte	0x56
 3338 02bb 00000000 		.4byte	0
 3339 02bf 00000000 		.4byte	0
 3340              	.LLST25:
 3341 02c3 1C000000 		.4byte	.LVL62
 3342 02c7 60000000 		.4byte	.LVL70
 3343 02cb 0100     		.2byte	0x1
 3344 02cd 54       		.byte	0x54
 3345 02ce 00000000 		.4byte	0
 3346 02d2 00000000 		.4byte	0
 3347              	.LLST26:
 3348 02d6 28000000 		.4byte	.LVL63
 3349 02da 40000000 		.4byte	.LVL66
 3350 02de 0100     		.2byte	0x1
 3351 02e0 53       		.byte	0x53
 3352 02e1 00000000 		.4byte	0
 3353 02e5 00000000 		.4byte	0
 3354              	.LLST27:
 3355 02e9 28000000 		.4byte	.LVL63
 3356 02ed 53000000 		.4byte	.LVL68-1
 3357 02f1 0100     		.2byte	0x1
 3358 02f3 51       		.byte	0x51
 3359 02f4 00000000 		.4byte	0
 3360 02f8 00000000 		.4byte	0
 3361              	.LLST28:
 3362 02fc 44000000 		.4byte	.LVL67
 3363 0300 58000000 		.4byte	.LVL69
 3364 0304 0100     		.2byte	0x1
 3365 0306 54       		.byte	0x54
 3366 0307 00000000 		.4byte	0
 3367 030b 00000000 		.4byte	0
 3368              	.LLST29:
 3369 030f 44000000 		.4byte	.LVL67
 3370 0313 58000000 		.4byte	.LVL69
 3371 0317 0100     		.2byte	0x1
 3372 0319 56       		.byte	0x56
 3373 031a 00000000 		.4byte	0
 3374 031e 00000000 		.4byte	0
 3375              	.LLST30:
 3376 0322 08000000 		.4byte	.LVL72
 3377 0326 56000000 		.4byte	.LVL82
 3378 032a 0100     		.2byte	0x1
 3379 032c 54       		.byte	0x54
 3380 032d 00000000 		.4byte	0
 3381 0331 00000000 		.4byte	0
 3382              	.LLST31:
 3383 0335 18000000 		.4byte	.LVL74
 3384 0339 29000000 		.4byte	.LVL75-1
 3385 033d 0100     		.2byte	0x1
 3386 033f 53       		.byte	0x53
ARM GAS  /tmp/cc8oKFvA.s 			page 61


 3387 0340 2E000000 		.4byte	.LVL76
 3388 0344 3E000000 		.4byte	.LVL78
 3389 0348 0100     		.2byte	0x1
 3390 034a 53       		.byte	0x53
 3391 034b 00000000 		.4byte	0
 3392 034f 00000000 		.4byte	0
 3393              	.LLST33:
 3394 0353 18000000 		.4byte	.LVL74
 3395 0357 29000000 		.4byte	.LVL75-1
 3396 035b 0100     		.2byte	0x1
 3397 035d 50       		.byte	0x50
 3398 035e 30000000 		.4byte	.LVL77
 3399 0362 42000000 		.4byte	.LVL79
 3400 0366 0100     		.2byte	0x1
 3401 0368 52       		.byte	0x52
 3402 0369 00000000 		.4byte	0
 3403 036d 00000000 		.4byte	0
 3404              		.section	.debug_aranges,"",%progbits
 3405 0000 54000000 		.4byte	0x54
 3406 0004 0200     		.2byte	0x2
 3407 0006 00000000 		.4byte	.Ldebug_info0
 3408 000a 04       		.byte	0x4
 3409 000b 00       		.byte	0
 3410 000c 0000     		.2byte	0
 3411 000e 0000     		.2byte	0
 3412 0010 00000000 		.4byte	.LFB7
 3413 0014 1C000000 		.4byte	.LFE7-.LFB7
 3414 0018 00000000 		.4byte	.LFB9
 3415 001c 00010000 		.4byte	.LFE9-.LFB9
 3416 0020 00000000 		.4byte	.LFB8
 3417 0024 20000000 		.4byte	.LFE8-.LFB8
 3418 0028 00000000 		.4byte	.LFB11
 3419 002c 34000000 		.4byte	.LFE11-.LFB11
 3420 0030 00000000 		.4byte	.LFB10
 3421 0034 24000000 		.4byte	.LFE10-.LFB10
 3422 0038 00000000 		.4byte	.LFB12
 3423 003c 88000000 		.4byte	.LFE12-.LFB12
 3424 0040 00000000 		.4byte	.LFB13
 3425 0044 78000000 		.4byte	.LFE13-.LFB13
 3426 0048 00000000 		.4byte	.LFB14
 3427 004c 5C000000 		.4byte	.LFE14-.LFB14
 3428 0050 00000000 		.4byte	0
 3429 0054 00000000 		.4byte	0
 3430              		.section	.debug_ranges,"",%progbits
 3431              	.Ldebug_ranges0:
 3432 0000 16000000 		.4byte	.LBB29
 3433 0004 66000000 		.4byte	.LBE29
 3434 0008 6A000000 		.4byte	.LBB50
 3435 000c 84000000 		.4byte	.LBE50
 3436 0010 8E000000 		.4byte	.LBB51
 3437 0014 E8000000 		.4byte	.LBE51
 3438 0018 00000000 		.4byte	0
 3439 001c 00000000 		.4byte	0
 3440 0020 2E000000 		.4byte	.LBB30
 3441 0024 46000000 		.4byte	.LBE30
 3442 0028 48000000 		.4byte	.LBB33
 3443 002c 4C000000 		.4byte	.LBE33
ARM GAS  /tmp/cc8oKFvA.s 			page 62


 3444 0030 00000000 		.4byte	0
 3445 0034 00000000 		.4byte	0
 3446 0038 6E000000 		.4byte	.LBB34
 3447 003c 72000000 		.4byte	.LBE34
 3448 0040 78000000 		.4byte	.LBB37
 3449 0044 7E000000 		.4byte	.LBE37
 3450 0048 00000000 		.4byte	0
 3451 004c 00000000 		.4byte	0
 3452 0050 8E000000 		.4byte	.LBB38
 3453 0054 94000000 		.4byte	.LBE38
 3454 0058 96000000 		.4byte	.LBB41
 3455 005c 9A000000 		.4byte	.LBE41
 3456 0060 00000000 		.4byte	0
 3457 0064 00000000 		.4byte	0
 3458 0068 B6000000 		.4byte	.LBB44
 3459 006c BC000000 		.4byte	.LBE44
 3460 0070 BE000000 		.4byte	.LBB47
 3461 0074 C2000000 		.4byte	.LBE47
 3462 0078 00000000 		.4byte	0
 3463 007c 00000000 		.4byte	0
 3464 0080 02000000 		.4byte	.LBB52
 3465 0084 04000000 		.4byte	.LBE52
 3466 0088 06000000 		.4byte	.LBB53
 3467 008c 0A000000 		.4byte	.LBE53
 3468 0090 00000000 		.4byte	0
 3469 0094 00000000 		.4byte	0
 3470 0098 02000000 		.4byte	.LBB59
 3471 009c 04000000 		.4byte	.LBE59
 3472 00a0 06000000 		.4byte	.LBB60
 3473 00a4 0A000000 		.4byte	.LBE60
 3474 00a8 00000000 		.4byte	0
 3475 00ac 00000000 		.4byte	0
 3476 00b0 04000000 		.4byte	.LBB62
 3477 00b4 06000000 		.4byte	.LBE62
 3478 00b8 08000000 		.4byte	.LBB63
 3479 00bc 0C000000 		.4byte	.LBE63
 3480 00c0 00000000 		.4byte	0
 3481 00c4 00000000 		.4byte	0
 3482 00c8 46000000 		.4byte	.LBB65
 3483 00cc 48000000 		.4byte	.LBE65
 3484 00d0 4E000000 		.4byte	.LBB69
 3485 00d4 50000000 		.4byte	.LBE69
 3486 00d8 52000000 		.4byte	.LBB70
 3487 00dc 54000000 		.4byte	.LBE70
 3488 00e0 00000000 		.4byte	0
 3489 00e4 00000000 		.4byte	0
 3490 00e8 3E000000 		.4byte	.LBB73
 3491 00ec 40000000 		.4byte	.LBE73
 3492 00f0 46000000 		.4byte	.LBB76
 3493 00f4 4A000000 		.4byte	.LBE76
 3494 00f8 00000000 		.4byte	0
 3495 00fc 00000000 		.4byte	0
 3496 0100 04000000 		.4byte	.LBB77
 3497 0104 06000000 		.4byte	.LBE77
 3498 0108 08000000 		.4byte	.LBB78
 3499 010c 0C000000 		.4byte	.LBE78
 3500 0110 00000000 		.4byte	0
ARM GAS  /tmp/cc8oKFvA.s 			page 63


 3501 0114 00000000 		.4byte	0
 3502 0118 14000000 		.4byte	.LBB79
 3503 011c 2A000000 		.4byte	.LBE79
 3504 0120 2E000000 		.4byte	.LBB86
 3505 0124 3C000000 		.4byte	.LBE86
 3506 0128 00000000 		.4byte	0
 3507 012c 00000000 		.4byte	0
 3508 0130 18000000 		.4byte	.LBB80
 3509 0134 2A000000 		.4byte	.LBE80
 3510 0138 36000000 		.4byte	.LBB85
 3511 013c 38000000 		.4byte	.LBE85
 3512 0140 00000000 		.4byte	0
 3513 0144 00000000 		.4byte	0
 3514 0148 18000000 		.4byte	.LBB81
 3515 014c 1A000000 		.4byte	.LBE81
 3516 0150 1C000000 		.4byte	.LBB84
 3517 0154 20000000 		.4byte	.LBE84
 3518 0158 00000000 		.4byte	0
 3519 015c 00000000 		.4byte	0
 3520 0160 00000000 		.4byte	.LFB7
 3521 0164 1C000000 		.4byte	.LFE7
 3522 0168 00000000 		.4byte	.LFB9
 3523 016c 00010000 		.4byte	.LFE9
 3524 0170 00000000 		.4byte	.LFB8
 3525 0174 20000000 		.4byte	.LFE8
 3526 0178 00000000 		.4byte	.LFB11
 3527 017c 34000000 		.4byte	.LFE11
 3528 0180 00000000 		.4byte	.LFB10
 3529 0184 24000000 		.4byte	.LFE10
 3530 0188 00000000 		.4byte	.LFB12
 3531 018c 88000000 		.4byte	.LFE12
 3532 0190 00000000 		.4byte	.LFB13
 3533 0194 78000000 		.4byte	.LFE13
 3534 0198 00000000 		.4byte	.LFB14
 3535 019c 5C000000 		.4byte	.LFE14
 3536 01a0 00000000 		.4byte	0
 3537 01a4 00000000 		.4byte	0
 3538              		.section	.debug_line,"",%progbits
 3539              	.Ldebug_line0:
 3540 0000 71030000 		.section	.debug_str,"MS",%progbits,1
 3540      02004E01 
 3540      00000201 
 3540      FB0E0D00 
 3540      01010101 
 3541              	.LASF43:
 3542 0000 705F6D73 		.ascii	"p_msg\000"
 3542      6700
 3543              	.LASF81:
 3544 0006 63684462 		.ascii	"chDbgPanic\000"
 3544      6750616E 
 3544      696300
 3545              	.LASF66:
 3546 0011 7264796D 		.ascii	"rdymsg\000"
 3546      736700
 3547              	.LASF16:
 3548 0018 75696E74 		.ascii	"uint64_t\000"
 3548      36345F74 
ARM GAS  /tmp/cc8oKFvA.s 			page 64


 3548      00
 3549              	.LASF5:
 3550 0021 5F5F7569 		.ascii	"__uint8_t\000"
 3550      6E74385F 
 3550      7400
 3551              	.LASF12:
 3552 002b 6C6F6E67 		.ascii	"long long unsigned int\000"
 3552      206C6F6E 
 3552      6720756E 
 3552      7369676E 
 3552      65642069 
 3553              	.LASF90:
 3554 0042 474E5520 		.ascii	"GNU C 4.9.3 20150529 (prerelease) -mcpu=cortex-m4 -"
 3554      4320342E 
 3554      392E3320 
 3554      32303135 
 3554      30353239 
 3555 0075 6D6E6F2D 		.ascii	"mno-thumb-interwork -mthumb -ggdb -O2 -fomit-frame-"
 3555      7468756D 
 3555      622D696E 
 3555      74657277 
 3555      6F726B20 
 3556 00a8 706F696E 		.ascii	"pointer -falign-functions=16 -ffunction-sections -f"
 3556      74657220 
 3556      2D66616C 
 3556      69676E2D 
 3556      66756E63 
 3557 00db 64617461 		.ascii	"data-sections -fno-common\000"
 3557      2D736563 
 3557      74696F6E 
 3557      73202D66 
 3557      6E6F2D63 
 3558              	.LASF67:
 3559 00f5 65786974 		.ascii	"exitcode\000"
 3559      636F6465 
 3559      00
 3560              	.LASF77:
 3561 00fe 63684D74 		.ascii	"chMtxUnlock\000"
 3561      78556E6C 
 3561      6F636B00 
 3562              	.LASF30:
 3563 010a 705F7072 		.ascii	"p_prio\000"
 3563      696F00
 3564              	.LASF10:
 3565 0111 6C6F6E67 		.ascii	"long long int\000"
 3565      206C6F6E 
 3565      6720696E 
 3565      7400
 3566              	.LASF1:
 3567 011f 7369676E 		.ascii	"signed char\000"
 3567      65642063 
 3567      68617200 
 3568              	.LASF47:
 3569 012b 705F6D70 		.ascii	"p_mpool\000"
 3569      6F6F6C00 
 3570              	.LASF17:
 3571 0133 626F6F6C 		.ascii	"bool_t\000"
ARM GAS  /tmp/cc8oKFvA.s 			page 65


 3571      5F7400
 3572              	.LASF63:
 3573 013a 6D5F7175 		.ascii	"m_queue\000"
 3573      65756500 
 3574              	.LASF22:
 3575 0142 74736C69 		.ascii	"tslices_t\000"
 3575      6365735F 
 3575      7400
 3576              	.LASF7:
 3577 014c 6C6F6E67 		.ascii	"long int\000"
 3577      20696E74 
 3577      00
 3578              	.LASF20:
 3579 0155 74737461 		.ascii	"tstate_t\000"
 3579      74655F74 
 3579      00
 3580              	.LASF74:
 3581 015e 63684D74 		.ascii	"chMtxLockS\000"
 3581      784C6F63 
 3581      6B5300
 3582              	.LASF83:
 3583 0169 63684D74 		.ascii	"chMtxTryLockS\000"
 3583      78547279 
 3583      4C6F636B 
 3583      5300
 3584              	.LASF32:
 3585 0177 705F6E65 		.ascii	"p_newer\000"
 3585      77657200 
 3586              	.LASF89:
 3587 017f 63685363 		.ascii	"chSchRescheduleS\000"
 3587      68526573 
 3587      63686564 
 3587      756C6553 
 3587      00
 3588              	.LASF8:
 3589 0190 5F5F7569 		.ascii	"__uint32_t\000"
 3589      6E743332 
 3589      5F7400
 3590              	.LASF50:
 3591 019b 72656761 		.ascii	"regarm_t\000"
 3591      726D5F74 
 3591      00
 3592              	.LASF35:
 3593 01a4 705F7374 		.ascii	"p_stklimit\000"
 3593      6B6C696D 
 3593      697400
 3594              	.LASF0:
 3595 01af 756E7369 		.ascii	"unsigned int\000"
 3595      676E6564 
 3595      20696E74 
 3595      00
 3596              	.LASF9:
 3597 01bc 6C6F6E67 		.ascii	"long unsigned int\000"
 3597      20756E73 
 3597      69676E65 
 3597      6420696E 
 3597      7400
ARM GAS  /tmp/cc8oKFvA.s 			page 66


 3598              	.LASF91:
 3599 01ce 2E2E2F2E 		.ascii	"../../ChibiOS_2.6.5/os/kernel/src/chmtx.c\000"
 3599      2E2F4368 
 3599      6962694F 
 3599      535F322E 
 3599      362E352F 
 3600              	.LASF53:
 3601 01f8 636F6E74 		.ascii	"context\000"
 3601      65787400 
 3602              	.LASF4:
 3603 0200 73686F72 		.ascii	"short unsigned int\000"
 3603      7420756E 
 3603      7369676E 
 3603      65642069 
 3603      6E7400
 3604              	.LASF24:
 3605 0213 6D73675F 		.ascii	"msg_t\000"
 3605      7400
 3606              	.LASF58:
 3607 0219 725F6E65 		.ascii	"r_newer\000"
 3607      77657200 
 3608              	.LASF80:
 3609 0221 63684D74 		.ascii	"chMtxUnlockAll\000"
 3609      78556E6C 
 3609      6F636B41 
 3609      6C6C00
 3610              	.LASF78:
 3611 0230 6E657770 		.ascii	"newprio\000"
 3611      72696F00 
 3612              	.LASF19:
 3613 0238 746D6F64 		.ascii	"tmode_t\000"
 3613      655F7400 
 3614              	.LASF85:
 3615 0240 63684462 		.ascii	"chDbgCheckClassS\000"
 3615      67436865 
 3615      636B436C 
 3615      61737353 
 3615      00
 3616              	.LASF49:
 3617 0251 54687265 		.ascii	"ThreadsList\000"
 3617      6164734C 
 3617      69737400 
 3618              	.LASF25:
 3619 025d 6576656E 		.ascii	"eventmask_t\000"
 3619      746D6173 
 3619      6B5F7400 
 3620              	.LASF76:
 3621 0269 63684D74 		.ascii	"chMtxTryLock\000"
 3621      78547279 
 3621      4C6F636B 
 3621      00
 3622              	.LASF62:
 3623 0276 4D757465 		.ascii	"Mutex\000"
 3623      7800
 3624              	.LASF51:
 3625 027c 73746B61 		.ascii	"stkalign_t\000"
 3625      6C69676E 
ARM GAS  /tmp/cc8oKFvA.s 			page 67


 3625      5F7400
 3626              	.LASF54:
 3627 0287 73697A65 		.ascii	"sizetype\000"
 3627      74797065 
 3627      00
 3628              	.LASF86:
 3629 0290 6462675F 		.ascii	"dbg_check_lock\000"
 3629      63686563 
 3629      6B5F6C6F 
 3629      636B00
 3630              	.LASF75:
 3631 029f 63684D74 		.ascii	"chMtxLock\000"
 3631      784C6F63 
 3631      6B00
 3632              	.LASF33:
 3633 02a9 705F6F6C 		.ascii	"p_older\000"
 3633      64657200 
 3634              	.LASF57:
 3635 02b1 725F6374 		.ascii	"r_ctx\000"
 3635      7800
 3636              	.LASF48:
 3637 02b7 54687265 		.ascii	"ThreadsQueue\000"
 3637      61647351 
 3637      75657565 
 3637      00
 3638              	.LASF71:
 3639 02c4 64657175 		.ascii	"dequeue\000"
 3639      65756500 
 3640              	.LASF60:
 3641 02cc 725F6375 		.ascii	"r_current\000"
 3641      7272656E 
 3641      7400
 3642              	.LASF59:
 3643 02d6 725F6F6C 		.ascii	"r_older\000"
 3643      64657200 
 3644              	.LASF87:
 3645 02de 6462675F 		.ascii	"dbg_check_unlock\000"
 3645      63686563 
 3645      6B5F756E 
 3645      6C6F636B 
 3645      00
 3646              	.LASF11:
 3647 02ef 5F5F7569 		.ascii	"__uint64_t\000"
 3647      6E743634 
 3647      5F7400
 3648              	.LASF21:
 3649 02fa 74726566 		.ascii	"trefs_t\000"
 3649      735F7400 
 3650              	.LASF29:
 3651 0302 705F7072 		.ascii	"p_prev\000"
 3651      657600
 3652              	.LASF23:
 3653 0309 74707269 		.ascii	"tprio_t\000"
 3653      6F5F7400 
 3654              	.LASF18:
 3655 0311 5F426F6F 		.ascii	"_Bool\000"
 3655      6C00
ARM GAS  /tmp/cc8oKFvA.s 			page 68


 3656              	.LASF14:
 3657 0317 696E7433 		.ascii	"int32_t\000"
 3657      325F7400 
 3658              	.LASF2:
 3659 031f 756E7369 		.ascii	"unsigned char\000"
 3659      676E6564 
 3659      20636861 
 3659      7200
 3660              	.LASF45:
 3661 032d 705F6D74 		.ascii	"p_mtxlist\000"
 3661      786C6973 
 3661      7400
 3662              	.LASF3:
 3663 0337 73686F72 		.ascii	"short int\000"
 3663      7420696E 
 3663      7400
 3664              	.LASF36:
 3665 0341 705F7374 		.ascii	"p_state\000"
 3665      61746500 
 3666              	.LASF39:
 3667 0349 705F7072 		.ascii	"p_preempt\000"
 3667      65656D70 
 3667      7400
 3668              	.LASF56:
 3669 0353 725F7072 		.ascii	"r_prio\000"
 3669      696F00
 3670              	.LASF92:
 3671 035a 2F686F6D 		.ascii	"/home/namv1994/CFSD19/Christian STM32 code/STM32F4/"
 3671      652F6E61 
 3671      6D763139 
 3671      39342F43 
 3671      46534431 
 3672 038d 53544D33 		.ascii	"STM32F4/embedded/ChibiOS/nam-test-USB/USB_CDC\000"
 3672      3246342F 
 3672      656D6265 
 3672      64646564 
 3672      2F436869 
 3673              	.LASF69:
 3674 03bb 65776D61 		.ascii	"ewmask\000"
 3674      736B00
 3675              	.LASF28:
 3676 03c2 705F6E65 		.ascii	"p_next\000"
 3676      787400
 3677              	.LASF37:
 3678 03c9 705F666C 		.ascii	"p_flags\000"
 3678      61677300 
 3679              	.LASF79:
 3680 03d1 63684D74 		.ascii	"chMtxUnlockS\000"
 3680      78556E6C 
 3680      6F636B53 
 3680      00
 3681              	.LASF27:
 3682 03de 54687265 		.ascii	"Thread\000"
 3682      616400
 3683              	.LASF82:
 3684 03e5 63685363 		.ascii	"chSchGoSleepS\000"
 3684      68476F53 
ARM GAS  /tmp/cc8oKFvA.s 			page 69


 3684      6C656570 
 3684      5300
 3685              	.LASF44:
 3686 03f3 705F6570 		.ascii	"p_epending\000"
 3686      656E6469 
 3686      6E6700
 3687              	.LASF15:
 3688 03fe 75696E74 		.ascii	"uint32_t\000"
 3688      33325F74 
 3688      00
 3689              	.LASF55:
 3690 0407 725F7175 		.ascii	"r_queue\000"
 3690      65756500 
 3691              	.LASF84:
 3692 040f 63685363 		.ascii	"chSchReadyI\000"
 3692      68526561 
 3692      64794900 
 3693              	.LASF70:
 3694 041b 63686172 		.ascii	"char\000"
 3694      00
 3695              	.LASF72:
 3696 0420 6669666F 		.ascii	"fifo_remove\000"
 3696      5F72656D 
 3696      6F766500 
 3697              	.LASF65:
 3698 042c 6D5F6E65 		.ascii	"m_next\000"
 3698      787400
 3699              	.LASF26:
 3700 0433 73797374 		.ascii	"systime_t\000"
 3700      696D655F 
 3700      7400
 3701              	.LASF46:
 3702 043d 705F7265 		.ascii	"p_realprio\000"
 3702      616C7072 
 3702      696F00
 3703              	.LASF6:
 3704 0448 5F5F696E 		.ascii	"__int32_t\000"
 3704      7433325F 
 3704      7400
 3705              	.LASF93:
 3706 0452 7072696F 		.ascii	"prio_insert\000"
 3706      5F696E73 
 3706      65727400 
 3707              	.LASF40:
 3708 045e 705F7469 		.ascii	"p_time\000"
 3708      6D6500
 3709              	.LASF52:
 3710 0465 696E7463 		.ascii	"intctx\000"
 3710      747800
 3711              	.LASF42:
 3712 046c 705F6D73 		.ascii	"p_msgqueue\000"
 3712      67717565 
 3712      756500
 3713              	.LASF88:
 3714 0477 63685363 		.ascii	"chSchWakeupS\000"
 3714      6857616B 
 3714      65757053 
ARM GAS  /tmp/cc8oKFvA.s 			page 70


 3714      00
 3715              	.LASF73:
 3716 0484 63684D74 		.ascii	"chMtxInit\000"
 3716      78496E69 
 3716      7400
 3717              	.LASF38:
 3718 048e 705F7265 		.ascii	"p_refs\000"
 3718      667300
 3719              	.LASF61:
 3720 0495 52656164 		.ascii	"ReadyList\000"
 3720      794C6973 
 3720      7400
 3721              	.LASF94:
 3722 049f 726C6973 		.ascii	"rlist\000"
 3722      7400
 3723              	.LASF13:
 3724 04a5 75696E74 		.ascii	"uint8_t\000"
 3724      385F7400 
 3725              	.LASF68:
 3726 04ad 77746F62 		.ascii	"wtobjp\000"
 3726      6A7000
 3727              	.LASF34:
 3728 04b4 705F6E61 		.ascii	"p_name\000"
 3728      6D6500
 3729              	.LASF64:
 3730 04bb 6D5F6F77 		.ascii	"m_owner\000"
 3730      6E657200 
 3731              	.LASF31:
 3732 04c3 705F6374 		.ascii	"p_ctx\000"
 3732      7800
 3733              	.LASF41:
 3734 04c9 705F7761 		.ascii	"p_waiting\000"
 3734      6974696E 
 3734      6700
 3735              		.ident	"GCC: (15:4.9.3+svn231177-1) 4.9.3 20150529 (prerelease)"
ARM GAS  /tmp/cc8oKFvA.s 			page 71


DEFINED SYMBOLS
                            *ABS*:0000000000000000 chmtx.c
     /tmp/cc8oKFvA.s:19     .text.chMtxInit:0000000000000000 $t
     /tmp/cc8oKFvA.s:25     .text.chMtxInit:0000000000000000 chMtxInit
     /tmp/cc8oKFvA.s:61     .text.chMtxInit:0000000000000018 $d
     /tmp/cc8oKFvA.s:66     .text.chMtxLockS:0000000000000000 $t
     /tmp/cc8oKFvA.s:72     .text.chMtxLockS:0000000000000000 chMtxLockS
     /tmp/cc8oKFvA.s:351    .text.chMtxLockS:00000000000000f0 $d
     /tmp/cc8oKFvA.s:359    .text.chMtxLock:0000000000000000 $t
     /tmp/cc8oKFvA.s:365    .text.chMtxLock:0000000000000000 chMtxLock
     /tmp/cc8oKFvA.s:410    .text.chMtxTryLockS:0000000000000000 $t
     /tmp/cc8oKFvA.s:416    .text.chMtxTryLockS:0000000000000000 chMtxTryLockS
     /tmp/cc8oKFvA.s:469    .text.chMtxTryLockS:000000000000002c $d
     /tmp/cc8oKFvA.s:475    .text.chMtxTryLock:0000000000000000 $t
     /tmp/cc8oKFvA.s:481    .text.chMtxTryLock:0000000000000000 chMtxTryLock
     /tmp/cc8oKFvA.s:530    .text.chMtxUnlock:0000000000000000 $t
     /tmp/cc8oKFvA.s:536    .text.chMtxUnlock:0000000000000000 chMtxUnlock
     /tmp/cc8oKFvA.s:686    .text.chMtxUnlock:000000000000007c $d
     /tmp/cc8oKFvA.s:693    .text.chMtxUnlockS:0000000000000000 $t
     /tmp/cc8oKFvA.s:699    .text.chMtxUnlockS:0000000000000000 chMtxUnlockS
     /tmp/cc8oKFvA.s:821    .text.chMtxUnlockS:000000000000006c $d
     /tmp/cc8oKFvA.s:828    .text.chMtxUnlockAll:0000000000000000 $t
     /tmp/cc8oKFvA.s:834    .text.chMtxUnlockAll:0000000000000000 chMtxUnlockAll
     /tmp/cc8oKFvA.s:952    .text.chMtxUnlockAll:0000000000000058 $d
     /tmp/cc8oKFvA.s:958    .rodata.str1.4:0000000000000000 $d
                     .debug_frame:0000000000000010 $d

UNDEFINED SYMBOLS
chDbgPanic
chDbgCheckClassS
chSchGoSleepS
chSchReadyI
rlist
dbg_check_lock
dbg_check_unlock
chSchWakeupS
chSchRescheduleS
