ARM GAS  /tmp/cc8oKFvA.s 			page 1


   1              		.syntax unified
   2              		.cpu cortex-m4
   3              		.fpu softvfp
   4              		.eabi_attribute 20, 1
   5              		.eabi_attribute 21, 1
   6              		.eabi_attribute 23, 3
   7              		.eabi_attribute 24, 1
   8              		.eabi_attribute 25, 1
   9              		.eabi_attribute 26, 1
  10              		.eabi_attribute 30, 2
  11              		.eabi_attribute 34, 1
  12              		.eabi_attribute 18, 4
  13              		.thumb
  14              		.file	"chmtx.c"
  15              		.text
  16              	.Ltext0:
  17              		.cfi_sections	.debug_frame
  18              		.section	.text.chMtxInit,"ax",%progbits
  19              		.align	2
  20              		.p2align 4,,15
  21              		.global	chMtxInit
  22              		.thumb
  23              		.thumb_func
  24              		.type	chMtxInit, %function
  25              	chMtxInit:
  26              	.LFB7:
  27              		.file 1 "../../ChibiOS_2.6.5/os/kernel/src/chmtx.c"
  28              		.loc 1 86 0
  29              		.cfi_startproc
  30              		@ args = 0, pretend = 0, frame = 0
  31              		@ frame_needed = 0, uses_anonymous_args = 0
  32              	.LVL0:
  33 0000 10B5     		push	{r4, lr}
  34              		.cfi_def_cfa_offset 8
  35              		.cfi_offset 4, -8
  36              		.cfi_offset 14, -4
  37              		.loc 1 88 0
  38 0002 0446     		mov	r4, r0
  39 0004 20B1     		cbz	r0, .L5
  40              	.LVL1:
  41              	.L2:
  42              		.loc 1 91 0
  43 0006 0023     		movs	r3, #0
  44              		.loc 1 90 0
  45 0008 6460     		str	r4, [r4, #4]
  46 000a 2460     		str	r4, [r4]
  47              		.loc 1 91 0
  48 000c A360     		str	r3, [r4, #8]
  49 000e 10BD     		pop	{r4, pc}
  50              	.LVL2:
  51              	.L5:
  52              		.loc 1 88 0 discriminator 1
  53 0010 0148     		ldr	r0, .L6
  54              	.LVL3:
  55 0012 FFF7FEFF 		bl	chDbgPanic
  56              	.LVL4:
  57 0016 F6E7     		b	.L2
ARM GAS  /tmp/cc8oKFvA.s 			page 2


  58              	.L7:
  59              		.align	2
  60              	.L6:
  61 0018 00000000 		.word	.LC0
  62              		.cfi_endproc
  63              	.LFE7:
  64              		.size	chMtxInit, .-chMtxInit
  65              		.section	.text.chMtxLockS,"ax",%progbits
  66              		.align	2
  67              		.p2align 4,,15
  68              		.global	chMtxLockS
  69              		.thumb
  70              		.thumb_func
  71              		.type	chMtxLockS, %function
  72              	chMtxLockS:
  73              	.LFB9:
  74              		.loc 1 121 0
  75              		.cfi_startproc
  76              		@ args = 0, pretend = 0, frame = 0
  77              		@ frame_needed = 0, uses_anonymous_args = 0
  78              	.LVL5:
  79              		.loc 1 122 0
  80 0000 3B4B     		ldr	r3, .L38
  81              		.loc 1 121 0
  82 0002 70B5     		push	{r4, r5, r6, lr}
  83              		.cfi_def_cfa_offset 16
  84              		.cfi_offset 4, -16
  85              		.cfi_offset 5, -12
  86              		.cfi_offset 6, -8
  87              		.cfi_offset 14, -4
  88              		.loc 1 121 0
  89 0004 0546     		mov	r5, r0
  90              		.loc 1 122 0
  91 0006 9C69     		ldr	r4, [r3, #24]
  92              	.LVL6:
  93              		.loc 1 124 0
  94 0008 FFF7FEFF 		bl	chDbgCheckClassS
  95              	.LVL7:
  96              		.loc 1 125 0
  97 000c 002D     		cmp	r5, #0
  98 000e 6BD0     		beq	.L36
  99              	.L9:
 100              		.loc 1 128 0
 101 0010 A868     		ldr	r0, [r5, #8]
 102 0012 0028     		cmp	r0, #0
 103 0014 36D0     		beq	.L10
 104              	.LVL8:
 105              	.LBB29:
 106              		.loc 1 135 0
 107 0016 A268     		ldr	r2, [r4, #8]
 108 0018 8368     		ldr	r3, [r0, #8]
 109 001a 9A42     		cmp	r2, r3
 110 001c 07D9     		bls	.L12
 111              	.L17:
 112              		.loc 1 139 0
 113 001e 90F82030 		ldrb	r3, [r0, #32]	@ zero_extendqisi2
 114              		.loc 1 137 0
ARM GAS  /tmp/cc8oKFvA.s 			page 3


 115 0022 8260     		str	r2, [r0, #8]
 116              		.loc 1 139 0
 117 0024 042B     		cmp	r3, #4
 118 0026 46D0     		beq	.L13
 119 0028 052B     		cmp	r3, #5
 120 002a 30D0     		beq	.L14
 121 002c FBB1     		cbz	r3, .L37
 122              	.LVL9:
 123              	.L12:
 124              	.LBB30:
 125              	.LBB31:
 126              		.file 2 "../../ChibiOS_2.6.5/os/kernel/include/chinline.h"
 127              		.loc 2 43 0
 128 002e 2B46     		mov	r3, r5
 129 0030 03E0     		b	.L27
 130              	.LVL10:
 131              	.L24:
 132              		.loc 2 46 0
 133 0032 9968     		ldr	r1, [r3, #8]
 134 0034 A268     		ldr	r2, [r4, #8]
 135 0036 9142     		cmp	r1, r2
 136 0038 02D3     		bcc	.L28
 137              	.L27:
 138              		.loc 2 45 0
 139 003a 1B68     		ldr	r3, [r3]
 140              	.LVL11:
 141              		.loc 2 46 0
 142 003c 9D42     		cmp	r5, r3
 143 003e F8D1     		bne	.L24
 144              	.L28:
 145              		.loc 2 48 0
 146 0040 5A68     		ldr	r2, [r3, #4]
 147 0042 6260     		str	r2, [r4, #4]
 148              		.loc 2 47 0
 149 0044 2360     		str	r3, [r4]
 150              	.LBE31:
 151              	.LBE30:
 152              		.loc 1 175 0
 153 0046 0420     		movs	r0, #4
 154              	.LBB33:
 155              	.LBB32:
 156              		.loc 2 49 0
 157 0048 5C60     		str	r4, [r3, #4]
 158 004a 1460     		str	r4, [r2]
 159              	.LBE32:
 160              	.LBE33:
 161              		.loc 1 174 0
 162 004c A562     		str	r5, [r4, #40]
 163              		.loc 1 175 0
 164 004e FFF7FEFF 		bl	chSchGoSleepS
 165              	.LVL12:
 166              		.loc 1 178 0
 167 0052 AB68     		ldr	r3, [r5, #8]
 168 0054 A342     		cmp	r3, r4
 169 0056 02D0     		beq	.L26
 170              		.loc 1 178 0 is_stmt 0 discriminator 1
 171 0058 2648     		ldr	r0, .L38+4
ARM GAS  /tmp/cc8oKFvA.s 			page 4


 172 005a FFF7FEFF 		bl	chDbgPanic
 173              	.LVL13:
 174              	.L26:
 175              		.loc 1 179 0 is_stmt 1
 176 005e 236C     		ldr	r3, [r4, #64]
 177 0060 AB42     		cmp	r3, r5
 178 0062 13D0     		beq	.L8
 179              		.loc 1 179 0 is_stmt 0 discriminator 1
 180 0064 2448     		ldr	r0, .L38+8
 181              	.LBE29:
 182              		.loc 1 187 0 is_stmt 1 discriminator 1
 183 0066 BDE87040 		pop	{r4, r5, r6, lr}
 184              		.cfi_remember_state
 185              		.cfi_restore 14
 186              		.cfi_restore 6
 187              		.cfi_restore 5
 188              		.cfi_restore 4
 189              		.cfi_def_cfa_offset 0
 190              	.LVL14:
 191              	.LBB50:
 192              		.loc 1 179 0 discriminator 1
 193 006a FFF7FEBF 		b	chDbgPanic
 194              	.LVL15:
 195              	.L37:
 196              		.cfi_restore_state
 197              	.LBB34:
 198              	.LBB35:
 199              		.loc 2 75 0
 200 006e 90E80C00 		ldmia	r0, {r2, r3}
 201              	.LBE35:
 202              	.LBE34:
 203              		.loc 1 164 0
 204 0072 0121     		movs	r1, #1
 205 0074 80F82010 		strb	r1, [r0, #32]
 206              	.LVL16:
 207              	.LBB37:
 208              	.LBB36:
 209              		.loc 2 75 0
 210 0078 1A60     		str	r2, [r3]
 211              		.loc 2 76 0
 212 007a 0268     		ldr	r2, [r0]
 213 007c 5360     		str	r3, [r2, #4]
 214              	.LBE36:
 215              	.LBE37:
 216              		.loc 1 167 0
 217 007e FFF7FEFF 		bl	chSchReadyI
 218              	.LVL17:
 219              		.loc 1 168 0
 220 0082 D4E7     		b	.L12
 221              	.L10:
 222              	.LBE50:
 223              		.loc 1 184 0
 224 0084 236C     		ldr	r3, [r4, #64]
 225 0086 EB60     		str	r3, [r5, #12]
 226              		.loc 1 183 0
 227 0088 AC60     		str	r4, [r5, #8]
 228              		.loc 1 185 0
ARM GAS  /tmp/cc8oKFvA.s 			page 5


 229 008a 2564     		str	r5, [r4, #64]
 230              	.L8:
 231 008c 70BD     		pop	{r4, r5, r6, pc}
 232              	.LVL18:
 233              	.L14:
 234              	.LBB51:
 235              	.LBB38:
 236              	.LBB39:
 237              		.loc 2 75 0
 238 008e 90E80A00 		ldmia	r0, {r1, r3}
 239 0092 1960     		str	r1, [r3]
 240              	.LBE39:
 241              	.LBE38:
 242              		.loc 1 158 0
 243 0094 866A     		ldr	r6, [r0, #40]
 244              	.LVL19:
 245              	.LBB41:
 246              	.LBB40:
 247              		.loc 2 76 0
 248 0096 0168     		ldr	r1, [r0]
 249 0098 4B60     		str	r3, [r1, #4]
 250              	.LBE40:
 251              	.LBE41:
 252              	.LBB42:
 253              	.LBB43:
 254              		.loc 2 43 0
 255 009a 3346     		mov	r3, r6
 256 009c 02E0     		b	.L22
 257              	.LVL20:
 258              	.L21:
 259              		.loc 2 46 0
 260 009e 9968     		ldr	r1, [r3, #8]
 261 00a0 9142     		cmp	r1, r2
 262 00a2 02D3     		bcc	.L23
 263              	.L22:
 264              		.loc 2 45 0
 265 00a4 1B68     		ldr	r3, [r3]
 266              	.LVL21:
 267              		.loc 2 46 0
 268 00a6 9E42     		cmp	r6, r3
 269 00a8 F9D1     		bne	.L21
 270              	.L23:
 271              		.loc 2 48 0
 272 00aa 5A68     		ldr	r2, [r3, #4]
 273 00ac 4260     		str	r2, [r0, #4]
 274              		.loc 2 47 0
 275 00ae 0360     		str	r3, [r0]
 276              		.loc 2 49 0
 277 00b0 5860     		str	r0, [r3, #4]
 278 00b2 1060     		str	r0, [r2]
 279 00b4 BBE7     		b	.L12
 280              	.LVL22:
 281              	.L13:
 282              	.LBE43:
 283              	.LBE42:
 284              	.LBB44:
 285              	.LBB45:
ARM GAS  /tmp/cc8oKFvA.s 			page 6


 286              		.loc 2 75 0
 287 00b6 90E80A00 		ldmia	r0, {r1, r3}
 288 00ba 1960     		str	r1, [r3]
 289              	.LBE45:
 290              	.LBE44:
 291              		.loc 1 142 0
 292 00bc 866A     		ldr	r6, [r0, #40]
 293              	.LVL23:
 294              	.LBB47:
 295              	.LBB46:
 296              		.loc 2 76 0
 297 00be 0168     		ldr	r1, [r0]
 298 00c0 4B60     		str	r3, [r1, #4]
 299              	.LBE46:
 300              	.LBE47:
 301              		.loc 1 142 0
 302 00c2 3346     		mov	r3, r6
 303 00c4 02E0     		b	.L19
 304              	.LVL24:
 305              	.L16:
 306              	.LBB48:
 307              	.LBB49:
 308              		.loc 2 46 0
 309 00c6 9968     		ldr	r1, [r3, #8]
 310 00c8 9142     		cmp	r1, r2
 311 00ca 02D3     		bcc	.L20
 312              	.L19:
 313              		.loc 2 45 0
 314 00cc 1B68     		ldr	r3, [r3]
 315              	.LVL25:
 316              		.loc 2 46 0
 317 00ce 9E42     		cmp	r6, r3
 318 00d0 F9D1     		bne	.L16
 319              	.L20:
 320              		.loc 2 48 0
 321 00d2 5A68     		ldr	r2, [r3, #4]
 322 00d4 4260     		str	r2, [r0, #4]
 323              		.loc 2 47 0
 324 00d6 0360     		str	r3, [r0]
 325              		.loc 2 49 0
 326 00d8 5860     		str	r0, [r3, #4]
 327 00da 1060     		str	r0, [r2]
 328              	.LBE49:
 329              	.LBE48:
 330              		.loc 1 143 0
 331 00dc B068     		ldr	r0, [r6, #8]
 332              	.LVL26:
 333              		.loc 1 135 0
 334 00de A268     		ldr	r2, [r4, #8]
 335 00e0 8368     		ldr	r3, [r0, #8]
 336              	.LVL27:
 337 00e2 9342     		cmp	r3, r2
 338 00e4 9BD3     		bcc	.L17
 339 00e6 A2E7     		b	.L12
 340              	.LVL28:
 341              	.L36:
 342              	.LBE51:
ARM GAS  /tmp/cc8oKFvA.s 			page 7


 343              		.loc 1 125 0 discriminator 1
 344 00e8 0448     		ldr	r0, .L38+12
 345 00ea FFF7FEFF 		bl	chDbgPanic
 346              	.LVL29:
 347 00ee 8FE7     		b	.L9
 348              	.L39:
 349              		.align	2
 350              	.L38:
 351 00f0 00000000 		.word	rlist
 352 00f4 20000000 		.word	.LC2
 353 00f8 34000000 		.word	.LC3
 354 00fc 10000000 		.word	.LC1
 355              		.cfi_endproc
 356              	.LFE9:
 357              		.size	chMtxLockS, .-chMtxLockS
 358              		.section	.text.chMtxLock,"ax",%progbits
 359              		.align	2
 360              		.p2align 4,,15
 361              		.global	chMtxLock
 362              		.thumb
 363              		.thumb_func
 364              		.type	chMtxLock, %function
 365              	chMtxLock:
 366              	.LFB8:
 367              		.loc 1 103 0
 368              		.cfi_startproc
 369              		@ args = 0, pretend = 0, frame = 0
 370              		@ frame_needed = 0, uses_anonymous_args = 0
 371              	.LVL30:
 372 0000 10B5     		push	{r4, lr}
 373              		.cfi_def_cfa_offset 8
 374              		.cfi_offset 4, -8
 375              		.cfi_offset 14, -4
 376              	.LBB52:
 377              		.loc 1 105 0
 378 0002 2023     		movs	r3, #32
 379              	.LBE52:
 380              		.loc 1 103 0
 381 0004 0446     		mov	r4, r0
 382              	.LBB53:
 383              		.loc 1 105 0
 384              	@ 105 "../../ChibiOS_2.6.5/os/kernel/src/chmtx.c" 1
 385 0006 83F31188 		msr     BASEPRI, r3
 386              	@ 0 "" 2
 387              		.thumb
 388              	.LBE53:
 389 000a FFF7FEFF 		bl	dbg_check_lock
 390              	.LVL31:
 391              		.loc 1 107 0
 392 000e 2046     		mov	r0, r4
 393 0010 FFF7FEFF 		bl	chMtxLockS
 394              	.LVL32:
 395              		.loc 1 109 0
 396 0014 FFF7FEFF 		bl	dbg_check_unlock
 397              	.LVL33:
 398              	.LBB54:
 399 0018 0023     		movs	r3, #0
ARM GAS  /tmp/cc8oKFvA.s 			page 8


 400              	@ 109 "../../ChibiOS_2.6.5/os/kernel/src/chmtx.c" 1
 401 001a 83F31188 		msr     BASEPRI, r3
 402              	@ 0 "" 2
 403              		.thumb
 404 001e 10BD     		pop	{r4, pc}
 405              	.LBE54:
 406              		.cfi_endproc
 407              	.LFE8:
 408              		.size	chMtxLock, .-chMtxLock
 409              		.section	.text.chMtxTryLockS,"ax",%progbits
 410              		.align	2
 411              		.p2align 4,,15
 412              		.global	chMtxTryLockS
 413              		.thumb
 414              		.thumb_func
 415              		.type	chMtxTryLockS, %function
 416              	chMtxTryLockS:
 417              	.LFB11:
 418              		.loc 1 234 0
 419              		.cfi_startproc
 420              		@ args = 0, pretend = 0, frame = 0
 421              		@ frame_needed = 0, uses_anonymous_args = 0
 422              	.LVL34:
 423 0000 10B5     		push	{r4, lr}
 424              		.cfi_def_cfa_offset 8
 425              		.cfi_offset 4, -8
 426              		.cfi_offset 14, -4
 427              		.loc 1 234 0
 428 0002 0446     		mov	r4, r0
 429              		.loc 1 236 0
 430 0004 FFF7FEFF 		bl	chDbgCheckClassS
 431              	.LVL35:
 432              		.loc 1 237 0
 433 0008 5CB1     		cbz	r4, .L47
 434              	.L43:
 435              		.loc 1 239 0
 436 000a A368     		ldr	r3, [r4, #8]
 437 000c 0BB1     		cbz	r3, .L48
 438              		.loc 1 240 0
 439 000e 0020     		movs	r0, #0
 440              		.loc 1 245 0
 441 0010 10BD     		pop	{r4, pc}
 442              	.LVL36:
 443              	.L48:
 444              	.LBB57:
 445              	.LBB58:
 446              		.loc 1 241 0
 447 0012 064B     		ldr	r3, .L49
 448 0014 9B69     		ldr	r3, [r3, #24]
 449 0016 A360     		str	r3, [r4, #8]
 450              		.loc 1 242 0
 451 0018 1A6C     		ldr	r2, [r3, #64]
 452 001a E260     		str	r2, [r4, #12]
 453              		.loc 1 243 0
 454 001c 0120     		movs	r0, #1
 455 001e 1C64     		str	r4, [r3, #64]
 456 0020 10BD     		pop	{r4, pc}
ARM GAS  /tmp/cc8oKFvA.s 			page 9


 457              	.LVL37:
 458              	.L47:
 459              	.LBE58:
 460              	.LBE57:
 461              		.loc 1 237 0 discriminator 1
 462 0022 0348     		ldr	r0, .L49+4
 463 0024 FFF7FEFF 		bl	chDbgPanic
 464              	.LVL38:
 465 0028 EFE7     		b	.L43
 466              	.L50:
 467 002a 00BF     		.align	2
 468              	.L49:
 469 002c 00000000 		.word	rlist
 470 0030 48000000 		.word	.LC4
 471              		.cfi_endproc
 472              	.LFE11:
 473              		.size	chMtxTryLockS, .-chMtxTryLockS
 474              		.section	.text.chMtxTryLock,"ax",%progbits
 475              		.align	2
 476              		.p2align 4,,15
 477              		.global	chMtxTryLock
 478              		.thumb
 479              		.thumb_func
 480              		.type	chMtxTryLock, %function
 481              	chMtxTryLock:
 482              	.LFB10:
 483              		.loc 1 206 0
 484              		.cfi_startproc
 485              		@ args = 0, pretend = 0, frame = 0
 486              		@ frame_needed = 0, uses_anonymous_args = 0
 487              	.LVL39:
 488 0000 10B5     		push	{r4, lr}
 489              		.cfi_def_cfa_offset 8
 490              		.cfi_offset 4, -8
 491              		.cfi_offset 14, -4
 492              	.LBB59:
 493              		.loc 1 209 0
 494 0002 2023     		movs	r3, #32
 495              	.LBE59:
 496              		.loc 1 206 0
 497 0004 0446     		mov	r4, r0
 498              	.LBB60:
 499              		.loc 1 209 0
 500              	@ 209 "../../ChibiOS_2.6.5/os/kernel/src/chmtx.c" 1
 501 0006 83F31188 		msr     BASEPRI, r3
 502              	@ 0 "" 2
 503              		.thumb
 504              	.LBE60:
 505 000a FFF7FEFF 		bl	dbg_check_lock
 506              	.LVL40:
 507              		.loc 1 211 0
 508 000e 2046     		mov	r0, r4
 509 0010 FFF7FEFF 		bl	chMtxTryLockS
 510              	.LVL41:
 511 0014 0446     		mov	r4, r0
 512              	.LVL42:
 513              		.loc 1 213 0
ARM GAS  /tmp/cc8oKFvA.s 			page 10


 514 0016 FFF7FEFF 		bl	dbg_check_unlock
 515              	.LVL43:
 516              	.LBB61:
 517 001a 0023     		movs	r3, #0
 518              	@ 213 "../../ChibiOS_2.6.5/os/kernel/src/chmtx.c" 1
 519 001c 83F31188 		msr     BASEPRI, r3
 520              	@ 0 "" 2
 521              		.thumb
 522              	.LBE61:
 523              		.loc 1 215 0
 524 0020 2046     		mov	r0, r4
 525 0022 10BD     		pop	{r4, pc}
 526              		.cfi_endproc
 527              	.LFE10:
 528              		.size	chMtxTryLock, .-chMtxTryLock
 529              		.section	.text.chMtxUnlock,"ax",%progbits
 530              		.align	2
 531              		.p2align 4,,15
 532              		.global	chMtxUnlock
 533              		.thumb
 534              		.thumb_func
 535              		.type	chMtxUnlock, %function
 536              	chMtxUnlock:
 537              	.LFB12:
 538              		.loc 1 257 0
 539              		.cfi_startproc
 540              		@ args = 0, pretend = 0, frame = 0
 541              		@ frame_needed = 0, uses_anonymous_args = 0
 542              		.loc 1 258 0
 543 0000 1E4A     		ldr	r2, .L67
 544              		.loc 1 257 0
 545 0002 70B5     		push	{r4, r5, r6, lr}
 546              		.cfi_def_cfa_offset 16
 547              		.cfi_offset 4, -16
 548              		.cfi_offset 5, -12
 549              		.cfi_offset 6, -8
 550              		.cfi_offset 14, -4
 551              	.LBB62:
 552              		.loc 1 261 0
 553 0004 2023     		movs	r3, #32
 554              	.LBE62:
 555              		.loc 1 258 0
 556 0006 9569     		ldr	r5, [r2, #24]
 557              	.LVL44:
 558              	.LBB63:
 559              		.loc 1 261 0
 560              	@ 261 "../../ChibiOS_2.6.5/os/kernel/src/chmtx.c" 1
 561 0008 83F31188 		msr     BASEPRI, r3
 562              	@ 0 "" 2
 563              		.thumb
 564              	.LBE63:
 565 000c FFF7FEFF 		bl	dbg_check_lock
 566              	.LVL45:
 567              		.loc 1 262 0
 568 0010 2C6C     		ldr	r4, [r5, #64]
 569 0012 002C     		cmp	r4, #0
 570 0014 2DD0     		beq	.L66
ARM GAS  /tmp/cc8oKFvA.s 			page 11


 571              	.L54:
 572              		.loc 1 265 0
 573 0016 A368     		ldr	r3, [r4, #8]
 574 0018 AB42     		cmp	r3, r5
 575 001a 03D0     		beq	.L55
 576              		.loc 1 265 0 is_stmt 0 discriminator 1
 577 001c 1848     		ldr	r0, .L67+4
 578 001e FFF7FEFF 		bl	chDbgPanic
 579              	.LVL46:
 580 0022 2C6C     		ldr	r4, [r5, #64]
 581              	.L55:
 582              	.LVL47:
 583              		.loc 1 273 0 is_stmt 1
 584 0024 2668     		ldr	r6, [r4]
 585              		.loc 1 271 0
 586 0026 E368     		ldr	r3, [r4, #12]
 587 0028 2B64     		str	r3, [r5, #64]
 588              		.loc 1 273 0
 589 002a A642     		cmp	r6, r4
 590 002c 1ED0     		beq	.L56
 591              	.LBB64:
 592              		.loc 1 278 0
 593 002e 696C     		ldr	r1, [r5, #68]
 594              	.LVL48:
 595              		.loc 1 280 0
 596 0030 4BB1     		cbz	r3, .L57
 597              	.L59:
 598              		.loc 1 284 0
 599 0032 1A68     		ldr	r2, [r3]
 600 0034 9A42     		cmp	r2, r3
 601 0036 03D0     		beq	.L58
 602              		.loc 1 284 0 is_stmt 0 discriminator 1
 603 0038 9268     		ldr	r2, [r2, #8]
 604 003a 9142     		cmp	r1, r2
 605 003c 38BF     		it	cc
 606 003e 1146     		movcc	r1, r2
 607              	.LVL49:
 608              	.L58:
 609              		.loc 1 286 0 is_stmt 1
 610 0040 DB68     		ldr	r3, [r3, #12]
 611              	.LVL50:
 612              		.loc 1 280 0
 613 0042 002B     		cmp	r3, #0
 614 0044 F5D1     		bne	.L59
 615              	.L57:
 616              	.LBB65:
 617              	.LBB66:
 618              		.loc 2 62 0
 619 0046 3368     		ldr	r3, [r6]
 620              	.LVL51:
 621              	.LBE66:
 622              	.LBE65:
 623              		.loc 1 295 0
 624 0048 326C     		ldr	r2, [r6, #64]
 625              		.loc 1 290 0
 626 004a A960     		str	r1, [r5, #8]
 627              	.LVL52:
ARM GAS  /tmp/cc8oKFvA.s 			page 12


 628              		.loc 1 297 0
 629 004c 3046     		mov	r0, r6
 630              	.LBB69:
 631              	.LBB67:
 632              		.loc 2 62 0
 633 004e 2360     		str	r3, [r4]
 634              	.LBE67:
 635              	.LBE69:
 636              		.loc 1 297 0
 637 0050 0021     		movs	r1, #0
 638              	.LVL53:
 639              	.LBB70:
 640              	.LBB68:
 641              		.loc 2 62 0
 642 0052 5C60     		str	r4, [r3, #4]
 643              	.LBE68:
 644              	.LBE70:
 645              		.loc 1 294 0
 646 0054 A660     		str	r6, [r4, #8]
 647              		.loc 1 295 0
 648 0056 E260     		str	r2, [r4, #12]
 649              		.loc 1 296 0
 650 0058 3464     		str	r4, [r6, #64]
 651              		.loc 1 297 0
 652 005a FFF7FEFF 		bl	chSchWakeupS
 653              	.LVL54:
 654              	.L60:
 655              	.LBE64:
 656              		.loc 1 301 0
 657 005e FFF7FEFF 		bl	dbg_check_unlock
 658              	.LVL55:
 659              	.LBB71:
 660 0062 0023     		movs	r3, #0
 661              	@ 301 "../../ChibiOS_2.6.5/os/kernel/src/chmtx.c" 1
 662 0064 83F31188 		msr     BASEPRI, r3
 663              	@ 0 "" 2
 664              		.thumb
 665              	.LBE71:
 666              		.loc 1 303 0
 667 0068 2046     		mov	r0, r4
 668 006a 70BD     		pop	{r4, r5, r6, pc}
 669              	.LVL56:
 670              	.L56:
 671              		.loc 1 300 0
 672 006c 0023     		movs	r3, #0
 673 006e A360     		str	r3, [r4, #8]
 674 0070 F5E7     		b	.L60
 675              	.LVL57:
 676              	.L66:
 677              		.loc 1 262 0 discriminator 1
 678 0072 0448     		ldr	r0, .L67+8
 679 0074 FFF7FEFF 		bl	chDbgPanic
 680              	.LVL58:
 681 0078 2C6C     		ldr	r4, [r5, #64]
 682 007a CCE7     		b	.L54
 683              	.L68:
 684              		.align	2
ARM GAS  /tmp/cc8oKFvA.s 			page 13


 685              	.L67:
 686 007c 00000000 		.word	rlist
 687 0080 70000000 		.word	.LC6
 688 0084 5C000000 		.word	.LC5
 689              		.cfi_endproc
 690              	.LFE12:
 691              		.size	chMtxUnlock, .-chMtxUnlock
 692              		.section	.text.chMtxUnlockS,"ax",%progbits
 693              		.align	2
 694              		.p2align 4,,15
 695              		.global	chMtxUnlockS
 696              		.thumb
 697              		.thumb_func
 698              		.type	chMtxUnlockS, %function
 699              	chMtxUnlockS:
 700              	.LFB13:
 701              		.loc 1 317 0
 702              		.cfi_startproc
 703              		@ args = 0, pretend = 0, frame = 0
 704              		@ frame_needed = 0, uses_anonymous_args = 0
 705              		.loc 1 318 0
 706 0000 1A4B     		ldr	r3, .L83
 707              		.loc 1 317 0
 708 0002 70B5     		push	{r4, r5, r6, lr}
 709              		.cfi_def_cfa_offset 16
 710              		.cfi_offset 4, -16
 711              		.cfi_offset 5, -12
 712              		.cfi_offset 6, -8
 713              		.cfi_offset 14, -4
 714              		.loc 1 318 0
 715 0004 9D69     		ldr	r5, [r3, #24]
 716              	.LVL59:
 717              		.loc 1 321 0
 718 0006 FFF7FEFF 		bl	chDbgCheckClassS
 719              	.LVL60:
 720              		.loc 1 322 0
 721 000a 2C6C     		ldr	r4, [r5, #64]
 722 000c 44B3     		cbz	r4, .L82
 723              	.L70:
 724              		.loc 1 325 0
 725 000e A368     		ldr	r3, [r4, #8]
 726 0010 AB42     		cmp	r3, r5
 727 0012 03D0     		beq	.L71
 728              		.loc 1 325 0 is_stmt 0 discriminator 1
 729 0014 1648     		ldr	r0, .L83+4
 730 0016 FFF7FEFF 		bl	chDbgPanic
 731              	.LVL61:
 732 001a 2C6C     		ldr	r4, [r5, #64]
 733              	.L71:
 734              	.LVL62:
 735              		.loc 1 334 0 is_stmt 1
 736 001c 2668     		ldr	r6, [r4]
 737              		.loc 1 332 0
 738 001e E368     		ldr	r3, [r4, #12]
 739 0020 2B64     		str	r3, [r5, #64]
 740              		.loc 1 334 0
 741 0022 A642     		cmp	r6, r4
ARM GAS  /tmp/cc8oKFvA.s 			page 14


 742 0024 18D0     		beq	.L72
 743              	.LBB72:
 744              		.loc 1 339 0
 745 0026 696C     		ldr	r1, [r5, #68]
 746              	.LVL63:
 747              		.loc 1 341 0
 748 0028 4BB1     		cbz	r3, .L73
 749              	.L75:
 750              		.loc 1 345 0
 751 002a 1A68     		ldr	r2, [r3]
 752 002c 9A42     		cmp	r2, r3
 753 002e 03D0     		beq	.L74
 754              		.loc 1 345 0 is_stmt 0 discriminator 1
 755 0030 9268     		ldr	r2, [r2, #8]
 756 0032 9142     		cmp	r1, r2
 757 0034 38BF     		it	cc
 758 0036 1146     		movcc	r1, r2
 759              	.LVL64:
 760              	.L74:
 761              		.loc 1 347 0 is_stmt 1
 762 0038 DB68     		ldr	r3, [r3, #12]
 763              	.LVL65:
 764              		.loc 1 341 0
 765 003a 002B     		cmp	r3, #0
 766 003c F5D1     		bne	.L75
 767              	.L73:
 768              	.LBB73:
 769              	.LBB74:
 770              		.loc 2 62 0
 771 003e 3368     		ldr	r3, [r6]
 772              	.LVL66:
 773              	.LBE74:
 774              	.LBE73:
 775              		.loc 1 354 0
 776 0040 326C     		ldr	r2, [r6, #64]
 777              		.loc 1 349 0
 778 0042 A960     		str	r1, [r5, #8]
 779              	.LVL67:
 780              		.loc 1 356 0
 781 0044 3046     		mov	r0, r6
 782              	.LBB76:
 783              	.LBB75:
 784              		.loc 2 62 0
 785 0046 2360     		str	r3, [r4]
 786 0048 5C60     		str	r4, [r3, #4]
 787              	.LBE75:
 788              	.LBE76:
 789              		.loc 1 353 0
 790 004a A660     		str	r6, [r4, #8]
 791              		.loc 1 354 0
 792 004c E260     		str	r2, [r4, #12]
 793              		.loc 1 355 0
 794 004e 3464     		str	r4, [r6, #64]
 795              		.loc 1 356 0
 796 0050 FFF7FEFF 		bl	chSchReadyI
 797              	.LVL68:
 798              	.LBE72:
ARM GAS  /tmp/cc8oKFvA.s 			page 15


 799              		.loc 1 361 0
 800 0054 2046     		mov	r0, r4
 801 0056 70BD     		pop	{r4, r5, r6, pc}
 802              	.LVL69:
 803              	.L72:
 804              		.loc 1 359 0
 805 0058 0023     		movs	r3, #0
 806 005a A360     		str	r3, [r4, #8]
 807              		.loc 1 361 0
 808 005c 2046     		mov	r0, r4
 809 005e 70BD     		pop	{r4, r5, r6, pc}
 810              	.LVL70:
 811              	.L82:
 812              		.loc 1 322 0 discriminator 1
 813 0060 0448     		ldr	r0, .L83+8
 814 0062 FFF7FEFF 		bl	chDbgPanic
 815              	.LVL71:
 816 0066 2C6C     		ldr	r4, [r5, #64]
 817 0068 D1E7     		b	.L70
 818              	.L84:
 819 006a 00BF     		.align	2
 820              	.L83:
 821 006c 00000000 		.word	rlist
 822 0070 98000000 		.word	.LC8
 823 0074 84000000 		.word	.LC7
 824              		.cfi_endproc
 825              	.LFE13:
 826              		.size	chMtxUnlockS, .-chMtxUnlockS
 827              		.section	.text.chMtxUnlockAll,"ax",%progbits
 828              		.align	2
 829              		.p2align 4,,15
 830              		.global	chMtxUnlockAll
 831              		.thumb
 832              		.thumb_func
 833              		.type	chMtxUnlockAll, %function
 834              	chMtxUnlockAll:
 835              	.LFB14:
 836              		.loc 1 374 0
 837              		.cfi_startproc
 838              		@ args = 0, pretend = 0, frame = 0
 839              		@ frame_needed = 0, uses_anonymous_args = 0
 840              		.loc 1 375 0
 841 0000 154A     		ldr	r2, .L97
 842              		.loc 1 374 0
 843 0002 70B5     		push	{r4, r5, r6, lr}
 844              		.cfi_def_cfa_offset 16
 845              		.cfi_offset 4, -16
 846              		.cfi_offset 5, -12
 847              		.cfi_offset 6, -8
 848              		.cfi_offset 14, -4
 849              	.LBB77:
 850              		.loc 1 377 0
 851 0004 2023     		movs	r3, #32
 852              	.LBE77:
 853              		.loc 1 375 0
 854 0006 9469     		ldr	r4, [r2, #24]
 855              	.LVL72:
ARM GAS  /tmp/cc8oKFvA.s 			page 16


 856              	.LBB78:
 857              		.loc 1 377 0
 858              	@ 377 "../../ChibiOS_2.6.5/os/kernel/src/chmtx.c" 1
 859 0008 83F31188 		msr     BASEPRI, r3
 860              	@ 0 "" 2
 861              		.thumb
 862              	.LBE78:
 863 000c FFF7FEFF 		bl	dbg_check_lock
 864              	.LVL73:
 865              		.loc 1 378 0
 866 0010 236C     		ldr	r3, [r4, #64]
 867 0012 D3B1     		cbz	r3, .L86
 868              	.LBB79:
 869              		.loc 1 390 0
 870 0014 0026     		movs	r6, #0
 871 0016 0AE0     		b	.L89
 872              	.LVL74:
 873              	.L96:
 874              	.LBB80:
 875              	.LBB81:
 876              	.LBB82:
 877              		.loc 2 62 0
 878 0018 1168     		ldr	r1, [r2]
 879              	.LBE82:
 880              	.LBE81:
 881              		.loc 1 385 0
 882 001a 156C     		ldr	r5, [r2, #64]
 883              	.LBB84:
 884              	.LBB83:
 885              		.loc 2 62 0
 886 001c 1960     		str	r1, [r3]
 887 001e 4B60     		str	r3, [r1, #4]
 888              	.LBE83:
 889              	.LBE84:
 890              		.loc 1 384 0
 891 0020 9A60     		str	r2, [r3, #8]
 892              		.loc 1 385 0
 893 0022 DD60     		str	r5, [r3, #12]
 894              		.loc 1 386 0
 895 0024 1364     		str	r3, [r2, #64]
 896              		.loc 1 387 0
 897 0026 FFF7FEFF 		bl	chSchReadyI
 898              	.LVL75:
 899              	.LBE80:
 900              	.LBE79:
 901              		.loc 1 391 0
 902 002a 236C     		ldr	r3, [r4, #64]
 903 002c 4BB1     		cbz	r3, .L95
 904              	.L89:
 905              	.LVL76:
 906              	.LBB86:
 907              		.loc 1 382 0
 908 002e 1A68     		ldr	r2, [r3]
 909              	.LVL77:
 910              		.loc 1 381 0
 911 0030 D968     		ldr	r1, [r3, #12]
 912 0032 2164     		str	r1, [r4, #64]
ARM GAS  /tmp/cc8oKFvA.s 			page 17


 913              		.loc 1 382 0
 914 0034 9A42     		cmp	r2, r3
 915              	.LBB85:
 916              		.loc 1 387 0
 917 0036 1046     		mov	r0, r2
 918              	.LBE85:
 919              		.loc 1 382 0
 920 0038 EED1     		bne	.L96
 921              		.loc 1 390 0
 922 003a 9E60     		str	r6, [r3, #8]
 923              	.LBE86:
 924              		.loc 1 391 0
 925 003c 236C     		ldr	r3, [r4, #64]
 926              	.LVL78:
 927 003e 002B     		cmp	r3, #0
 928 0040 F5D1     		bne	.L89
 929              	.LVL79:
 930              	.L95:
 931              		.loc 1 392 0
 932 0042 636C     		ldr	r3, [r4, #68]
 933 0044 A360     		str	r3, [r4, #8]
 934              		.loc 1 393 0
 935 0046 FFF7FEFF 		bl	chSchRescheduleS
 936              	.LVL80:
 937              	.L86:
 938              		.loc 1 395 0
 939 004a FFF7FEFF 		bl	dbg_check_unlock
 940              	.LVL81:
 941              	.LBB87:
 942 004e 0023     		movs	r3, #0
 943              	@ 395 "../../ChibiOS_2.6.5/os/kernel/src/chmtx.c" 1
 944 0050 83F31188 		msr     BASEPRI, r3
 945              	@ 0 "" 2
 946              		.thumb
 947 0054 70BD     		pop	{r4, r5, r6, pc}
 948              	.LVL82:
 949              	.L98:
 950 0056 00BF     		.align	2
 951              	.L97:
 952 0058 00000000 		.word	rlist
 953              	.LBE87:
 954              		.cfi_endproc
 955              	.LFE14:
 956              		.size	chMtxUnlockAll, .-chMtxUnlockAll
 957              		.section	.rodata.str1.4,"aMS",%progbits,1
 958              		.align	2
 959              	.LC0:
 960 0000 2263684D 		.ascii	"\"chMtxInit\"()\000"
 960      7478496E 
 960      69742228 
 960      2900
 961 000e 0000     		.space	2
 962              	.LC1:
 963 0010 2263684D 		.ascii	"\"chMtxLockS\"()\000"
 963      74784C6F 
 963      636B5322 
 963      282900
ARM GAS  /tmp/cc8oKFvA.s 			page 18


 964 001f 00       		.space	1
 965              	.LC2:
 966 0020 63684D74 		.ascii	"chMtxLockS(), #1\000"
 966      784C6F63 
 966      6B532829 
 966      2C202331 
 966      00
 967 0031 000000   		.space	3
 968              	.LC3:
 969 0034 63684D74 		.ascii	"chMtxLockS(), #2\000"
 969      784C6F63 
 969      6B532829 
 969      2C202332 
 969      00
 970 0045 000000   		.space	3
 971              	.LC4:
 972 0048 2263684D 		.ascii	"\"chMtxTryLockS\"()\000"
 972      74785472 
 972      794C6F63 
 972      6B532228 
 972      2900
 973 005a 0000     		.space	2
 974              	.LC5:
 975 005c 63684D74 		.ascii	"chMtxUnlock(), #1\000"
 975      78556E6C 
 975      6F636B28 
 975      292C2023 
 975      3100
 976 006e 0000     		.space	2
 977              	.LC6:
 978 0070 63684D74 		.ascii	"chMtxUnlock(), #2\000"
 978      78556E6C 
 978      6F636B28 
 978      292C2023 
 978      3200
 979 0082 0000     		.space	2
 980              	.LC7:
 981 0084 63684D74 		.ascii	"chMtxUnlockS(), #1\000"
 981      78556E6C 
 981      6F636B53 
 981      28292C20 
 981      233100
 982 0097 00       		.space	1
 983              	.LC8:
 984 0098 63684D74 		.ascii	"chMtxUnlockS(), #2\000"
 984      78556E6C 
 984      6F636B53 
 984      28292C20 
 984      233200
 985              		.text
 986              	.Letext0:
 987              		.file 3 "/usr/include/newlib/machine/_default_types.h"
 988              		.file 4 "/usr/include/newlib/sys/_stdint.h"
 989              		.file 5 "../../ChibiOS_2.6.5/os/ports/GCC/ARMCMx/chtypes.h"
 990              		.file 6 "../../ChibiOS_2.6.5/os/kernel/include/chlists.h"
 991              		.file 7 "../../ChibiOS_2.6.5/os/kernel/include/chthreads.h"
 992              		.file 8 "../../ChibiOS_2.6.5/os/ports/GCC/ARMCMx/chcore_v7m.h"
ARM GAS  /tmp/cc8oKFvA.s 			page 19


 993              		.file 9 "../../ChibiOS_2.6.5/os/kernel/include/chschd.h"
 994              		.file 10 "../../ChibiOS_2.6.5/os/kernel/include/chmtx.h"
 995              		.file 11 "../../ChibiOS_2.6.5/os/kernel/include/chdebug.h"