ARM GAS  /tmp/ccWjGpqs.s 			page 1


   1              		.syntax unified
   2              		.cpu cortex-m4
   3              		.fpu softvfp
   4              		.eabi_attribute 20, 1
   5              		.eabi_attribute 21, 1
   6              		.eabi_attribute 23, 3
   7              		.eabi_attribute 24, 1
   8              		.eabi_attribute 25, 1
   9              		.eabi_attribute 26, 1
  10              		.eabi_attribute 30, 2
  11              		.eabi_attribute 34, 1
  12              		.eabi_attribute 18, 4
  13              		.thumb
  14              		.file	"chregistry.c"
  15              		.text
  16              	.Ltext0:
  17              		.cfi_sections	.debug_frame
  18              		.section	.text.chRegFirstThread,"ax",%progbits
  19              		.align	2
  20              		.p2align 4,,15
  21              		.global	chRegFirstThread
  22              		.thumb
  23              		.thumb_func
  24              		.type	chRegFirstThread, %function
  25              	chRegFirstThread:
  26              	.LFB7:
  27              		.file 1 "../../ChibiOS_2.6.5/os/kernel/src/chregistry.c"
  28              		.loc 1 117 0
  29              		.cfi_startproc
  30              		@ args = 0, pretend = 0, frame = 0
  31              		@ frame_needed = 0, uses_anonymous_args = 0
  32 0000 10B5     		push	{r4, lr}
  33              		.cfi_def_cfa_offset 8
  34              		.cfi_offset 4, -8
  35              		.cfi_offset 14, -4
  36              	.LBB2:
  37              		.loc 1 120 0
  38 0002 2023     		movs	r3, #32
  39              	@ 120 "../../ChibiOS_2.6.5/os/kernel/src/chregistry.c" 1
  40 0004 83F31188 		msr     BASEPRI, r3
  41              	@ 0 "" 2
  42              		.thumb
  43              	.LBE2:
  44 0008 FFF7FEFF 		bl	dbg_check_lock
  45              	.LVL0:
  46              		.loc 1 121 0
  47 000c 064B     		ldr	r3, .L3
  48 000e 1C69     		ldr	r4, [r3, #16]
  49              	.LVL1:
  50              		.loc 1 123 0
  51 0010 94F82230 		ldrb	r3, [r4, #34]	@ zero_extendqisi2
  52 0014 0133     		adds	r3, r3, #1
  53 0016 84F82230 		strb	r3, [r4, #34]
  54              		.loc 1 125 0
  55 001a FFF7FEFF 		bl	dbg_check_unlock
  56              	.LVL2:
  57              	.LBB3:
ARM GAS  /tmp/ccWjGpqs.s 			page 2


  58 001e 0023     		movs	r3, #0
  59              	@ 125 "../../ChibiOS_2.6.5/os/kernel/src/chregistry.c" 1
  60 0020 83F31188 		msr     BASEPRI, r3
  61              	@ 0 "" 2
  62              		.thumb
  63              	.LBE3:
  64              		.loc 1 127 0
  65 0024 2046     		mov	r0, r4
  66 0026 10BD     		pop	{r4, pc}
  67              	.LVL3:
  68              	.L4:
  69              		.align	2
  70              	.L3:
  71 0028 00000000 		.word	rlist
  72              		.cfi_endproc
  73              	.LFE7:
  74              		.size	chRegFirstThread, .-chRegFirstThread
  75              		.section	.text.chRegNextThread,"ax",%progbits
  76              		.align	2
  77              		.p2align 4,,15
  78              		.global	chRegNextThread
  79              		.thumb
  80              		.thumb_func
  81              		.type	chRegNextThread, %function
  82              	chRegNextThread:
  83              	.LFB8:
  84              		.loc 1 140 0
  85              		.cfi_startproc
  86              		@ args = 0, pretend = 0, frame = 0
  87              		@ frame_needed = 0, uses_anonymous_args = 0
  88              	.LVL4:
  89 0000 38B5     		push	{r3, r4, r5, lr}
  90              		.cfi_def_cfa_offset 16
  91              		.cfi_offset 3, -16
  92              		.cfi_offset 4, -12
  93              		.cfi_offset 5, -8
  94              		.cfi_offset 14, -4
  95              		.loc 1 140 0
  96 0002 0546     		mov	r5, r0
  97              	.LBB4:
  98              		.loc 1 143 0
  99 0004 2023     		movs	r3, #32
 100              	@ 143 "../../ChibiOS_2.6.5/os/kernel/src/chregistry.c" 1
 101 0006 83F31188 		msr     BASEPRI, r3
 102              	@ 0 "" 2
 103              		.thumb
 104              	.LBE4:
 105 000a FFF7FEFF 		bl	dbg_check_lock
 106              	.LVL5:
 107              		.loc 1 144 0
 108 000e 2C69     		ldr	r4, [r5, #16]
 109              	.LVL6:
 110              		.loc 1 145 0
 111 0010 0D4B     		ldr	r3, .L12
 112 0012 9C42     		cmp	r4, r3
 113 0014 16D0     		beq	.L8
 114              		.loc 1 149 0
ARM GAS  /tmp/ccWjGpqs.s 			page 3


 115 0016 94F82230 		ldrb	r3, [r4, #34]	@ zero_extendqisi2
 116 001a FF2B     		cmp	r3, #255
 117 001c 0CD0     		beq	.L11
 118              	.L7:
 119              		.loc 1 151 0
 120 001e 0133     		adds	r3, r3, #1
 121 0020 84F82230 		strb	r3, [r4, #34]
 122              	.LVL7:
 123              	.L6:
 124              		.loc 1 154 0
 125 0024 FFF7FEFF 		bl	dbg_check_unlock
 126              	.LVL8:
 127              	.LBB5:
 128 0028 0023     		movs	r3, #0
 129              	@ 154 "../../ChibiOS_2.6.5/os/kernel/src/chregistry.c" 1
 130 002a 83F31188 		msr     BASEPRI, r3
 131              	@ 0 "" 2
 132              		.thumb
 133              	.LBE5:
 134              		.loc 1 156 0
 135 002e 2846     		mov	r0, r5
 136 0030 FFF7FEFF 		bl	chThdRelease
 137              	.LVL9:
 138              		.loc 1 159 0
 139 0034 2046     		mov	r0, r4
 140 0036 38BD     		pop	{r3, r4, r5, pc}
 141              	.LVL10:
 142              	.L11:
 143              		.loc 1 149 0 discriminator 1
 144 0038 0448     		ldr	r0, .L12+4
 145 003a FFF7FEFF 		bl	chDbgPanic
 146              	.LVL11:
 147 003e 94F82230 		ldrb	r3, [r4, #34]	@ zero_extendqisi2
 148 0042 ECE7     		b	.L7
 149              	.L8:
 150              		.loc 1 146 0
 151 0044 0024     		movs	r4, #0
 152              	.LVL12:
 153 0046 EDE7     		b	.L6
 154              	.L13:
 155              		.align	2
 156              	.L12:
 157 0048 00000000 		.word	rlist
 158 004c 00000000 		.word	.LC0
 159              		.cfi_endproc
 160              	.LFE8:
 161              		.size	chRegNextThread, .-chRegNextThread
 162              		.global	ch_debug
 163              		.section	.rodata.ch_debug,"a",%progbits
 164              		.align	2
 165              		.type	ch_debug, %object
 166              		.size	ch_debug, 22
 167              	ch_debug:
 168 0000 6D61696E 		.ascii	"main"
 169 0004 00       		.byte	0
 170 0005 16       		.byte	22
 171 0006 8511     		.short	4485
ARM GAS  /tmp/ccWjGpqs.s 			page 4


 172 0008 04       		.byte	4
 173 0009 04       		.byte	4
 174 000a 4C       		.byte	76
 175 000b 08       		.byte	8
 176 000c 0C       		.byte	12
 177 000d 10       		.byte	16
 178 000e 14       		.byte	20
 179 000f 18       		.byte	24
 180 0010 1C       		.byte	28
 181 0011 20       		.byte	32
 182 0012 21       		.byte	33
 183 0013 22       		.byte	34
 184 0014 23       		.byte	35
 185 0015 24       		.byte	36
 186              		.section	.rodata.str1.4,"aMS",%progbits,1
 187              		.align	2
 188              	.LC0:
 189 0000 63685265 		.ascii	"chRegNextThread(), #1\000"
 189      674E6578 
 189      74546872 
 189      65616428 
 189      292C2023 
 190              		.text
 191              	.Letext0:
 192              		.file 2 "/usr/lib/gcc/arm-none-eabi/4.9.3/include/stddef.h"
 193              		.file 3 "/usr/include/newlib/machine/_default_types.h"
 194              		.file 4 "/usr/include/newlib/sys/_stdint.h"
 195              		.file 5 "../../ChibiOS_2.6.5/os/ports/GCC/ARMCMx/chtypes.h"
 196              		.file 6 "../../ChibiOS_2.6.5/os/kernel/include/chlists.h"
 197              		.file 7 "../../ChibiOS_2.6.5/os/kernel/include/chthreads.h"
 198              		.file 8 "../../ChibiOS_2.6.5/os/ports/GCC/ARMCMx/chcore_v7m.h"
 199              		.file 9 "../../ChibiOS_2.6.5/os/kernel/include/chschd.h"
 200              		.file 10 "../../ChibiOS_2.6.5/os/kernel/include/chmtx.h"
 201              		.file 11 "../../ChibiOS_2.6.5/os/kernel/include/chregistry.h"
 202              		.file 12 "../../ChibiOS_2.6.5/os/kernel/include/chdebug.h"
 203              		.file 13 "../../ChibiOS_2.6.5/os/kernel/include/chdynamic.h"