ARM GAS  /tmp/cccrq7ad.s 			page 1


   1              		.syntax unified
   2              		.cpu cortex-m4
   3              		.fpu softvfp
   4              		.eabi_attribute 20, 1
   5              		.eabi_attribute 21, 1
   6              		.eabi_attribute 23, 3
   7              		.eabi_attribute 24, 1
   8              		.eabi_attribute 25, 1
   9              		.eabi_attribute 26, 1
  10              		.eabi_attribute 30, 2
  11              		.eabi_attribute 34, 1
  12              		.eabi_attribute 18, 4
  13              		.thumb
  14              		.file	"chschd.c"
  15              		.text
  16              	.Ltext0:
  17              		.cfi_sections	.debug_frame
  18              		.section	.text._scheduler_init,"ax",%progbits
  19              		.align	2
  20              		.p2align 4,,15
  21              		.global	_scheduler_init
  22              		.thumb
  23              		.thumb_func
  24              		.type	_scheduler_init, %function
  25              	_scheduler_init:
  26              	.LFB7:
  27              		.file 1 "../../ChibiOS_2.6.5/os/kernel/src/chschd.c"
  28              		.loc 1 55 0
  29              		.cfi_startproc
  30              		@ args = 0, pretend = 0, frame = 0
  31              		@ frame_needed = 0, uses_anonymous_args = 0
  32              		@ link register save eliminated.
  33              		.loc 1 57 0
  34 0000 034B     		ldr	r3, .L2
  35              		.loc 1 58 0
  36 0002 0022     		movs	r2, #0
  37              		.loc 1 57 0
  38 0004 5B60     		str	r3, [r3, #4]
  39 0006 1B60     		str	r3, [r3]
  40              		.loc 1 60 0
  41 0008 5B61     		str	r3, [r3, #20]
  42 000a 1B61     		str	r3, [r3, #16]
  43              		.loc 1 58 0
  44 000c 9A60     		str	r2, [r3, #8]
  45 000e 7047     		bx	lr
  46              	.L3:
  47              		.align	2
  48              	.L2:
  49 0010 00000000 		.word	.LANCHOR0
  50              		.cfi_endproc
  51              	.LFE7:
  52              		.size	_scheduler_init, .-_scheduler_init
  53              		.section	.text.chSchReadyI,"ax",%progbits
  54              		.align	2
  55              		.p2align 4,,15
  56              		.global	chSchReadyI
  57              		.thumb
ARM GAS  /tmp/cccrq7ad.s 			page 2


  58              		.thumb_func
  59              		.type	chSchReadyI, %function
  60              	chSchReadyI:
  61              	.LFB8:
  62              		.loc 1 81 0
  63              		.cfi_startproc
  64              		@ args = 0, pretend = 0, frame = 0
  65              		@ frame_needed = 0, uses_anonymous_args = 0
  66              	.LVL0:
  67 0000 10B5     		push	{r4, lr}
  68              		.cfi_def_cfa_offset 8
  69              		.cfi_offset 4, -8
  70              		.cfi_offset 14, -4
  71              		.loc 1 81 0
  72 0002 0446     		mov	r4, r0
  73              		.loc 1 84 0
  74 0004 FFF7FEFF 		bl	chDbgCheckClassI
  75              	.LVL1:
  76              		.loc 1 87 0
  77 0008 94F82030 		ldrb	r3, [r4, #32]	@ zero_extendqisi2
  78 000c 8BB1     		cbz	r3, .L5
  79              		.loc 1 87 0 is_stmt 0 discriminator 2
  80 000e 0E2B     		cmp	r3, #14
  81 0010 0FD0     		beq	.L5
  82              	.L6:
  83              		.loc 1 92 0 is_stmt 1
  84 0012 0022     		movs	r2, #0
  85 0014 A168     		ldr	r1, [r4, #8]
  86              		.loc 1 93 0
  87 0016 094B     		ldr	r3, .L14
  88              		.loc 1 92 0
  89 0018 84F82020 		strb	r2, [r4, #32]
  90              	.LVL2:
  91              	.L7:
  92              		.loc 1 95 0 discriminator 1
  93 001c 1B68     		ldr	r3, [r3]
  94              	.LVL3:
  95              		.loc 1 96 0 discriminator 1
  96 001e 9A68     		ldr	r2, [r3, #8]
  97 0020 8A42     		cmp	r2, r1
  98 0022 FBD2     		bcs	.L7
  99              		.loc 1 99 0
 100 0024 5A68     		ldr	r2, [r3, #4]
 101 0026 6260     		str	r2, [r4, #4]
 102              		.loc 1 98 0
 103 0028 2360     		str	r3, [r4]
 104              		.loc 1 102 0
 105 002a 2046     		mov	r0, r4
 106              		.loc 1 100 0
 107 002c 5C60     		str	r4, [r3, #4]
 108 002e 1460     		str	r4, [r2]
 109              		.loc 1 102 0
 110 0030 10BD     		pop	{r4, pc}
 111              	.LVL4:
 112              	.L5:
 113              		.loc 1 87 0 discriminator 3
 114 0032 0348     		ldr	r0, .L14+4
ARM GAS  /tmp/cccrq7ad.s 			page 3


 115 0034 FFF7FEFF 		bl	chDbgPanic
 116              	.LVL5:
 117 0038 EBE7     		b	.L6
 118              	.L15:
 119 003a 00BF     		.align	2
 120              	.L14:
 121 003c 00000000 		.word	.LANCHOR0
 122 0040 00000000 		.word	.LC0
 123              		.cfi_endproc
 124              	.LFE8:
 125              		.size	chSchReadyI, .-chSchReadyI
 126              		.section	.text.wakeup,"ax",%progbits
 127              		.align	2
 128              		.p2align 4,,15
 129              		.thumb
 130              		.thumb_func
 131              		.type	wakeup, %function
 132              	wakeup:
 133              	.LFB10:
 134              		.loc 1 136 0
 135              		.cfi_startproc
 136              		@ args = 0, pretend = 0, frame = 0
 137              		@ frame_needed = 0, uses_anonymous_args = 0
 138              	.LVL6:
 139 0000 10B5     		push	{r4, lr}
 140              		.cfi_def_cfa_offset 8
 141              		.cfi_offset 4, -8
 142              		.cfi_offset 14, -4
 143              	.LBB32:
 144              		.loc 1 139 0
 145 0002 2023     		movs	r3, #32
 146              	.LBE32:
 147              		.loc 1 136 0
 148 0004 0446     		mov	r4, r0
 149              	.LBB33:
 150              		.loc 1 139 0
 151              	@ 139 "../../ChibiOS_2.6.5/os/kernel/src/chschd.c" 1
 152 0006 83F31188 		msr     BASEPRI, r3
 153              	@ 0 "" 2
 154              		.thumb
 155              	.LBE33:
 156 000a FFF7FEFF 		bl	dbg_check_lock_from_isr
 157              	.LVL7:
 158              		.loc 1 140 0
 159 000e 94F82030 		ldrb	r3, [r4, #32]	@ zero_extendqisi2
 160 0012 0D2B     		cmp	r3, #13
 161 0014 11D8     		bhi	.L17
 162 0016 DFE803F0 		tbb	[pc, r3]
 163              	.L19:
 164 001a 16       		.byte	(.L24-.L19)/2
 165 001b 10       		.byte	(.L17-.L19)/2
 166 001c 10       		.byte	(.L17-.L19)/2
 167 001d 07       		.byte	(.L20-.L19)/2
 168 001e 10       		.byte	(.L17-.L19)/2
 169 001f 0B       		.byte	(.L21-.L19)/2
 170 0020 10       		.byte	(.L17-.L19)/2
 171 0021 10       		.byte	(.L17-.L19)/2
ARM GAS  /tmp/cccrq7ad.s 			page 4


 172 0022 10       		.byte	(.L17-.L19)/2
 173 0023 10       		.byte	(.L17-.L19)/2
 174 0024 10       		.byte	(.L17-.L19)/2
 175 0025 10       		.byte	(.L17-.L19)/2
 176 0026 10       		.byte	(.L17-.L19)/2
 177 0027 0B       		.byte	(.L21-.L19)/2
 178              		.p2align 1
 179              	.L20:
 180              		.loc 1 150 0
 181 0028 A26A     		ldr	r2, [r4, #40]
 182 002a 9368     		ldr	r3, [r2, #8]
 183 002c 0133     		adds	r3, r3, #1
 184 002e 9360     		str	r3, [r2, #8]
 185              	.L21:
 186              	.LVL8:
 187              	.LBB34:
 188              	.LBB35:
 189              		.file 2 "../../ChibiOS_2.6.5/os/kernel/include/chinline.h"
 190              		.loc 2 75 0
 191 0030 94E80C00 		ldmia	r4, {r2, r3}
 192 0034 1A60     		str	r2, [r3]
 193              		.loc 2 76 0
 194 0036 2268     		ldr	r2, [r4]
 195 0038 5360     		str	r3, [r2, #4]
 196              	.LVL9:
 197              	.L17:
 198              	.LBE35:
 199              	.LBE34:
 200              		.loc 1 163 0
 201 003a 4FF0FF33 		mov	r3, #-1
 202 003e A362     		str	r3, [r4, #40]
 203              		.loc 1 164 0
 204 0040 2046     		mov	r0, r4
 205 0042 FFF7FEFF 		bl	chSchReadyI
 206              	.LVL10:
 207              	.L24:
 208              		.loc 1 165 0
 209 0046 FFF7FEFF 		bl	dbg_check_unlock_from_isr
 210              	.LVL11:
 211              	.LBB36:
 212 004a 0023     		movs	r3, #0
 213              	@ 165 "../../ChibiOS_2.6.5/os/kernel/src/chschd.c" 1
 214 004c 83F31188 		msr     BASEPRI, r3
 215              	@ 0 "" 2
 216              		.thumb
 217 0050 10BD     		pop	{r4, pc}
 218              	.LBE36:
 219              		.cfi_endproc
 220              	.LFE10:
 221              		.size	wakeup, .-wakeup
 222 0052 00BF     		.section	.text.chSchGoSleepS,"ax",%progbits
 223              		.align	2
 224              		.p2align 4,,15
 225              		.global	chSchGoSleepS
 226              		.thumb
 227              		.thumb_func
 228              		.type	chSchGoSleepS, %function
ARM GAS  /tmp/cccrq7ad.s 			page 5


 229              	chSchGoSleepS:
 230              	.LFB9:
 231              		.loc 1 115 0
 232              		.cfi_startproc
 233              		@ args = 0, pretend = 0, frame = 0
 234              		@ frame_needed = 0, uses_anonymous_args = 0
 235              	.LVL12:
 236 0000 70B5     		push	{r4, r5, r6, lr}
 237              		.cfi_def_cfa_offset 16
 238              		.cfi_offset 4, -16
 239              		.cfi_offset 5, -12
 240              		.cfi_offset 6, -8
 241              		.cfi_offset 14, -4
 242              		.loc 1 120 0
 243 0002 114C     		ldr	r4, .L28
 244              		.loc 1 115 0
 245 0004 0646     		mov	r6, r0
 246              		.loc 1 118 0
 247 0006 FFF7FEFF 		bl	chDbgCheckClassS
 248              	.LVL13:
 249              	.LBB37:
 250              	.LBB38:
 251              		.loc 2 60 0
 252 000a 2368     		ldr	r3, [r4]
 253              	.LBE38:
 254              	.LBE37:
 255              		.loc 1 120 0
 256 000c A569     		ldr	r5, [r4, #24]
 257              	.LVL14:
 258              	.LBB42:
 259              	.LBB39:
 260              		.loc 2 62 0
 261 000e 1A68     		ldr	r2, [r3]
 262              	.LBE39:
 263              	.LBE42:
 264              		.loc 1 120 0
 265 0010 85F82060 		strb	r6, [r5, #32]
 266              		.loc 1 124 0
 267 0014 1420     		movs	r0, #20
 268              		.loc 1 127 0
 269 0016 0121     		movs	r1, #1
 270              		.loc 1 124 0
 271 0018 85F82300 		strb	r0, [r5, #35]
 272              	.LVL15:
 273              	.LBB43:
 274              	.LBB40:
 275              		.loc 2 62 0
 276 001c 5460     		str	r4, [r2, #4]
 277              	.LBE40:
 278              	.LBE43:
 279              		.loc 1 128 0
 280 001e 2846     		mov	r0, r5
 281              		.loc 1 127 0
 282 0020 83F82010 		strb	r1, [r3, #32]
 283              	.LBB44:
 284              	.LBB41:
 285              		.loc 2 62 0
ARM GAS  /tmp/cccrq7ad.s 			page 6


 286 0024 2260     		str	r2, [r4]
 287              	.LBE41:
 288              	.LBE44:
 289              		.loc 1 126 0
 290 0026 A361     		str	r3, [r4, #24]
 291              		.loc 1 128 0
 292 0028 FFF7FEFF 		bl	dbg_trace
 293              	.LVL16:
 294              	.LBB45:
 295 002c EA69     		ldr	r2, [r5, #28]
 296 002e ADF12403 		sub	r3, sp, #36
 297 0032 9A42     		cmp	r2, r3
 298 0034 02D9     		bls	.L26
 299              		.loc 1 128 0 is_stmt 0 discriminator 1
 300 0036 0548     		ldr	r0, .L28+4
 301 0038 FFF7FEFF 		bl	chDbgPanic
 302              	.LVL17:
 303              	.L26:
 304              		.loc 1 128 0 discriminator 3
 305 003c A069     		ldr	r0, [r4, #24]
 306 003e 2946     		mov	r1, r5
 307              	.LBE45:
 308              		.loc 1 129 0 is_stmt 1 discriminator 3
 309 0040 BDE87040 		pop	{r4, r5, r6, lr}
 310              		.cfi_restore 14
 311              		.cfi_restore 6
 312              		.cfi_restore 5
 313              		.cfi_restore 4
 314              		.cfi_def_cfa_offset 0
 315              	.LVL18:
 316              	.LBB46:
 317              		.loc 1 128 0 discriminator 3
 318 0044 FFF7FEBF 		b	_port_switch
 319              	.LVL19:
 320              	.L29:
 321              		.align	2
 322              	.L28:
 323 0048 00000000 		.word	.LANCHOR0
 324 004c 14000000 		.word	.LC1
 325              	.LBE46:
 326              		.cfi_endproc
 327              	.LFE9:
 328              		.size	chSchGoSleepS, .-chSchGoSleepS
 329              		.section	.text.chSchGoSleepTimeoutS,"ax",%progbits
 330              		.align	2
 331              		.p2align 4,,15
 332              		.global	chSchGoSleepTimeoutS
 333              		.thumb
 334              		.thumb_func
 335              		.type	chSchGoSleepTimeoutS, %function
 336              	chSchGoSleepTimeoutS:
 337              	.LFB11:
 338              		.loc 1 189 0
 339              		.cfi_startproc
 340              		@ args = 0, pretend = 0, frame = 24
 341              		@ frame_needed = 0, uses_anonymous_args = 0
 342              	.LVL20:
ARM GAS  /tmp/cccrq7ad.s 			page 7


 343 0000 70B5     		push	{r4, r5, r6, lr}
 344              		.cfi_def_cfa_offset 16
 345              		.cfi_offset 4, -16
 346              		.cfi_offset 5, -12
 347              		.cfi_offset 6, -8
 348              		.cfi_offset 14, -4
 349 0002 0C46     		mov	r4, r1
 350 0004 86B0     		sub	sp, sp, #24
 351              		.cfi_def_cfa_offset 40
 352              		.loc 1 189 0
 353 0006 0646     		mov	r6, r0
 354              		.loc 1 191 0
 355 0008 FFF7FEFF 		bl	chDbgCheckClassS
 356              	.LVL21:
 357              		.loc 1 193 0
 358 000c 631C     		adds	r3, r4, #1
 359 000e 12D0     		beq	.L31
 360              	.LBB47:
 361              		.loc 1 196 0
 362 0010 0D4D     		ldr	r5, .L38
 363 0012 0E4A     		ldr	r2, .L38+4
 364 0014 AB69     		ldr	r3, [r5, #24]
 365 0016 2146     		mov	r1, r4
 366 0018 01A8     		add	r0, sp, #4
 367 001a FFF7FEFF 		bl	chVTSetI
 368              	.LVL22:
 369              		.loc 1 197 0
 370 001e 3046     		mov	r0, r6
 371 0020 FFF7FEFF 		bl	chSchGoSleepS
 372              	.LVL23:
 373              		.loc 1 198 0
 374 0024 049B     		ldr	r3, [sp, #16]
 375 0026 13B1     		cbz	r3, .L33
 376              		.loc 1 199 0
 377 0028 01A8     		add	r0, sp, #4
 378 002a FFF7FEFF 		bl	chVTResetI
 379              	.LVL24:
 380              	.L33:
 381              	.LBE47:
 382              		.loc 1 203 0
 383 002e AB69     		ldr	r3, [r5, #24]
 384              		.loc 1 204 0
 385 0030 986A     		ldr	r0, [r3, #40]
 386 0032 06B0     		add	sp, sp, #24
 387              		.cfi_remember_state
 388              		.cfi_def_cfa_offset 16
 389              		@ sp needed
 390 0034 70BD     		pop	{r4, r5, r6, pc}
 391              	.LVL25:
 392              	.L31:
 393              		.cfi_restore_state
 394 0036 044D     		ldr	r5, .L38
 395              		.loc 1 202 0
 396 0038 3046     		mov	r0, r6
 397 003a FFF7FEFF 		bl	chSchGoSleepS
 398              	.LVL26:
 399              		.loc 1 203 0
ARM GAS  /tmp/cccrq7ad.s 			page 8


 400 003e AB69     		ldr	r3, [r5, #24]
 401              		.loc 1 204 0
 402 0040 986A     		ldr	r0, [r3, #40]
 403 0042 06B0     		add	sp, sp, #24
 404              		.cfi_def_cfa_offset 16
 405              		@ sp needed
 406 0044 70BD     		pop	{r4, r5, r6, pc}
 407              	.LVL27:
 408              	.L39:
 409 0046 00BF     		.align	2
 410              	.L38:
 411 0048 00000000 		.word	.LANCHOR0
 412 004c 00000000 		.word	wakeup
 413              		.cfi_endproc
 414              	.LFE11:
 415              		.size	chSchGoSleepTimeoutS, .-chSchGoSleepTimeoutS
 416              		.section	.text.chSchWakeupS,"ax",%progbits
 417              		.align	2
 418              		.p2align 4,,15
 419              		.global	chSchWakeupS
 420              		.thumb
 421              		.thumb_func
 422              		.type	chSchWakeupS, %function
 423              	chSchWakeupS:
 424              	.LFB12:
 425              		.loc 1 225 0
 426              		.cfi_startproc
 427              		@ args = 0, pretend = 0, frame = 0
 428              		@ frame_needed = 0, uses_anonymous_args = 0
 429              	.LVL28:
 430 0000 70B5     		push	{r4, r5, r6, lr}
 431              		.cfi_def_cfa_offset 16
 432              		.cfi_offset 4, -16
 433              		.cfi_offset 5, -12
 434              		.cfi_offset 6, -8
 435              		.cfi_offset 14, -4
 436              		.loc 1 234 0
 437 0002 164D     		ldr	r5, .L46
 438              		.loc 1 225 0
 439 0004 0446     		mov	r4, r0
 440 0006 0E46     		mov	r6, r1
 441              		.loc 1 227 0
 442 0008 FFF7FEFF 		bl	chDbgCheckClassS
 443              	.LVL29:
 444              		.loc 1 234 0
 445 000c A869     		ldr	r0, [r5, #24]
 446 000e A268     		ldr	r2, [r4, #8]
 447 0010 8368     		ldr	r3, [r0, #8]
 448              		.loc 1 229 0
 449 0012 A662     		str	r6, [r4, #40]
 450              		.loc 1 234 0
 451 0014 9A42     		cmp	r2, r3
 452 0016 13D9     		bls	.L44
 453              	.LBB48:
 454              		.loc 1 237 0
 455 0018 FFF7FEFF 		bl	chSchReadyI
 456              	.LVL30:
ARM GAS  /tmp/cccrq7ad.s 			page 9


 457              		.loc 1 239 0
 458 001c 0123     		movs	r3, #1
 459              		.loc 1 237 0
 460 001e 0646     		mov	r6, r0
 461              	.LVL31:
 462              		.loc 1 239 0
 463 0020 84F82030 		strb	r3, [r4, #32]
 464              		.loc 1 238 0
 465 0024 AC61     		str	r4, [r5, #24]
 466              		.loc 1 240 0
 467 0026 FFF7FEFF 		bl	dbg_trace
 468              	.LVL32:
 469              	.LBB49:
 470 002a F269     		ldr	r2, [r6, #28]
 471 002c ADF12403 		sub	r3, sp, #36
 472 0030 9A42     		cmp	r2, r3
 473 0032 0AD8     		bhi	.L45
 474              		.loc 1 240 0 is_stmt 0 discriminator 3
 475 0034 2046     		mov	r0, r4
 476 0036 3146     		mov	r1, r6
 477              	.LBE49:
 478              	.LBE48:
 479              		.loc 1 242 0 is_stmt 1 discriminator 3
 480 0038 BDE87040 		pop	{r4, r5, r6, lr}
 481              		.cfi_remember_state
 482              		.cfi_restore 14
 483              		.cfi_restore 6
 484              		.cfi_restore 5
 485              		.cfi_restore 4
 486              		.cfi_def_cfa_offset 0
 487              	.LVL33:
 488              	.LBB53:
 489              	.LBB50:
 490              		.loc 1 240 0 discriminator 3
 491 003c FFF7FEBF 		b	_port_switch
 492              	.LVL34:
 493              	.L44:
 494              		.cfi_restore_state
 495              	.LBE50:
 496              	.LBE53:
 497              		.loc 1 235 0
 498 0040 2046     		mov	r0, r4
 499              		.loc 1 242 0
 500 0042 BDE87040 		pop	{r4, r5, r6, lr}
 501              		.cfi_remember_state
 502              		.cfi_restore 14
 503              		.cfi_restore 6
 504              		.cfi_restore 5
 505              		.cfi_restore 4
 506              		.cfi_def_cfa_offset 0
 507              	.LVL35:
 508              		.loc 1 235 0
 509 0046 FFF7FEBF 		b	chSchReadyI
 510              	.LVL36:
 511              	.L45:
 512              		.cfi_restore_state
 513              	.LBB54:
ARM GAS  /tmp/cccrq7ad.s 			page 10


 514              	.LBB51:
 515              		.loc 1 240 0 discriminator 1
 516 004a 0548     		ldr	r0, .L46+4
 517 004c FFF7FEFF 		bl	chDbgPanic
 518              	.LVL37:
 519 0050 2046     		mov	r0, r4
 520 0052 3146     		mov	r1, r6
 521              	.LBE51:
 522              	.LBE54:
 523              		.loc 1 242 0 discriminator 1
 524 0054 BDE87040 		pop	{r4, r5, r6, lr}
 525              		.cfi_restore 4
 526              		.cfi_restore 5
 527              		.cfi_restore 6
 528              		.cfi_restore 14
 529              		.cfi_def_cfa_offset 0
 530              	.LVL38:
 531              	.LBB55:
 532              	.LBB52:
 533              		.loc 1 240 0 discriminator 1
 534 0058 FFF7FEBF 		b	_port_switch
 535              	.LVL39:
 536              	.L47:
 537              		.align	2
 538              	.L46:
 539 005c 00000000 		.word	.LANCHOR0
 540 0060 14000000 		.word	.LC1
 541              	.LBE52:
 542              	.LBE55:
 543              		.cfi_endproc
 544              	.LFE12:
 545              		.size	chSchWakeupS, .-chSchWakeupS
 546              		.section	.text.chSchDoRescheduleBehind,"ax",%progbits
 547              		.align	2
 548              		.p2align 4,,15
 549              		.global	chSchDoRescheduleBehind
 550              		.thumb
 551              		.thumb_func
 552              		.type	chSchDoRescheduleBehind, %function
 553              	chSchDoRescheduleBehind:
 554              	.LFB14:
 555              		.loc 1 304 0
 556              		.cfi_startproc
 557              		@ args = 0, pretend = 0, frame = 0
 558              		@ frame_needed = 0, uses_anonymous_args = 0
 559 0000 70B5     		push	{r4, r5, r6, lr}
 560              		.cfi_def_cfa_offset 16
 561              		.cfi_offset 4, -16
 562              		.cfi_offset 5, -12
 563              		.cfi_offset 6, -8
 564              		.cfi_offset 14, -4
 565              		.loc 1 307 0
 566 0002 104C     		ldr	r4, .L51
 567              	.LBB56:
 568              	.LBB57:
 569              		.loc 2 60 0
 570 0004 2368     		ldr	r3, [r4]
ARM GAS  /tmp/cccrq7ad.s 			page 11


 571              	.LBE57:
 572              	.LBE56:
 573              		.loc 1 307 0
 574 0006 A569     		ldr	r5, [r4, #24]
 575              	.LVL40:
 576              	.LBB60:
 577              	.LBB58:
 578              		.loc 2 62 0
 579 0008 1A68     		ldr	r2, [r3]
 580 000a 2260     		str	r2, [r4]
 581              	.LBE58:
 582              	.LBE60:
 583              		.loc 1 312 0
 584 000c 1421     		movs	r1, #20
 585              		.loc 1 310 0
 586 000e 0126     		movs	r6, #1
 587              	.LBB61:
 588              	.LBB59:
 589              		.loc 2 62 0
 590 0010 5460     		str	r4, [r2, #4]
 591              	.LBE59:
 592              	.LBE61:
 593              		.loc 1 314 0
 594 0012 2846     		mov	r0, r5
 595              		.loc 1 310 0
 596 0014 83F82060 		strb	r6, [r3, #32]
 597              		.loc 1 312 0
 598 0018 85F82310 		strb	r1, [r5, #35]
 599              		.loc 1 309 0
 600 001c A361     		str	r3, [r4, #24]
 601              		.loc 1 314 0
 602 001e FFF7FEFF 		bl	chSchReadyI
 603              	.LVL41:
 604              		.loc 1 315 0
 605 0022 2846     		mov	r0, r5
 606 0024 FFF7FEFF 		bl	dbg_trace
 607              	.LVL42:
 608              	.LBB62:
 609 0028 EA69     		ldr	r2, [r5, #28]
 610 002a ADF12403 		sub	r3, sp, #36
 611 002e 9A42     		cmp	r2, r3
 612 0030 02D9     		bls	.L49
 613              		.loc 1 315 0 is_stmt 0 discriminator 1
 614 0032 0548     		ldr	r0, .L51+4
 615 0034 FFF7FEFF 		bl	chDbgPanic
 616              	.LVL43:
 617              	.L49:
 618              		.loc 1 315 0 discriminator 3
 619 0038 A069     		ldr	r0, [r4, #24]
 620 003a 2946     		mov	r1, r5
 621              	.LBE62:
 622              		.loc 1 316 0 is_stmt 1 discriminator 3
 623 003c BDE87040 		pop	{r4, r5, r6, lr}
 624              		.cfi_restore 14
 625              		.cfi_restore 6
 626              		.cfi_restore 5
 627              		.cfi_restore 4
ARM GAS  /tmp/cccrq7ad.s 			page 12


 628              		.cfi_def_cfa_offset 0
 629              	.LVL44:
 630              	.LBB63:
 631              		.loc 1 315 0 discriminator 3
 632 0040 FFF7FEBF 		b	_port_switch
 633              	.LVL45:
 634              	.L52:
 635              		.align	2
 636              	.L51:
 637 0044 00000000 		.word	.LANCHOR0
 638 0048 14000000 		.word	.LC1
 639              	.LBE63:
 640              		.cfi_endproc
 641              	.LFE14:
 642              		.size	chSchDoRescheduleBehind, .-chSchDoRescheduleBehind
 643              		.section	.text.chSchDoRescheduleAhead,"ax",%progbits
 644              		.align	2
 645              		.p2align 4,,15
 646              		.global	chSchDoRescheduleAhead
 647              		.thumb
 648              		.thumb_func
 649              		.type	chSchDoRescheduleAhead, %function
 650              	chSchDoRescheduleAhead:
 651              	.LFB15:
 652              		.loc 1 329 0
 653              		.cfi_startproc
 654              		@ args = 0, pretend = 0, frame = 0
 655              		@ frame_needed = 0, uses_anonymous_args = 0
 656 0000 70B5     		push	{r4, r5, r6, lr}
 657              		.cfi_def_cfa_offset 16
 658              		.cfi_offset 4, -16
 659              		.cfi_offset 5, -12
 660              		.cfi_offset 6, -8
 661              		.cfi_offset 14, -4
 662              		.loc 1 332 0
 663 0002 154D     		ldr	r5, .L59
 664              	.LBB64:
 665              	.LBB65:
 666              		.loc 2 60 0
 667 0004 2A68     		ldr	r2, [r5]
 668              	.LBE65:
 669              	.LBE64:
 670              		.loc 1 332 0
 671 0006 AC69     		ldr	r4, [r5, #24]
 672              	.LVL46:
 673              	.LBB68:
 674              	.LBB66:
 675              		.loc 2 62 0
 676 0008 1368     		ldr	r3, [r2]
 677 000a A068     		ldr	r0, [r4, #8]
 678 000c 2B60     		str	r3, [r5]
 679              	.LBE66:
 680              	.LBE68:
 681              		.loc 1 335 0
 682 000e 0126     		movs	r6, #1
 683              		.loc 1 337 0
 684 0010 0021     		movs	r1, #0
ARM GAS  /tmp/cccrq7ad.s 			page 13


 685              	.LBB69:
 686              	.LBB67:
 687              		.loc 2 62 0
 688 0012 5D60     		str	r5, [r3, #4]
 689              	.LBE67:
 690              	.LBE69:
 691              		.loc 1 335 0
 692 0014 82F82060 		strb	r6, [r2, #32]
 693              		.loc 1 337 0
 694 0018 1346     		mov	r3, r2
 695              		.loc 1 334 0
 696 001a AA61     		str	r2, [r5, #24]
 697              		.loc 1 337 0
 698 001c 84F82010 		strb	r1, [r4, #32]
 699              	.LVL47:
 700 0020 00E0     		b	.L55
 701              	.LVL48:
 702              	.L58:
 703 0022 1B68     		ldr	r3, [r3]
 704              	.LVL49:
 705              	.L55:
 706              		.loc 1 341 0 discriminator 1
 707 0024 9A68     		ldr	r2, [r3, #8]
 708 0026 8242     		cmp	r2, r0
 709 0028 FBD8     		bhi	.L58
 710              		.loc 1 344 0
 711 002a 5A68     		ldr	r2, [r3, #4]
 712 002c 6260     		str	r2, [r4, #4]
 713              		.loc 1 343 0
 714 002e 2360     		str	r3, [r4]
 715              		.loc 1 347 0
 716 0030 2046     		mov	r0, r4
 717              		.loc 1 345 0
 718 0032 5C60     		str	r4, [r3, #4]
 719 0034 1460     		str	r4, [r2]
 720              		.loc 1 347 0
 721 0036 FFF7FEFF 		bl	dbg_trace
 722              	.LVL50:
 723              	.LBB70:
 724 003a E269     		ldr	r2, [r4, #28]
 725 003c ADF12403 		sub	r3, sp, #36
 726 0040 9A42     		cmp	r2, r3
 727 0042 02D9     		bls	.L56
 728              		.loc 1 347 0 is_stmt 0 discriminator 1
 729 0044 0548     		ldr	r0, .L59+4
 730 0046 FFF7FEFF 		bl	chDbgPanic
 731              	.LVL51:
 732              	.L56:
 733              		.loc 1 347 0 discriminator 3
 734 004a A869     		ldr	r0, [r5, #24]
 735 004c 2146     		mov	r1, r4
 736              	.LBE70:
 737              		.loc 1 348 0 is_stmt 1 discriminator 3
 738 004e BDE87040 		pop	{r4, r5, r6, lr}
 739              		.cfi_restore 14
 740              		.cfi_restore 6
 741              		.cfi_restore 5
ARM GAS  /tmp/cccrq7ad.s 			page 14


 742              		.cfi_restore 4
 743              		.cfi_def_cfa_offset 0
 744              	.LVL52:
 745              	.LBB71:
 746              		.loc 1 347 0 discriminator 3
 747 0052 FFF7FEBF 		b	_port_switch
 748              	.LVL53:
 749              	.L60:
 750 0056 00BF     		.align	2
 751              	.L59:
 752 0058 00000000 		.word	.LANCHOR0
 753 005c 14000000 		.word	.LC1
 754              	.LBE71:
 755              		.cfi_endproc
 756              	.LFE15:
 757              		.size	chSchDoRescheduleAhead, .-chSchDoRescheduleAhead
 758              		.section	.text.chSchRescheduleS,"ax",%progbits
 759              		.align	2
 760              		.p2align 4,,15
 761              		.global	chSchRescheduleS
 762              		.thumb
 763              		.thumb_func
 764              		.type	chSchRescheduleS, %function
 765              	chSchRescheduleS:
 766              	.LFB13:
 767              		.loc 1 253 0
 768              		.cfi_startproc
 769              		@ args = 0, pretend = 0, frame = 0
 770              		@ frame_needed = 0, uses_anonymous_args = 0
 771 0000 08B5     		push	{r3, lr}
 772              		.cfi_def_cfa_offset 8
 773              		.cfi_offset 3, -8
 774              		.cfi_offset 14, -4
 775              		.loc 1 255 0
 776 0002 FFF7FEFF 		bl	chDbgCheckClassS
 777              	.LVL54:
 778              		.loc 1 257 0
 779 0006 064B     		ldr	r3, .L65
 780 0008 1A68     		ldr	r2, [r3]
 781 000a 9B69     		ldr	r3, [r3, #24]
 782 000c 9268     		ldr	r2, [r2, #8]
 783 000e 9B68     		ldr	r3, [r3, #8]
 784 0010 9A42     		cmp	r2, r3
 785 0012 00D8     		bhi	.L64
 786 0014 08BD     		pop	{r3, pc}
 787              	.L64:
 788              		.loc 1 259 0
 789 0016 BDE80840 		pop	{r3, lr}
 790              		.cfi_restore 14
 791              		.cfi_restore 3
 792              		.cfi_def_cfa_offset 0
 793              		.loc 1 258 0
 794 001a FFF7FEBF 		b	chSchDoRescheduleAhead
 795              	.LVL55:
 796              	.L66:
 797 001e 00BF     		.align	2
 798              	.L65:
ARM GAS  /tmp/cccrq7ad.s 			page 15


 799 0020 00000000 		.word	.LANCHOR0
 800              		.cfi_endproc
 801              	.LFE13:
 802              		.size	chSchRescheduleS, .-chSchRescheduleS
 803              		.section	.text.chSchDoReschedule,"ax",%progbits
 804              		.align	2
 805              		.p2align 4,,15
 806              		.global	chSchDoReschedule
 807              		.thumb
 808              		.thumb_func
 809              		.type	chSchDoReschedule, %function
 810              	chSchDoReschedule:
 811              	.LFB16:
 812              		.loc 1 362 0
 813              		.cfi_startproc
 814              		@ args = 0, pretend = 0, frame = 0
 815              		@ frame_needed = 0, uses_anonymous_args = 0
 816              		@ link register save eliminated.
 817              		.loc 1 367 0
 818 0000 044B     		ldr	r3, .L70
 819 0002 9B69     		ldr	r3, [r3, #24]
 820 0004 93F82330 		ldrb	r3, [r3, #35]	@ zero_extendqisi2
 821 0008 0BB1     		cbz	r3, .L69
 822              		.loc 1 375 0
 823 000a FFF7FEBF 		b	chSchDoRescheduleAhead
 824              	.LVL56:
 825              	.L69:
 826              		.loc 1 370 0
 827 000e FFF7FEBF 		b	chSchDoRescheduleBehind
 828              	.LVL57:
 829              	.L71:
 830 0012 00BF     		.align	2
 831              	.L70:
 832 0014 00000000 		.word	.LANCHOR0
 833              		.cfi_endproc
 834              	.LFE16:
 835              		.size	chSchDoReschedule, .-chSchDoReschedule
 836              		.global	rlist
 837              		.section	.rodata.str1.4,"aMS",%progbits,1
 838              		.align	2
 839              	.LC0:
 840 0000 63685363 		.ascii	"chSchReadyI(), #1\000"
 840      68526561 
 840      64794928 
 840      292C2023 
 840      3100
 841 0012 0000     		.space	2
 842              	.LC1:
 843 0014 73746163 		.ascii	"stack overflow\000"
 843      6B206F76 
 843      6572666C 
 843      6F7700
 844              		.section	.bss.rlist,"aw",%nobits
 845              		.align	2
 846              		.set	.LANCHOR0,. + 0
 847              		.type	rlist, %object
 848              		.size	rlist, 28
ARM GAS  /tmp/cccrq7ad.s 			page 16


 849              	rlist:
 850 0000 00000000 		.space	28
 850      00000000 
 850      00000000 
 850      00000000 
 850      00000000 
 851              		.text
 852              	.Letext0:
 853              		.file 3 "/usr/include/newlib/machine/_default_types.h"
 854              		.file 4 "/usr/include/newlib/sys/_stdint.h"
 855              		.file 5 "../../ChibiOS_2.6.5/os/ports/GCC/ARMCMx/chtypes.h"
 856              		.file 6 "../../ChibiOS_2.6.5/os/kernel/include/chlists.h"
 857              		.file 7 "../../ChibiOS_2.6.5/os/kernel/include/chthreads.h"
 858              		.file 8 "../../ChibiOS_2.6.5/os/ports/GCC/ARMCMx/chcore_v7m.h"
 859              		.file 9 "../../ChibiOS_2.6.5/os/kernel/include/chvt.h"
 860              		.file 10 "../../ChibiOS_2.6.5/os/kernel/include/chschd.h"
 861              		.file 11 "../../ChibiOS_2.6.5/os/kernel/include/chsem.h"
 862              		.file 12 "../../ChibiOS_2.6.5/os/kernel/include/chmtx.h"
 863              		.file 13 "../../ChibiOS_2.6.5/os/kernel/include/chdebug.h"
 864              		.section	.debug_info,"",%progbits
 865              	.Ldebug_info0:
 866 0000 EF0A0000 		.4byte	0xaef
 867 0004 0400     		.2byte	0x4
 868 0006 00000000 		.4byte	.Ldebug_abbrev0
 869 000a 04       		.byte	0x4
 870 000b 01       		.uleb128 0x1
 871 000c 59000000 		.4byte	.LASF101
 872 0010 01       		.byte	0x1
 873 0011 4F020000 		.4byte	.LASF102
 874 0015 CB030000 		.4byte	.LASF103
 875 0019 18010000 		.4byte	.Ldebug_ranges0+0x118
 876 001d 00000000 		.4byte	0
 877 0021 00000000 		.4byte	.Ldebug_line0
 878 0025 02       		.uleb128 0x2
 879 0026 04       		.byte	0x4
 880 0027 05       		.byte	0x5
 881 0028 696E7400 		.ascii	"int\000"
 882 002c 03       		.uleb128 0x3
 883 002d 04       		.byte	0x4
 884 002e 07       		.byte	0x7
 885 002f F3010000 		.4byte	.LASF0
 886 0033 03       		.uleb128 0x3
 887 0034 01       		.byte	0x1
 888 0035 06       		.byte	0x6
 889 0036 3A010000 		.4byte	.LASF1
 890 003a 04       		.uleb128 0x4
 891 003b 38000000 		.4byte	.LASF5
 892 003f 03       		.byte	0x3
 893 0040 1D       		.byte	0x1d
 894 0041 45000000 		.4byte	0x45
 895 0045 03       		.uleb128 0x3
 896 0046 01       		.byte	0x1
 897 0047 08       		.byte	0x8
 898 0048 87030000 		.4byte	.LASF2
 899 004c 03       		.uleb128 0x3
 900 004d 02       		.byte	0x2
 901 004e 05       		.byte	0x5
ARM GAS  /tmp/cccrq7ad.s 			page 17


 902 004f A8030000 		.4byte	.LASF3
 903 0053 03       		.uleb128 0x3
 904 0054 02       		.byte	0x2
 905 0055 07       		.byte	0x7
 906 0056 CE040000 		.4byte	.LASF4
 907 005a 04       		.uleb128 0x4
 908 005b C4040000 		.4byte	.LASF6
 909 005f 03       		.byte	0x3
 910 0060 3F       		.byte	0x3f
 911 0061 65000000 		.4byte	0x65
 912 0065 03       		.uleb128 0x3
 913 0066 04       		.byte	0x4
 914 0067 05       		.byte	0x5
 915 0068 81010000 		.4byte	.LASF7
 916 006c 04       		.uleb128 0x4
 917 006d B4010000 		.4byte	.LASF8
 918 0071 03       		.byte	0x3
 919 0072 41       		.byte	0x41
 920 0073 77000000 		.4byte	0x77
 921 0077 03       		.uleb128 0x3
 922 0078 04       		.byte	0x4
 923 0079 07       		.byte	0x7
 924 007a 26020000 		.4byte	.LASF9
 925 007e 03       		.uleb128 0x3
 926 007f 08       		.byte	0x8
 927 0080 05       		.byte	0x5
 928 0081 2C010000 		.4byte	.LASF10
 929 0085 04       		.uleb128 0x4
 930 0086 57030000 		.4byte	.LASF11
 931 008a 03       		.byte	0x3
 932 008b 5B       		.byte	0x5b
 933 008c 90000000 		.4byte	0x90
 934 0090 03       		.uleb128 0x3
 935 0091 08       		.byte	0x8
 936 0092 07       		.byte	0x7
 937 0093 42000000 		.4byte	.LASF12
 938 0097 04       		.uleb128 0x4
 939 0098 20050000 		.4byte	.LASF13
 940 009c 04       		.byte	0x4
 941 009d 14       		.byte	0x14
 942 009e 3A000000 		.4byte	0x3a
 943 00a2 04       		.uleb128 0x4
 944 00a3 7F030000 		.4byte	.LASF14
 945 00a7 04       		.byte	0x4
 946 00a8 1F       		.byte	0x1f
 947 00a9 5A000000 		.4byte	0x5a
 948 00ad 04       		.uleb128 0x4
 949 00ae 6D040000 		.4byte	.LASF15
 950 00b2 04       		.byte	0x4
 951 00b3 20       		.byte	0x20
 952 00b4 6C000000 		.4byte	0x6c
 953 00b8 04       		.uleb128 0x4
 954 00b9 18000000 		.4byte	.LASF16
 955 00bd 04       		.byte	0x4
 956 00be 26       		.byte	0x26
 957 00bf 85000000 		.4byte	0x85
 958 00c3 03       		.uleb128 0x3
ARM GAS  /tmp/cccrq7ad.s 			page 18


 959 00c4 01       		.byte	0x1
 960 00c5 02       		.byte	0x2
 961 00c6 79030000 		.4byte	.LASF17
 962 00ca 04       		.uleb128 0x4
 963 00cb A6020000 		.4byte	.LASF18
 964 00cf 05       		.byte	0x5
 965 00d0 2C       		.byte	0x2c
 966 00d1 97000000 		.4byte	0x97
 967 00d5 04       		.uleb128 0x4
 968 00d6 8A010000 		.4byte	.LASF19
 969 00da 05       		.byte	0x5
 970 00db 2D       		.byte	0x2d
 971 00dc 97000000 		.4byte	0x97
 972 00e0 04       		.uleb128 0x4
 973 00e1 62030000 		.4byte	.LASF20
 974 00e5 05       		.byte	0x5
 975 00e6 2E       		.byte	0x2e
 976 00e7 97000000 		.4byte	0x97
 977 00eb 04       		.uleb128 0x4
 978 00ec 77010000 		.4byte	.LASF21
 979 00f0 05       		.byte	0x5
 980 00f1 2F       		.byte	0x2f
 981 00f2 97000000 		.4byte	0x97
 982 00f6 04       		.uleb128 0x4
 983 00f7 71030000 		.4byte	.LASF22
 984 00fb 05       		.byte	0x5
 985 00fc 30       		.byte	0x30
 986 00fd AD000000 		.4byte	0xad
 987 0101 04       		.uleb128 0x4
 988 0102 87020000 		.4byte	.LASF23
 989 0106 05       		.byte	0x5
 990 0107 31       		.byte	0x31
 991 0108 A2000000 		.4byte	0xa2
 992 010c 04       		.uleb128 0x4
 993 010d CB020000 		.4byte	.LASF24
 994 0111 05       		.byte	0x5
 995 0112 33       		.byte	0x33
 996 0113 AD000000 		.4byte	0xad
 997 0117 04       		.uleb128 0x4
 998 0118 AF040000 		.4byte	.LASF25
 999 011c 05       		.byte	0x5
 1000 011d 35       		.byte	0x35
 1001 011e AD000000 		.4byte	0xad
 1002 0122 04       		.uleb128 0x4
 1003 0123 E2010000 		.4byte	.LASF26
 1004 0127 05       		.byte	0x5
 1005 0128 36       		.byte	0x36
 1006 0129 A2000000 		.4byte	0xa2
 1007 012d 04       		.uleb128 0x4
 1008 012e 42040000 		.4byte	.LASF27
 1009 0132 06       		.byte	0x6
 1010 0133 2A       		.byte	0x2a
 1011 0134 38010000 		.4byte	0x138
 1012 0138 05       		.uleb128 0x5
 1013 0139 42040000 		.4byte	.LASF27
 1014 013d 4C       		.byte	0x4c
 1015 013e 07       		.byte	0x7
ARM GAS  /tmp/cccrq7ad.s 			page 19


 1016 013f 5E       		.byte	0x5e
 1017 0140 41020000 		.4byte	0x241
 1018 0144 06       		.uleb128 0x6
 1019 0145 33040000 		.4byte	.LASF28
 1020 0149 07       		.byte	0x7
 1021 014a 5F       		.byte	0x5f
 1022 014b 62020000 		.4byte	0x262
 1023 014f 00       		.byte	0
 1024 0150 06       		.uleb128 0x6
 1025 0151 6A030000 		.4byte	.LASF29
 1026 0155 07       		.byte	0x7
 1027 0156 61       		.byte	0x61
 1028 0157 62020000 		.4byte	0x262
 1029 015b 04       		.byte	0x4
 1030 015c 06       		.uleb128 0x6
 1031 015d 15010000 		.4byte	.LASF30
 1032 0161 07       		.byte	0x7
 1033 0162 63       		.byte	0x63
 1034 0163 F6000000 		.4byte	0xf6
 1035 0167 08       		.byte	0x8
 1036 0168 06       		.uleb128 0x6
 1037 0169 6B050000 		.4byte	.LASF31
 1038 016d 07       		.byte	0x7
 1039 016e 64       		.byte	0x64
 1040 016f 27030000 		.4byte	0x327
 1041 0173 0C       		.byte	0xc
 1042 0174 06       		.uleb128 0x6
 1043 0175 93010000 		.4byte	.LASF32
 1044 0179 07       		.byte	0x7
 1045 017a 66       		.byte	0x66
 1046 017b 62020000 		.4byte	0x262
 1047 017f 10       		.byte	0x10
 1048 0180 06       		.uleb128 0x6
 1049 0181 22030000 		.4byte	.LASF33
 1050 0185 07       		.byte	0x7
 1051 0186 67       		.byte	0x67
 1052 0187 62020000 		.4byte	0x262
 1053 018b 14       		.byte	0x14
 1054 018c 06       		.uleb128 0x6
 1055 018d 47050000 		.4byte	.LASF34
 1056 0191 07       		.byte	0x7
 1057 0192 6E       		.byte	0x6e
 1058 0193 CD040000 		.4byte	0x4cd
 1059 0197 18       		.byte	0x18
 1060 0198 06       		.uleb128 0x6
 1061 0199 E8010000 		.4byte	.LASF35
 1062 019d 07       		.byte	0x7
 1063 019e 74       		.byte	0x74
 1064 019f DF040000 		.4byte	0x4df
 1065 01a3 1C       		.byte	0x1c
 1066 01a4 06       		.uleb128 0x6
 1067 01a5 B2030000 		.4byte	.LASF36
 1068 01a9 07       		.byte	0x7
 1069 01aa 79       		.byte	0x79
 1070 01ab D5000000 		.4byte	0xd5
 1071 01af 20       		.byte	0x20
 1072 01b0 06       		.uleb128 0x6
ARM GAS  /tmp/cccrq7ad.s 			page 20


 1073 01b1 3A040000 		.4byte	.LASF37
 1074 01b5 07       		.byte	0x7
 1075 01b6 7D       		.byte	0x7d
 1076 01b7 CA000000 		.4byte	0xca
 1077 01bb 21       		.byte	0x21
 1078 01bc 06       		.uleb128 0x6
 1079 01bd 09050000 		.4byte	.LASF38
 1080 01c1 07       		.byte	0x7
 1081 01c2 82       		.byte	0x82
 1082 01c3 E0000000 		.4byte	0xe0
 1083 01c7 22       		.byte	0x22
 1084 01c8 06       		.uleb128 0x6
 1085 01c9 BA030000 		.4byte	.LASF39
 1086 01cd 07       		.byte	0x7
 1087 01ce 88       		.byte	0x88
 1088 01cf EB000000 		.4byte	0xeb
 1089 01d3 23       		.byte	0x23
 1090 01d4 06       		.uleb128 0x6
 1091 01d5 40050000 		.4byte	.LASF40
 1092 01d9 07       		.byte	0x7
 1093 01da 8F       		.byte	0x8f
 1094 01db C5030000 		.4byte	0x3c5
 1095 01df 24       		.byte	0x24
 1096 01e0 07       		.uleb128 0x7
 1097 01e1 705F7500 		.ascii	"p_u\000"
 1098 01e5 07       		.byte	0x7
 1099 01e6 B4       		.byte	0xb4
 1100 01e7 98040000 		.4byte	0x498
 1101 01eb 28       		.byte	0x28
 1102 01ec 06       		.uleb128 0x6
 1103 01ed 71050000 		.4byte	.LASF41
 1104 01f1 07       		.byte	0x7
 1105 01f2 B9       		.byte	0xb9
 1106 01f3 88020000 		.4byte	0x288
 1107 01f7 2C       		.byte	0x2c
 1108 01f8 06       		.uleb128 0x6
 1109 01f9 E8040000 		.4byte	.LASF42
 1110 01fd 07       		.byte	0x7
 1111 01fe BF       		.byte	0xbf
 1112 01ff 68020000 		.4byte	0x268
 1113 0203 30       		.byte	0x30
 1114 0204 06       		.uleb128 0x6
 1115 0205 00000000 		.4byte	.LASF43
 1116 0209 07       		.byte	0x7
 1117 020a C3       		.byte	0xc3
 1118 020b 01010000 		.4byte	0x101
 1119 020f 38       		.byte	0x38
 1120 0210 06       		.uleb128 0x6
 1121 0211 62040000 		.4byte	.LASF44
 1122 0215 07       		.byte	0x7
 1123 0216 C9       		.byte	0xc9
 1124 0217 0C010000 		.4byte	0x10c
 1125 021b 3C       		.byte	0x3c
 1126 021c 06       		.uleb128 0x6
 1127 021d 9E030000 		.4byte	.LASF45
 1128 0221 07       		.byte	0x7
 1129 0222 D0       		.byte	0xd0
ARM GAS  /tmp/cccrq7ad.s 			page 21


 1130 0223 E5040000 		.4byte	0x4e5
 1131 0227 40       		.byte	0x40
 1132 0228 06       		.uleb128 0x6
 1133 0229 B9040000 		.4byte	.LASF46
 1134 022d 07       		.byte	0x7
 1135 022e D4       		.byte	0xd4
 1136 022f F6000000 		.4byte	0xf6
 1137 0233 44       		.byte	0x44
 1138 0234 06       		.uleb128 0x6
 1139 0235 60010000 		.4byte	.LASF47
 1140 0239 07       		.byte	0x7
 1141 023a DA       		.byte	0xda
 1142 023b 9E020000 		.4byte	0x29e
 1143 023f 48       		.byte	0x48
 1144 0240 00       		.byte	0
 1145 0241 08       		.uleb128 0x8
 1146 0242 08       		.byte	0x8
 1147 0243 06       		.byte	0x6
 1148 0244 61       		.byte	0x61
 1149 0245 62020000 		.4byte	0x262
 1150 0249 06       		.uleb128 0x6
 1151 024a 33040000 		.4byte	.LASF28
 1152 024e 06       		.byte	0x6
 1153 024f 62       		.byte	0x62
 1154 0250 62020000 		.4byte	0x262
 1155 0254 00       		.byte	0
 1156 0255 06       		.uleb128 0x6
 1157 0256 6A030000 		.4byte	.LASF29
 1158 025a 06       		.byte	0x6
 1159 025b 64       		.byte	0x64
 1160 025c 62020000 		.4byte	0x262
 1161 0260 04       		.byte	0x4
 1162 0261 00       		.byte	0
 1163 0262 09       		.uleb128 0x9
 1164 0263 04       		.byte	0x4
 1165 0264 2D010000 		.4byte	0x12d
 1166 0268 04       		.uleb128 0x4
 1167 0269 30030000 		.4byte	.LASF48
 1168 026d 06       		.byte	0x6
 1169 026e 66       		.byte	0x66
 1170 026f 41020000 		.4byte	0x241
 1171 0273 08       		.uleb128 0x8
 1172 0274 04       		.byte	0x4
 1173 0275 06       		.byte	0x6
 1174 0276 6B       		.byte	0x6b
 1175 0277 88020000 		.4byte	0x288
 1176 027b 06       		.uleb128 0x6
 1177 027c 33040000 		.4byte	.LASF28
 1178 0280 06       		.byte	0x6
 1179 0281 6D       		.byte	0x6d
 1180 0282 62020000 		.4byte	0x262
 1181 0286 00       		.byte	0
 1182 0287 00       		.byte	0
 1183 0288 04       		.uleb128 0x4
 1184 0289 BF020000 		.4byte	.LASF49
 1185 028d 06       		.byte	0x6
 1186 028e 70       		.byte	0x70
ARM GAS  /tmp/cccrq7ad.s 			page 22


 1187 028f 73020000 		.4byte	0x273
 1188 0293 04       		.uleb128 0x4
 1189 0294 BF010000 		.4byte	.LASF50
 1190 0298 08       		.byte	0x8
 1191 0299 E5       		.byte	0xe5
 1192 029a 9E020000 		.4byte	0x29e
 1193 029e 0A       		.uleb128 0xa
 1194 029f 04       		.byte	0x4
 1195 02a0 04       		.uleb128 0x4
 1196 02a1 DD020000 		.4byte	.LASF51
 1197 02a5 08       		.byte	0x8
 1198 02a6 EB       		.byte	0xeb
 1199 02a7 B8000000 		.4byte	0xb8
 1200 02ab 0B       		.uleb128 0xb
 1201 02ac E1040000 		.4byte	.LASF52
 1202 02b0 24       		.byte	0x24
 1203 02b1 08       		.byte	0x8
 1204 02b2 0C01     		.2byte	0x10c
 1205 02b4 27030000 		.4byte	0x327
 1206 02b8 0C       		.uleb128 0xc
 1207 02b9 723400   		.ascii	"r4\000"
 1208 02bc 08       		.byte	0x8
 1209 02bd 1F01     		.2byte	0x11f
 1210 02bf 93020000 		.4byte	0x293
 1211 02c3 00       		.byte	0
 1212 02c4 0C       		.uleb128 0xc
 1213 02c5 723500   		.ascii	"r5\000"
 1214 02c8 08       		.byte	0x8
 1215 02c9 2001     		.2byte	0x120
 1216 02cb 93020000 		.4byte	0x293
 1217 02cf 04       		.byte	0x4
 1218 02d0 0C       		.uleb128 0xc
 1219 02d1 723600   		.ascii	"r6\000"
 1220 02d4 08       		.byte	0x8
 1221 02d5 2101     		.2byte	0x121
 1222 02d7 93020000 		.4byte	0x293
 1223 02db 08       		.byte	0x8
 1224 02dc 0C       		.uleb128 0xc
 1225 02dd 723700   		.ascii	"r7\000"
 1226 02e0 08       		.byte	0x8
 1227 02e1 2201     		.2byte	0x122
 1228 02e3 93020000 		.4byte	0x293
 1229 02e7 0C       		.byte	0xc
 1230 02e8 0C       		.uleb128 0xc
 1231 02e9 723800   		.ascii	"r8\000"
 1232 02ec 08       		.byte	0x8
 1233 02ed 2301     		.2byte	0x123
 1234 02ef 93020000 		.4byte	0x293
 1235 02f3 10       		.byte	0x10
 1236 02f4 0C       		.uleb128 0xc
 1237 02f5 723900   		.ascii	"r9\000"
 1238 02f8 08       		.byte	0x8
 1239 02f9 2401     		.2byte	0x124
 1240 02fb 93020000 		.4byte	0x293
 1241 02ff 14       		.byte	0x14
 1242 0300 0C       		.uleb128 0xc
 1243 0301 72313000 		.ascii	"r10\000"
ARM GAS  /tmp/cccrq7ad.s 			page 23


 1244 0305 08       		.byte	0x8
 1245 0306 2501     		.2byte	0x125
 1246 0308 93020000 		.4byte	0x293
 1247 030c 18       		.byte	0x18
 1248 030d 0C       		.uleb128 0xc
 1249 030e 72313100 		.ascii	"r11\000"
 1250 0312 08       		.byte	0x8
 1251 0313 2601     		.2byte	0x126
 1252 0315 93020000 		.4byte	0x293
 1253 0319 1C       		.byte	0x1c
 1254 031a 0C       		.uleb128 0xc
 1255 031b 6C7200   		.ascii	"lr\000"
 1256 031e 08       		.byte	0x8
 1257 031f 2701     		.2byte	0x127
 1258 0321 93020000 		.4byte	0x293
 1259 0325 20       		.byte	0x20
 1260 0326 00       		.byte	0
 1261 0327 0B       		.uleb128 0xb
 1262 0328 47020000 		.4byte	.LASF53
 1263 032c 04       		.byte	0x4
 1264 032d 08       		.byte	0x8
 1265 032e 3101     		.2byte	0x131
 1266 0330 42030000 		.4byte	0x342
 1267 0334 0C       		.uleb128 0xc
 1268 0335 72313300 		.ascii	"r13\000"
 1269 0339 08       		.byte	0x8
 1270 033a 3201     		.2byte	0x132
 1271 033c 42030000 		.4byte	0x342
 1272 0340 00       		.byte	0
 1273 0341 00       		.byte	0
 1274 0342 09       		.uleb128 0x9
 1275 0343 04       		.byte	0x4
 1276 0344 AB020000 		.4byte	0x2ab
 1277 0348 03       		.uleb128 0x3
 1278 0349 04       		.byte	0x4
 1279 034a 07       		.byte	0x7
 1280 034b F0020000 		.4byte	.LASF54
 1281 034f 04       		.uleb128 0x4
 1282 0350 38020000 		.4byte	.LASF55
 1283 0354 09       		.byte	0x9
 1284 0355 58       		.byte	0x58
 1285 0356 5A030000 		.4byte	0x35a
 1286 035a 09       		.uleb128 0x9
 1287 035b 04       		.byte	0x4
 1288 035c 60030000 		.4byte	0x360
 1289 0360 0D       		.uleb128 0xd
 1290 0361 6B030000 		.4byte	0x36b
 1291 0365 0E       		.uleb128 0xe
 1292 0366 9E020000 		.4byte	0x29e
 1293 036a 00       		.byte	0
 1294 036b 04       		.uleb128 0x4
 1295 036c 7E040000 		.4byte	.LASF56
 1296 0370 09       		.byte	0x9
 1297 0371 5D       		.byte	0x5d
 1298 0372 76030000 		.4byte	0x376
 1299 0376 05       		.uleb128 0x5
 1300 0377 7E040000 		.4byte	.LASF56
ARM GAS  /tmp/cccrq7ad.s 			page 24


 1301 037b 14       		.byte	0x14
 1302 037c 09       		.byte	0x9
 1303 037d 64       		.byte	0x64
 1304 037e BF030000 		.4byte	0x3bf
 1305 0382 06       		.uleb128 0x6
 1306 0383 07020000 		.4byte	.LASF57
 1307 0387 09       		.byte	0x9
 1308 0388 65       		.byte	0x65
 1309 0389 BF030000 		.4byte	0x3bf
 1310 038d 00       		.byte	0
 1311 038e 06       		.uleb128 0x6
 1312 038f C8010000 		.4byte	.LASF58
 1313 0393 09       		.byte	0x9
 1314 0394 67       		.byte	0x67
 1315 0395 BF030000 		.4byte	0x3bf
 1316 0399 04       		.byte	0x4
 1317 039a 06       		.uleb128 0x6
 1318 039b E8020000 		.4byte	.LASF59
 1319 039f 09       		.byte	0x9
 1320 03a0 69       		.byte	0x69
 1321 03a1 17010000 		.4byte	0x117
 1322 03a5 08       		.byte	0x8
 1323 03a6 06       		.uleb128 0x6
 1324 03a7 F9020000 		.4byte	.LASF60
 1325 03ab 09       		.byte	0x9
 1326 03ac 6A       		.byte	0x6a
 1327 03ad 4F030000 		.4byte	0x34f
 1328 03b1 0C       		.byte	0xc
 1329 03b2 06       		.uleb128 0x6
 1330 03b3 F8040000 		.4byte	.LASF61
 1331 03b7 09       		.byte	0x9
 1332 03b8 6C       		.byte	0x6c
 1333 03b9 9E020000 		.4byte	0x29e
 1334 03bd 10       		.byte	0x10
 1335 03be 00       		.byte	0
 1336 03bf 09       		.uleb128 0x9
 1337 03c0 04       		.byte	0x4
 1338 03c1 6B030000 		.4byte	0x36b
 1339 03c5 0F       		.uleb128 0xf
 1340 03c6 17010000 		.4byte	0x117
 1341 03ca 08       		.uleb128 0x8
 1342 03cb 1C       		.byte	0x1c
 1343 03cc 0A       		.byte	0xa
 1344 03cd 5E       		.byte	0x5e
 1345 03ce 1B040000 		.4byte	0x41b
 1346 03d2 06       		.uleb128 0x6
 1347 03d3 76040000 		.4byte	.LASF62
 1348 03d7 0A       		.byte	0xa
 1349 03d8 5F       		.byte	0x5f
 1350 03d9 68020000 		.4byte	0x268
 1351 03dd 00       		.byte	0
 1352 03de 06       		.uleb128 0x6
 1353 03df C4030000 		.4byte	.LASF63
 1354 03e3 0A       		.byte	0xa
 1355 03e4 60       		.byte	0x60
 1356 03e5 F6000000 		.4byte	0xf6
 1357 03e9 08       		.byte	0x8
ARM GAS  /tmp/cccrq7ad.s 			page 25


 1358 03ea 06       		.uleb128 0x6
 1359 03eb 2A030000 		.4byte	.LASF64
 1360 03ef 0A       		.byte	0xa
 1361 03f0 62       		.byte	0x62
 1362 03f1 27030000 		.4byte	0x327
 1363 03f5 0C       		.byte	0xc
 1364 03f6 06       		.uleb128 0x6
 1365 03f7 8D020000 		.4byte	.LASF65
 1366 03fb 0A       		.byte	0xa
 1367 03fc 65       		.byte	0x65
 1368 03fd 62020000 		.4byte	0x262
 1369 0401 10       		.byte	0x10
 1370 0402 06       		.uleb128 0x6
 1371 0403 4F030000 		.4byte	.LASF66
 1372 0407 0A       		.byte	0xa
 1373 0408 66       		.byte	0x66
 1374 0409 62020000 		.4byte	0x262
 1375 040d 14       		.byte	0x14
 1376 040e 06       		.uleb128 0x6
 1377 040f 45030000 		.4byte	.LASF67
 1378 0413 0A       		.byte	0xa
 1379 0414 69       		.byte	0x69
 1380 0415 62020000 		.4byte	0x262
 1381 0419 18       		.byte	0x18
 1382 041a 00       		.byte	0
 1383 041b 04       		.uleb128 0x4
 1384 041c 10050000 		.4byte	.LASF68
 1385 0420 0A       		.byte	0xa
 1386 0421 6B       		.byte	0x6b
 1387 0422 CA030000 		.4byte	0x3ca
 1388 0426 05       		.uleb128 0x5
 1389 0427 FF040000 		.4byte	.LASF69
 1390 042b 0C       		.byte	0xc
 1391 042c 0B       		.byte	0xb
 1392 042d 2C       		.byte	0x2c
 1393 042e 4B040000 		.4byte	0x44b
 1394 0432 06       		.uleb128 0x6
 1395 0433 9B010000 		.4byte	.LASF70
 1396 0437 0B       		.byte	0xb
 1397 0438 2D       		.byte	0x2d
 1398 0439 68020000 		.4byte	0x268
 1399 043d 00       		.byte	0
 1400 043e 06       		.uleb128 0x6
 1401 043f 41020000 		.4byte	.LASF71
 1402 0443 0B       		.byte	0xb
 1403 0444 2F       		.byte	0x2f
 1404 0445 22010000 		.4byte	0x122
 1405 0449 08       		.byte	0x8
 1406 044a 00       		.byte	0
 1407 044b 04       		.uleb128 0x4
 1408 044c FF040000 		.4byte	.LASF69
 1409 0450 0B       		.byte	0xb
 1410 0451 30       		.byte	0x30
 1411 0452 26040000 		.4byte	0x426
 1412 0456 05       		.uleb128 0x5
 1413 0457 D7020000 		.4byte	.LASF72
 1414 045b 10       		.byte	0x10
ARM GAS  /tmp/cccrq7ad.s 			page 26


 1415 045c 0C       		.byte	0xc
 1416 045d 2C       		.byte	0x2c
 1417 045e 87040000 		.4byte	0x487
 1418 0462 06       		.uleb128 0x6
 1419 0463 68010000 		.4byte	.LASF73
 1420 0467 0C       		.byte	0xc
 1421 0468 2D       		.byte	0x2d
 1422 0469 68020000 		.4byte	0x268
 1423 046d 00       		.byte	0
 1424 046e 06       		.uleb128 0x6
 1425 046f 63050000 		.4byte	.LASF74
 1426 0473 0C       		.byte	0xc
 1427 0474 2F       		.byte	0x2f
 1428 0475 62020000 		.4byte	0x262
 1429 0479 08       		.byte	0x8
 1430 047a 06       		.uleb128 0x6
 1431 047b A8040000 		.4byte	.LASF75
 1432 047f 0C       		.byte	0xc
 1433 0480 31       		.byte	0x31
 1434 0481 87040000 		.4byte	0x487
 1435 0485 0C       		.byte	0xc
 1436 0486 00       		.byte	0
 1437 0487 09       		.uleb128 0x9
 1438 0488 04       		.byte	0x4
 1439 0489 56040000 		.4byte	0x456
 1440 048d 04       		.uleb128 0x4
 1441 048e D7020000 		.4byte	.LASF72
 1442 0492 0C       		.byte	0xc
 1443 0493 33       		.byte	0x33
 1444 0494 56040000 		.4byte	0x456
 1445 0498 10       		.uleb128 0x10
 1446 0499 04       		.byte	0x4
 1447 049a 07       		.byte	0x7
 1448 049b 96       		.byte	0x96
 1449 049c CD040000 		.4byte	0x4cd
 1450 04a0 11       		.uleb128 0x11
 1451 04a1 11000000 		.4byte	.LASF76
 1452 04a5 07       		.byte	0x7
 1453 04a6 9D       		.byte	0x9d
 1454 04a7 01010000 		.4byte	0x101
 1455 04ab 11       		.uleb128 0x11
 1456 04ac 0C010000 		.4byte	.LASF77
 1457 04b0 07       		.byte	0x7
 1458 04b1 A4       		.byte	0xa4
 1459 04b2 01010000 		.4byte	0x101
 1460 04b6 11       		.uleb128 0x11
 1461 04b7 70010000 		.4byte	.LASF78
 1462 04bb 07       		.byte	0x7
 1463 04bc AB       		.byte	0xab
 1464 04bd 9E020000 		.4byte	0x29e
 1465 04c1 11       		.uleb128 0x11
 1466 04c2 2C040000 		.4byte	.LASF79
 1467 04c6 07       		.byte	0x7
 1468 04c7 B2       		.byte	0xb2
 1469 04c8 0C010000 		.4byte	0x10c
 1470 04cc 00       		.byte	0
 1471 04cd 09       		.uleb128 0x9
ARM GAS  /tmp/cccrq7ad.s 			page 27


 1472 04ce 04       		.byte	0x4
 1473 04cf D3040000 		.4byte	0x4d3
 1474 04d3 12       		.uleb128 0x12
 1475 04d4 D8040000 		.4byte	0x4d8
 1476 04d8 03       		.uleb128 0x3
 1477 04d9 01       		.byte	0x1
 1478 04da 08       		.byte	0x8
 1479 04db 8B040000 		.4byte	.LASF80
 1480 04df 09       		.uleb128 0x9
 1481 04e0 04       		.byte	0x4
 1482 04e1 A0020000 		.4byte	0x2a0
 1483 04e5 09       		.uleb128 0x9
 1484 04e6 04       		.byte	0x4
 1485 04e7 8D040000 		.4byte	0x48d
 1486 04eb 13       		.uleb128 0x13
 1487 04ec 3D030000 		.4byte	.LASF81
 1488 04f0 02       		.byte	0x2
 1489 04f1 49       		.byte	0x49
 1490 04f2 62020000 		.4byte	0x262
 1491 04f6 03       		.byte	0x3
 1492 04f7 06050000 		.4byte	0x506
 1493 04fb 14       		.uleb128 0x14
 1494 04fc 747000   		.ascii	"tp\000"
 1495 04ff 02       		.byte	0x2
 1496 0500 49       		.byte	0x49
 1497 0501 62020000 		.4byte	0x262
 1498 0505 00       		.byte	0
 1499 0506 15       		.uleb128 0x15
 1500 0507 00020000 		.4byte	.LASF104
 1501 050b 01       		.byte	0x1
 1502 050c 88       		.byte	0x88
 1503 050d 01       		.byte	0x1
 1504 050e 55050000 		.4byte	0x555
 1505 0512 14       		.uleb128 0x14
 1506 0513 7000     		.ascii	"p\000"
 1507 0515 01       		.byte	0x1
 1508 0516 88       		.byte	0x88
 1509 0517 9E020000 		.4byte	0x29e
 1510 051b 16       		.uleb128 0x16
 1511 051c 747000   		.ascii	"tp\000"
 1512 051f 01       		.byte	0x1
 1513 0520 89       		.byte	0x89
 1514 0521 62020000 		.4byte	0x262
 1515 0525 17       		.uleb128 0x17
 1516 0526 36050000 		.4byte	0x536
 1517 052a 16       		.uleb128 0x16
 1518 052b 746D7000 		.ascii	"tmp\000"
 1519 052f 01       		.byte	0x1
 1520 0530 8B       		.byte	0x8b
 1521 0531 AD000000 		.4byte	0xad
 1522 0535 00       		.byte	0
 1523 0536 17       		.uleb128 0x17
 1524 0537 47050000 		.4byte	0x547
 1525 053b 16       		.uleb128 0x16
 1526 053c 746D7000 		.ascii	"tmp\000"
 1527 0540 01       		.byte	0x1
 1528 0541 90       		.byte	0x90
ARM GAS  /tmp/cccrq7ad.s 			page 28


 1529 0542 AD000000 		.4byte	0xad
 1530 0546 00       		.byte	0
 1531 0547 18       		.uleb128 0x18
 1532 0548 16       		.uleb128 0x16
 1533 0549 746D7000 		.ascii	"tmp\000"
 1534 054d 01       		.byte	0x1
 1535 054e A5       		.byte	0xa5
 1536 054f AD000000 		.4byte	0xad
 1537 0553 00       		.byte	0
 1538 0554 00       		.byte	0
 1539 0555 13       		.uleb128 0x13
 1540 0556 90040000 		.4byte	.LASF82
 1541 055a 02       		.byte	0x2
 1542 055b 3B       		.byte	0x3b
 1543 055c 62020000 		.4byte	0x262
 1544 0560 03       		.byte	0x3
 1545 0561 7B050000 		.4byte	0x57b
 1546 0565 14       		.uleb128 0x14
 1547 0566 74717000 		.ascii	"tqp\000"
 1548 056a 02       		.byte	0x2
 1549 056b 3B       		.byte	0x3b
 1550 056c 7B050000 		.4byte	0x57b
 1551 0570 16       		.uleb128 0x16
 1552 0571 747000   		.ascii	"tp\000"
 1553 0574 02       		.byte	0x2
 1554 0575 3C       		.byte	0x3c
 1555 0576 62020000 		.4byte	0x262
 1556 057a 00       		.byte	0
 1557 057b 09       		.uleb128 0x9
 1558 057c 04       		.byte	0x4
 1559 057d 68020000 		.4byte	0x268
 1560 0581 19       		.uleb128 0x19
 1561 0582 1C010000 		.4byte	.LASF105
 1562 0586 01       		.byte	0x1
 1563 0587 37       		.byte	0x37
 1564 0588 00000000 		.4byte	.LFB7
 1565 058c 14000000 		.4byte	.LFE7-.LFB7
 1566 0590 01       		.uleb128 0x1
 1567 0591 9C       		.byte	0x9c
 1568 0592 1A       		.uleb128 0x1a
 1569 0593 9C040000 		.4byte	.LASF84
 1570 0597 01       		.byte	0x1
 1571 0598 51       		.byte	0x51
 1572 0599 62020000 		.4byte	0x262
 1573 059d 00000000 		.4byte	.LFB8
 1574 05a1 44000000 		.4byte	.LFE8-.LFB8
 1575 05a5 01       		.uleb128 0x1
 1576 05a6 9C       		.byte	0x9c
 1577 05a7 E4050000 		.4byte	0x5e4
 1578 05ab 1B       		.uleb128 0x1b
 1579 05ac 747000   		.ascii	"tp\000"
 1580 05af 01       		.byte	0x1
 1581 05b0 51       		.byte	0x51
 1582 05b1 62020000 		.4byte	0x262
 1583 05b5 00000000 		.4byte	.LLST0
 1584 05b9 1C       		.uleb128 0x1c
 1585 05ba 637000   		.ascii	"cp\000"
ARM GAS  /tmp/cccrq7ad.s 			page 29


 1586 05bd 01       		.byte	0x1
 1587 05be 52       		.byte	0x52
 1588 05bf 62020000 		.4byte	0x262
 1589 05c3 1E000000 		.4byte	.LLST1
 1590 05c7 1D       		.uleb128 0x1d
 1591 05c8 08000000 		.4byte	.LVL1
 1592 05cc 700A0000 		.4byte	0xa70
 1593 05d0 1E       		.uleb128 0x1e
 1594 05d1 38000000 		.4byte	.LVL5
 1595 05d5 770A0000 		.4byte	0xa77
 1596 05d9 1F       		.uleb128 0x1f
 1597 05da 01       		.uleb128 0x1
 1598 05db 50       		.byte	0x50
 1599 05dc 05       		.uleb128 0x5
 1600 05dd 03       		.byte	0x3
 1601 05de 00000000 		.4byte	.LC0
 1602 05e2 00       		.byte	0
 1603 05e3 00       		.byte	0
 1604 05e4 20       		.uleb128 0x20
 1605 05e5 06050000 		.4byte	0x506
 1606 05e9 00000000 		.4byte	.LFB10
 1607 05ed 52000000 		.4byte	.LFE10-.LFB10
 1608 05f1 01       		.uleb128 0x1
 1609 05f2 9C       		.byte	0x9c
 1610 05f3 73060000 		.4byte	0x673
 1611 05f7 21       		.uleb128 0x21
 1612 05f8 12050000 		.4byte	0x512
 1613 05fc 31000000 		.4byte	.LLST2
 1614 0600 22       		.uleb128 0x22
 1615 0601 1B050000 		.4byte	0x51b
 1616 0605 31000000 		.4byte	.LLST2
 1617 0609 23       		.uleb128 0x23
 1618 060a 00000000 		.4byte	.Ldebug_ranges0+0
 1619 060e 1A060000 		.4byte	0x61a
 1620 0612 24       		.uleb128 0x24
 1621 0613 2A050000 		.4byte	0x52a
 1622 0617 01       		.uleb128 0x1
 1623 0618 53       		.byte	0x53
 1624 0619 00       		.byte	0
 1625 061a 25       		.uleb128 0x25
 1626 061b EB040000 		.4byte	0x4eb
 1627 061f 30000000 		.4byte	.LBB34
 1628 0623 0A000000 		.4byte	.LBE34-.LBB34
 1629 0627 01       		.byte	0x1
 1630 0628 A0       		.byte	0xa0
 1631 0629 37060000 		.4byte	0x637
 1632 062d 21       		.uleb128 0x21
 1633 062e FB040000 		.4byte	0x4fb
 1634 0632 4F000000 		.4byte	.LLST4
 1635 0636 00       		.byte	0
 1636 0637 26       		.uleb128 0x26
 1637 0638 4A000000 		.4byte	.LBB36
 1638 063c 08000000 		.4byte	.LBE36-.LBB36
 1639 0640 4C060000 		.4byte	0x64c
 1640 0644 24       		.uleb128 0x24
 1641 0645 48050000 		.4byte	0x548
 1642 0649 01       		.uleb128 0x1
ARM GAS  /tmp/cccrq7ad.s 			page 30


 1643 064a 53       		.byte	0x53
 1644 064b 00       		.byte	0
 1645 064c 1D       		.uleb128 0x1d
 1646 064d 0E000000 		.4byte	.LVL7
 1647 0651 880A0000 		.4byte	0xa88
 1648 0655 27       		.uleb128 0x27
 1649 0656 46000000 		.4byte	.LVL10
 1650 065a 92050000 		.4byte	0x592
 1651 065e 69060000 		.4byte	0x669
 1652 0662 1F       		.uleb128 0x1f
 1653 0663 01       		.uleb128 0x1
 1654 0664 50       		.byte	0x50
 1655 0665 02       		.uleb128 0x2
 1656 0666 74       		.byte	0x74
 1657 0667 00       		.sleb128 0
 1658 0668 00       		.byte	0
 1659 0669 1D       		.uleb128 0x1d
 1660 066a 4A000000 		.4byte	.LVL11
 1661 066e 8F0A0000 		.4byte	0xa8f
 1662 0672 00       		.byte	0
 1663 0673 28       		.uleb128 0x28
 1664 0674 54040000 		.4byte	.LASF87
 1665 0678 01       		.byte	0x1
 1666 0679 73       		.byte	0x73
 1667 067a 00000000 		.4byte	.LFB9
 1668 067e 50000000 		.4byte	.LFE9-.LFB9
 1669 0682 01       		.uleb128 0x1
 1670 0683 9C       		.byte	0x9c
 1671 0684 26070000 		.4byte	0x726
 1672 0688 29       		.uleb128 0x29
 1673 0689 95030000 		.4byte	.LASF83
 1674 068d 01       		.byte	0x1
 1675 068e 73       		.byte	0x73
 1676 068f D5000000 		.4byte	0xd5
 1677 0693 62000000 		.4byte	.LLST5
 1678 0697 1C       		.uleb128 0x1c
 1679 0698 6F747000 		.ascii	"otp\000"
 1680 069c 01       		.byte	0x1
 1681 069d 74       		.byte	0x74
 1682 069e 62020000 		.4byte	0x262
 1683 06a2 83000000 		.4byte	.LLST6
 1684 06a6 2A       		.uleb128 0x2a
 1685 06a7 55050000 		.4byte	0x555
 1686 06ab 0A000000 		.4byte	.LBB37
 1687 06af 18000000 		.4byte	.Ldebug_ranges0+0x18
 1688 06b3 01       		.byte	0x1
 1689 06b4 7E       		.byte	0x7e
 1690 06b5 D5060000 		.4byte	0x6d5
 1691 06b9 2B       		.uleb128 0x2b
 1692 06ba 65050000 		.4byte	0x565
 1693 06be 06       		.uleb128 0x6
 1694 06bf 03       		.byte	0x3
 1695 06c0 00000000 		.4byte	rlist
 1696 06c4 9F       		.byte	0x9f
 1697 06c5 2C       		.uleb128 0x2c
 1698 06c6 18000000 		.4byte	.Ldebug_ranges0+0x18
 1699 06ca 22       		.uleb128 0x22
ARM GAS  /tmp/cccrq7ad.s 			page 31


 1700 06cb 70050000 		.4byte	0x570
 1701 06cf A1000000 		.4byte	.LLST7
 1702 06d3 00       		.byte	0
 1703 06d4 00       		.byte	0
 1704 06d5 23       		.uleb128 0x23
 1705 06d6 40000000 		.4byte	.Ldebug_ranges0+0x40
 1706 06da 0C070000 		.4byte	0x70c
 1707 06de 2D       		.uleb128 0x2d
 1708 06df 72313300 		.ascii	"r13\000"
 1709 06e3 01       		.byte	0x1
 1710 06e4 80       		.byte	0x80
 1711 06e5 42030000 		.4byte	0x342
 1712 06e9 01       		.uleb128 0x1
 1713 06ea 5D       		.byte	0x5d
 1714 06eb 27       		.uleb128 0x27
 1715 06ec 3C000000 		.4byte	.LVL17
 1716 06f0 770A0000 		.4byte	0xa77
 1717 06f4 02070000 		.4byte	0x702
 1718 06f8 1F       		.uleb128 0x1f
 1719 06f9 01       		.uleb128 0x1
 1720 06fa 50       		.byte	0x50
 1721 06fb 05       		.uleb128 0x5
 1722 06fc 03       		.byte	0x3
 1723 06fd 14000000 		.4byte	.LC1
 1724 0701 00       		.byte	0
 1725 0702 2E       		.uleb128 0x2e
 1726 0703 48000000 		.4byte	.LVL19
 1727 0707 960A0000 		.4byte	0xa96
 1728 070b 00       		.byte	0
 1729 070c 1D       		.uleb128 0x1d
 1730 070d 0A000000 		.4byte	.LVL13
 1731 0711 AD0A0000 		.4byte	0xaad
 1732 0715 1E       		.uleb128 0x1e
 1733 0716 2C000000 		.4byte	.LVL16
 1734 071a B40A0000 		.4byte	0xab4
 1735 071e 1F       		.uleb128 0x1f
 1736 071f 01       		.uleb128 0x1
 1737 0720 50       		.byte	0x50
 1738 0721 02       		.uleb128 0x2
 1739 0722 75       		.byte	0x75
 1740 0723 00       		.sleb128 0
 1741 0724 00       		.byte	0
 1742 0725 00       		.byte	0
 1743 0726 1A       		.uleb128 0x1a
 1744 0727 4E050000 		.4byte	.LASF85
 1745 072b 01       		.byte	0x1
 1746 072c BD       		.byte	0xbd
 1747 072d 01010000 		.4byte	0x101
 1748 0731 00000000 		.4byte	.LFB11
 1749 0735 50000000 		.4byte	.LFE11-.LFB11
 1750 0739 01       		.uleb128 0x1
 1751 073a 9C       		.byte	0x9c
 1752 073b D9070000 		.4byte	0x7d9
 1753 073f 29       		.uleb128 0x29
 1754 0740 95030000 		.4byte	.LASF83
 1755 0744 01       		.byte	0x1
 1756 0745 BD       		.byte	0xbd
ARM GAS  /tmp/cccrq7ad.s 			page 32


 1757 0746 D5000000 		.4byte	0xd5
 1758 074a B4000000 		.4byte	.LLST8
 1759 074e 29       		.uleb128 0x29
 1760 074f F3040000 		.4byte	.LASF86
 1761 0753 01       		.byte	0x1
 1762 0754 BD       		.byte	0xbd
 1763 0755 17010000 		.4byte	0x117
 1764 0759 D5000000 		.4byte	.LLST9
 1765 075d 26       		.uleb128 0x26
 1766 075e 10000000 		.4byte	.LBB47
 1767 0762 1E000000 		.4byte	.LBE47-.LBB47
 1768 0766 BF070000 		.4byte	0x7bf
 1769 076a 2D       		.uleb128 0x2d
 1770 076b 767400   		.ascii	"vt\000"
 1771 076e 01       		.byte	0x1
 1772 076f C2       		.byte	0xc2
 1773 0770 6B030000 		.4byte	0x36b
 1774 0774 02       		.uleb128 0x2
 1775 0775 91       		.byte	0x91
 1776 0776 5C       		.sleb128 -36
 1777 0777 27       		.uleb128 0x27
 1778 0778 1E000000 		.4byte	.LVL22
 1779 077c C50A0000 		.4byte	0xac5
 1780 0780 9A070000 		.4byte	0x79a
 1781 0784 1F       		.uleb128 0x1f
 1782 0785 01       		.uleb128 0x1
 1783 0786 52       		.byte	0x52
 1784 0787 05       		.uleb128 0x5
 1785 0788 03       		.byte	0x3
 1786 0789 00000000 		.4byte	wakeup
 1787 078d 1F       		.uleb128 0x1f
 1788 078e 01       		.uleb128 0x1
 1789 078f 51       		.byte	0x51
 1790 0790 02       		.uleb128 0x2
 1791 0791 74       		.byte	0x74
 1792 0792 00       		.sleb128 0
 1793 0793 1F       		.uleb128 0x1f
 1794 0794 01       		.uleb128 0x1
 1795 0795 50       		.byte	0x50
 1796 0796 02       		.uleb128 0x2
 1797 0797 91       		.byte	0x91
 1798 0798 5C       		.sleb128 -36
 1799 0799 00       		.byte	0
 1800 079a 27       		.uleb128 0x27
 1801 079b 24000000 		.4byte	.LVL23
 1802 079f 73060000 		.4byte	0x673
 1803 07a3 AE070000 		.4byte	0x7ae
 1804 07a7 1F       		.uleb128 0x1f
 1805 07a8 01       		.uleb128 0x1
 1806 07a9 50       		.byte	0x50
 1807 07aa 02       		.uleb128 0x2
 1808 07ab 76       		.byte	0x76
 1809 07ac 00       		.sleb128 0
 1810 07ad 00       		.byte	0
 1811 07ae 1E       		.uleb128 0x1e
 1812 07af 2E000000 		.4byte	.LVL24
 1813 07b3 E50A0000 		.4byte	0xae5
ARM GAS  /tmp/cccrq7ad.s 			page 33


 1814 07b7 1F       		.uleb128 0x1f
 1815 07b8 01       		.uleb128 0x1
 1816 07b9 50       		.byte	0x50
 1817 07ba 02       		.uleb128 0x2
 1818 07bb 91       		.byte	0x91
 1819 07bc 5C       		.sleb128 -36
 1820 07bd 00       		.byte	0
 1821 07be 00       		.byte	0
 1822 07bf 1D       		.uleb128 0x1d
 1823 07c0 0C000000 		.4byte	.LVL21
 1824 07c4 AD0A0000 		.4byte	0xaad
 1825 07c8 1E       		.uleb128 0x1e
 1826 07c9 3E000000 		.4byte	.LVL26
 1827 07cd 73060000 		.4byte	0x673
 1828 07d1 1F       		.uleb128 0x1f
 1829 07d2 01       		.uleb128 0x1
 1830 07d3 50       		.byte	0x50
 1831 07d4 02       		.uleb128 0x2
 1832 07d5 76       		.byte	0x76
 1833 07d6 00       		.sleb128 0
 1834 07d7 00       		.byte	0
 1835 07d8 00       		.byte	0
 1836 07d9 28       		.uleb128 0x28
 1837 07da 7A020000 		.4byte	.LASF88
 1838 07de 01       		.byte	0x1
 1839 07df E1       		.byte	0xe1
 1840 07e0 00000000 		.4byte	.LFB12
 1841 07e4 64000000 		.4byte	.LFE12-.LFB12
 1842 07e8 01       		.uleb128 0x1
 1843 07e9 9C       		.byte	0x9c
 1844 07ea AD080000 		.4byte	0x8ad
 1845 07ee 1B       		.uleb128 0x1b
 1846 07ef 6E747000 		.ascii	"ntp\000"
 1847 07f3 01       		.byte	0x1
 1848 07f4 E1       		.byte	0xe1
 1849 07f5 62020000 		.4byte	0x262
 1850 07f9 01010000 		.4byte	.LLST10
 1851 07fd 1B       		.uleb128 0x1b
 1852 07fe 6D736700 		.ascii	"msg\000"
 1853 0802 01       		.byte	0x1
 1854 0803 E1       		.byte	0xe1
 1855 0804 01010000 		.4byte	0x101
 1856 0808 80010000 		.4byte	.LLST11
 1857 080c 23       		.uleb128 0x23
 1858 080d 58000000 		.4byte	.Ldebug_ranges0+0x58
 1859 0811 92080000 		.4byte	0x892
 1860 0815 1C       		.uleb128 0x1c
 1861 0816 6F747000 		.ascii	"otp\000"
 1862 081a 01       		.byte	0x1
 1863 081b ED       		.byte	0xed
 1864 081c 62020000 		.4byte	0x262
 1865 0820 D1010000 		.4byte	.LLST12
 1866 0824 23       		.uleb128 0x23
 1867 0825 80000000 		.4byte	.Ldebug_ranges0+0x80
 1868 0829 78080000 		.4byte	0x878
 1869 082d 2D       		.uleb128 0x2d
 1870 082e 72313300 		.ascii	"r13\000"
ARM GAS  /tmp/cccrq7ad.s 			page 34


 1871 0832 01       		.byte	0x1
 1872 0833 F0       		.byte	0xf0
 1873 0834 42030000 		.4byte	0x342
 1874 0838 01       		.uleb128 0x1
 1875 0839 5D       		.byte	0x5d
 1876 083a 2F       		.uleb128 0x2f
 1877 083b 40000000 		.4byte	.LVL34
 1878 083f 960A0000 		.4byte	0xa96
 1879 0843 4F080000 		.4byte	0x84f
 1880 0847 1F       		.uleb128 0x1f
 1881 0848 01       		.uleb128 0x1
 1882 0849 50       		.byte	0x50
 1883 084a 03       		.uleb128 0x3
 1884 084b F3       		.byte	0xf3
 1885 084c 01       		.uleb128 0x1
 1886 084d 50       		.byte	0x50
 1887 084e 00       		.byte	0
 1888 084f 27       		.uleb128 0x27
 1889 0850 50000000 		.4byte	.LVL37
 1890 0854 770A0000 		.4byte	0xa77
 1891 0858 66080000 		.4byte	0x866
 1892 085c 1F       		.uleb128 0x1f
 1893 085d 01       		.uleb128 0x1
 1894 085e 50       		.byte	0x50
 1895 085f 05       		.uleb128 0x5
 1896 0860 03       		.byte	0x3
 1897 0861 14000000 		.4byte	.LC1
 1898 0865 00       		.byte	0
 1899 0866 30       		.uleb128 0x30
 1900 0867 5C000000 		.4byte	.LVL39
 1901 086b 960A0000 		.4byte	0xa96
 1902 086f 1F       		.uleb128 0x1f
 1903 0870 01       		.uleb128 0x1
 1904 0871 50       		.byte	0x50
 1905 0872 03       		.uleb128 0x3
 1906 0873 F3       		.byte	0xf3
 1907 0874 01       		.uleb128 0x1
 1908 0875 50       		.byte	0x50
 1909 0876 00       		.byte	0
 1910 0877 00       		.byte	0
 1911 0878 1D       		.uleb128 0x1d
 1912 0879 1C000000 		.4byte	.LVL30
 1913 087d 92050000 		.4byte	0x592
 1914 0881 1E       		.uleb128 0x1e
 1915 0882 2A000000 		.4byte	.LVL32
 1916 0886 B40A0000 		.4byte	0xab4
 1917 088a 1F       		.uleb128 0x1f
 1918 088b 01       		.uleb128 0x1
 1919 088c 50       		.byte	0x50
 1920 088d 02       		.uleb128 0x2
 1921 088e 76       		.byte	0x76
 1922 088f 00       		.sleb128 0
 1923 0890 00       		.byte	0
 1924 0891 00       		.byte	0
 1925 0892 1D       		.uleb128 0x1d
 1926 0893 0C000000 		.4byte	.LVL29
 1927 0897 AD0A0000 		.4byte	0xaad
ARM GAS  /tmp/cccrq7ad.s 			page 35


 1928 089b 30       		.uleb128 0x30
 1929 089c 4A000000 		.4byte	.LVL36
 1930 08a0 92050000 		.4byte	0x592
 1931 08a4 1F       		.uleb128 0x1f
 1932 08a5 01       		.uleb128 0x1
 1933 08a6 50       		.byte	0x50
 1934 08a7 03       		.uleb128 0x3
 1935 08a8 F3       		.byte	0xf3
 1936 08a9 01       		.uleb128 0x1
 1937 08aa 50       		.byte	0x50
 1938 08ab 00       		.byte	0
 1939 08ac 00       		.byte	0
 1940 08ad 31       		.uleb128 0x31
 1941 08ae 01030000 		.4byte	.LASF89
 1942 08b2 01       		.byte	0x1
 1943 08b3 3001     		.2byte	0x130
 1944 08b5 00000000 		.4byte	.LFB14
 1945 08b9 4C000000 		.4byte	.LFE14-.LFB14
 1946 08bd 01       		.uleb128 0x1
 1947 08be 9C       		.byte	0x9c
 1948 08bf 60090000 		.4byte	0x960
 1949 08c3 32       		.uleb128 0x32
 1950 08c4 6F747000 		.ascii	"otp\000"
 1951 08c8 01       		.byte	0x1
 1952 08c9 3101     		.2byte	0x131
 1953 08cb 62020000 		.4byte	0x262
 1954 08cf 10020000 		.4byte	.LLST13
 1955 08d3 33       		.uleb128 0x33
 1956 08d4 55050000 		.4byte	0x555
 1957 08d8 04000000 		.4byte	.LBB56
 1958 08dc A8000000 		.4byte	.Ldebug_ranges0+0xa8
 1959 08e0 01       		.byte	0x1
 1960 08e1 3501     		.2byte	0x135
 1961 08e3 03090000 		.4byte	0x903
 1962 08e7 2B       		.uleb128 0x2b
 1963 08e8 65050000 		.4byte	0x565
 1964 08ec 06       		.uleb128 0x6
 1965 08ed 03       		.byte	0x3
 1966 08ee 00000000 		.4byte	rlist
 1967 08f2 9F       		.byte	0x9f
 1968 08f3 2C       		.uleb128 0x2c
 1969 08f4 A8000000 		.4byte	.Ldebug_ranges0+0xa8
 1970 08f8 22       		.uleb128 0x22
 1971 08f9 70050000 		.4byte	0x570
 1972 08fd 2E020000 		.4byte	.LLST14
 1973 0901 00       		.byte	0
 1974 0902 00       		.byte	0
 1975 0903 23       		.uleb128 0x23
 1976 0904 C8000000 		.4byte	.Ldebug_ranges0+0xc8
 1977 0908 3B090000 		.4byte	0x93b
 1978 090c 34       		.uleb128 0x34
 1979 090d 72313300 		.ascii	"r13\000"
 1980 0911 01       		.byte	0x1
 1981 0912 3B01     		.2byte	0x13b
 1982 0914 42030000 		.4byte	0x342
 1983 0918 01       		.uleb128 0x1
 1984 0919 5D       		.byte	0x5d
ARM GAS  /tmp/cccrq7ad.s 			page 36


 1985 091a 27       		.uleb128 0x27
 1986 091b 38000000 		.4byte	.LVL43
 1987 091f 770A0000 		.4byte	0xa77
 1988 0923 31090000 		.4byte	0x931
 1989 0927 1F       		.uleb128 0x1f
 1990 0928 01       		.uleb128 0x1
 1991 0929 50       		.byte	0x50
 1992 092a 05       		.uleb128 0x5
 1993 092b 03       		.byte	0x3
 1994 092c 14000000 		.4byte	.LC1
 1995 0930 00       		.byte	0
 1996 0931 2E       		.uleb128 0x2e
 1997 0932 44000000 		.4byte	.LVL45
 1998 0936 960A0000 		.4byte	0xa96
 1999 093a 00       		.byte	0
 2000 093b 27       		.uleb128 0x27
 2001 093c 22000000 		.4byte	.LVL41
 2002 0940 92050000 		.4byte	0x592
 2003 0944 4F090000 		.4byte	0x94f
 2004 0948 1F       		.uleb128 0x1f
 2005 0949 01       		.uleb128 0x1
 2006 094a 50       		.byte	0x50
 2007 094b 02       		.uleb128 0x2
 2008 094c 75       		.byte	0x75
 2009 094d 00       		.sleb128 0
 2010 094e 00       		.byte	0
 2011 094f 1E       		.uleb128 0x1e
 2012 0950 28000000 		.4byte	.LVL42
 2013 0954 B40A0000 		.4byte	0xab4
 2014 0958 1F       		.uleb128 0x1f
 2015 0959 01       		.uleb128 0x1
 2016 095a 50       		.byte	0x50
 2017 095b 02       		.uleb128 0x2
 2018 095c 75       		.byte	0x75
 2019 095d 00       		.sleb128 0
 2020 095e 00       		.byte	0
 2021 095f 00       		.byte	0
 2022 0960 31       		.uleb128 0x31
 2023 0961 21000000 		.4byte	.LASF90
 2024 0965 01       		.byte	0x1
 2025 0966 4901     		.2byte	0x149
 2026 0968 00000000 		.4byte	.LFB15
 2027 096c 60000000 		.4byte	.LFE15-.LFB15
 2028 0970 01       		.uleb128 0x1
 2029 0971 9C       		.byte	0x9c
 2030 0972 0E0A0000 		.4byte	0xa0e
 2031 0976 32       		.uleb128 0x32
 2032 0977 6F747000 		.ascii	"otp\000"
 2033 097b 01       		.byte	0x1
 2034 097c 4A01     		.2byte	0x14a
 2035 097e 62020000 		.4byte	0x262
 2036 0982 41020000 		.4byte	.LLST15
 2037 0986 32       		.uleb128 0x32
 2038 0987 637000   		.ascii	"cp\000"
 2039 098a 01       		.byte	0x1
 2040 098b 4A01     		.2byte	0x14a
 2041 098d 62020000 		.4byte	0x262
ARM GAS  /tmp/cccrq7ad.s 			page 37


 2042 0991 5F020000 		.4byte	.LLST16
 2043 0995 33       		.uleb128 0x33
 2044 0996 55050000 		.4byte	0x555
 2045 099a 04000000 		.4byte	.LBB64
 2046 099e E0000000 		.4byte	.Ldebug_ranges0+0xe0
 2047 09a2 01       		.byte	0x1
 2048 09a3 4E01     		.2byte	0x14e
 2049 09a5 C5090000 		.4byte	0x9c5
 2050 09a9 2B       		.uleb128 0x2b
 2051 09aa 65050000 		.4byte	0x565
 2052 09ae 06       		.uleb128 0x6
 2053 09af 03       		.byte	0x3
 2054 09b0 00000000 		.4byte	rlist
 2055 09b4 9F       		.byte	0x9f
 2056 09b5 2C       		.uleb128 0x2c
 2057 09b6 E0000000 		.4byte	.Ldebug_ranges0+0xe0
 2058 09ba 22       		.uleb128 0x22
 2059 09bb 70050000 		.4byte	0x570
 2060 09bf 82020000 		.4byte	.LLST17
 2061 09c3 00       		.byte	0
 2062 09c4 00       		.byte	0
 2063 09c5 23       		.uleb128 0x23
 2064 09c6 00010000 		.4byte	.Ldebug_ranges0+0x100
 2065 09ca FD090000 		.4byte	0x9fd
 2066 09ce 34       		.uleb128 0x34
 2067 09cf 72313300 		.ascii	"r13\000"
 2068 09d3 01       		.byte	0x1
 2069 09d4 5B01     		.2byte	0x15b
 2070 09d6 42030000 		.4byte	0x342
 2071 09da 01       		.uleb128 0x1
 2072 09db 5D       		.byte	0x5d
 2073 09dc 27       		.uleb128 0x27
 2074 09dd 4A000000 		.4byte	.LVL51
 2075 09e1 770A0000 		.4byte	0xa77
 2076 09e5 F3090000 		.4byte	0x9f3
 2077 09e9 1F       		.uleb128 0x1f
 2078 09ea 01       		.uleb128 0x1
 2079 09eb 50       		.byte	0x50
 2080 09ec 05       		.uleb128 0x5
 2081 09ed 03       		.byte	0x3
 2082 09ee 14000000 		.4byte	.LC1
 2083 09f2 00       		.byte	0
 2084 09f3 2E       		.uleb128 0x2e
 2085 09f4 56000000 		.4byte	.LVL53
 2086 09f8 960A0000 		.4byte	0xa96
 2087 09fc 00       		.byte	0
 2088 09fd 1E       		.uleb128 0x1e
 2089 09fe 3A000000 		.4byte	.LVL50
 2090 0a02 B40A0000 		.4byte	0xab4
 2091 0a06 1F       		.uleb128 0x1f
 2092 0a07 01       		.uleb128 0x1
 2093 0a08 50       		.byte	0x50
 2094 0a09 02       		.uleb128 0x2
 2095 0a0a 74       		.byte	0x74
 2096 0a0b 00       		.sleb128 0
 2097 0a0c 00       		.byte	0
 2098 0a0d 00       		.byte	0
ARM GAS  /tmp/cccrq7ad.s 			page 38


 2099 0a0e 28       		.uleb128 0x28
 2100 0a0f A3010000 		.4byte	.LASF91
 2101 0a13 01       		.byte	0x1
 2102 0a14 FD       		.byte	0xfd
 2103 0a15 00000000 		.4byte	.LFB13
 2104 0a19 24000000 		.4byte	.LFE13-.LFB13
 2105 0a1d 01       		.uleb128 0x1
 2106 0a1e 9C       		.byte	0x9c
 2107 0a1f 360A0000 		.4byte	0xa36
 2108 0a23 1D       		.uleb128 0x1d
 2109 0a24 06000000 		.4byte	.LVL54
 2110 0a28 AD0A0000 		.4byte	0xaad
 2111 0a2c 2E       		.uleb128 0x2e
 2112 0a2d 1E000000 		.4byte	.LVL55
 2113 0a31 60090000 		.4byte	0x960
 2114 0a35 00       		.byte	0
 2115 0a36 31       		.uleb128 0x31
 2116 0a37 D0010000 		.4byte	.LASF92
 2117 0a3b 01       		.byte	0x1
 2118 0a3c 6A01     		.2byte	0x16a
 2119 0a3e 00000000 		.4byte	.LFB16
 2120 0a42 18000000 		.4byte	.LFE16-.LFB16
 2121 0a46 01       		.uleb128 0x1
 2122 0a47 9C       		.byte	0x9c
 2123 0a48 5F0A0000 		.4byte	0xa5f
 2124 0a4c 2E       		.uleb128 0x2e
 2125 0a4d 0E000000 		.4byte	.LVL56
 2126 0a51 60090000 		.4byte	0x960
 2127 0a55 2E       		.uleb128 0x2e
 2128 0a56 12000000 		.4byte	.LVL57
 2129 0a5a AD080000 		.4byte	0x8ad
 2130 0a5e 00       		.byte	0
 2131 0a5f 35       		.uleb128 0x35
 2132 0a60 1A050000 		.4byte	.LASF106
 2133 0a64 01       		.byte	0x1
 2134 0a65 2F       		.byte	0x2f
 2135 0a66 1B040000 		.4byte	0x41b
 2136 0a6a 05       		.uleb128 0x5
 2137 0a6b 03       		.byte	0x3
 2138 0a6c 00000000 		.4byte	rlist
 2139 0a70 36       		.uleb128 0x36
 2140 0a71 95020000 		.4byte	.LASF93
 2141 0a75 0D       		.byte	0xd
 2142 0a76 ED       		.byte	0xed
 2143 0a77 37       		.uleb128 0x37
 2144 0a78 06000000 		.4byte	.LASF96
 2145 0a7c 0D       		.byte	0xd
 2146 0a7d F6       		.byte	0xf6
 2147 0a7e 880A0000 		.4byte	0xa88
 2148 0a82 0E       		.uleb128 0xe
 2149 0a83 CD040000 		.4byte	0x4cd
 2150 0a87 00       		.byte	0
 2151 0a88 36       		.uleb128 0x36
 2152 0a89 28050000 		.4byte	.LASF94
 2153 0a8d 0D       		.byte	0xd
 2154 0a8e E9       		.byte	0xe9
 2155 0a8f 36       		.uleb128 0x36
ARM GAS  /tmp/cccrq7ad.s 			page 39


 2156 0a90 46010000 		.4byte	.LASF95
 2157 0a94 0D       		.byte	0xd
 2158 0a95 EA       		.byte	0xea
 2159 0a96 38       		.uleb128 0x38
 2160 0a97 19020000 		.4byte	.LASF97
 2161 0a9b 08       		.byte	0x8
 2162 0a9c 0602     		.2byte	0x206
 2163 0a9e AD0A0000 		.4byte	0xaad
 2164 0aa2 0E       		.uleb128 0xe
 2165 0aa3 62020000 		.4byte	0x262
 2166 0aa7 0E       		.uleb128 0xe
 2167 0aa8 62020000 		.4byte	0x262
 2168 0aac 00       		.byte	0
 2169 0aad 36       		.uleb128 0x36
 2170 0aae AE020000 		.4byte	.LASF98
 2171 0ab2 0D       		.byte	0xd
 2172 0ab3 EE       		.byte	0xee
 2173 0ab4 37       		.uleb128 0x37
 2174 0ab5 0F020000 		.4byte	.LASF99
 2175 0ab9 0D       		.byte	0xd
 2176 0aba F2       		.byte	0xf2
 2177 0abb C50A0000 		.4byte	0xac5
 2178 0abf 0E       		.uleb128 0xe
 2179 0ac0 62020000 		.4byte	0x262
 2180 0ac4 00       		.byte	0
 2181 0ac5 37       		.uleb128 0x37
 2182 0ac6 19030000 		.4byte	.LASF100
 2183 0aca 09       		.byte	0x9
 2184 0acb FE       		.byte	0xfe
 2185 0acc E50A0000 		.4byte	0xae5
 2186 0ad0 0E       		.uleb128 0xe
 2187 0ad1 BF030000 		.4byte	0x3bf
 2188 0ad5 0E       		.uleb128 0xe
 2189 0ad6 17010000 		.4byte	0x117
 2190 0ada 0E       		.uleb128 0xe
 2191 0adb 4F030000 		.4byte	0x34f
 2192 0adf 0E       		.uleb128 0xe
 2193 0ae0 9E020000 		.4byte	0x29e
 2194 0ae4 00       		.byte	0
 2195 0ae5 39       		.uleb128 0x39
 2196 0ae6 49040000 		.4byte	.LASF107
 2197 0aea 09       		.byte	0x9
 2198 0aeb FF       		.byte	0xff
 2199 0aec 0E       		.uleb128 0xe
 2200 0aed BF030000 		.4byte	0x3bf
 2201 0af1 00       		.byte	0
 2202 0af2 00       		.byte	0
 2203              		.section	.debug_abbrev,"",%progbits
 2204              	.Ldebug_abbrev0:
 2205 0000 01       		.uleb128 0x1
 2206 0001 11       		.uleb128 0x11
 2207 0002 01       		.byte	0x1
 2208 0003 25       		.uleb128 0x25
 2209 0004 0E       		.uleb128 0xe
 2210 0005 13       		.uleb128 0x13
 2211 0006 0B       		.uleb128 0xb
 2212 0007 03       		.uleb128 0x3
ARM GAS  /tmp/cccrq7ad.s 			page 40


 2213 0008 0E       		.uleb128 0xe
 2214 0009 1B       		.uleb128 0x1b
 2215 000a 0E       		.uleb128 0xe
 2216 000b 55       		.uleb128 0x55
 2217 000c 17       		.uleb128 0x17
 2218 000d 11       		.uleb128 0x11
 2219 000e 01       		.uleb128 0x1
 2220 000f 10       		.uleb128 0x10
 2221 0010 17       		.uleb128 0x17
 2222 0011 00       		.byte	0
 2223 0012 00       		.byte	0
 2224 0013 02       		.uleb128 0x2
 2225 0014 24       		.uleb128 0x24
 2226 0015 00       		.byte	0
 2227 0016 0B       		.uleb128 0xb
 2228 0017 0B       		.uleb128 0xb
 2229 0018 3E       		.uleb128 0x3e
 2230 0019 0B       		.uleb128 0xb
 2231 001a 03       		.uleb128 0x3
 2232 001b 08       		.uleb128 0x8
 2233 001c 00       		.byte	0
 2234 001d 00       		.byte	0
 2235 001e 03       		.uleb128 0x3
 2236 001f 24       		.uleb128 0x24
 2237 0020 00       		.byte	0
 2238 0021 0B       		.uleb128 0xb
 2239 0022 0B       		.uleb128 0xb
 2240 0023 3E       		.uleb128 0x3e
 2241 0024 0B       		.uleb128 0xb
 2242 0025 03       		.uleb128 0x3
 2243 0026 0E       		.uleb128 0xe
 2244 0027 00       		.byte	0
 2245 0028 00       		.byte	0
 2246 0029 04       		.uleb128 0x4
 2247 002a 16       		.uleb128 0x16
 2248 002b 00       		.byte	0
 2249 002c 03       		.uleb128 0x3
 2250 002d 0E       		.uleb128 0xe
 2251 002e 3A       		.uleb128 0x3a
 2252 002f 0B       		.uleb128 0xb
 2253 0030 3B       		.uleb128 0x3b
 2254 0031 0B       		.uleb128 0xb
 2255 0032 49       		.uleb128 0x49
 2256 0033 13       		.uleb128 0x13
 2257 0034 00       		.byte	0
 2258 0035 00       		.byte	0
 2259 0036 05       		.uleb128 0x5
 2260 0037 13       		.uleb128 0x13
 2261 0038 01       		.byte	0x1
 2262 0039 03       		.uleb128 0x3
 2263 003a 0E       		.uleb128 0xe
 2264 003b 0B       		.uleb128 0xb
 2265 003c 0B       		.uleb128 0xb
 2266 003d 3A       		.uleb128 0x3a
 2267 003e 0B       		.uleb128 0xb
 2268 003f 3B       		.uleb128 0x3b
 2269 0040 0B       		.uleb128 0xb
ARM GAS  /tmp/cccrq7ad.s 			page 41


 2270 0041 01       		.uleb128 0x1
 2271 0042 13       		.uleb128 0x13
 2272 0043 00       		.byte	0
 2273 0044 00       		.byte	0
 2274 0045 06       		.uleb128 0x6
 2275 0046 0D       		.uleb128 0xd
 2276 0047 00       		.byte	0
 2277 0048 03       		.uleb128 0x3
 2278 0049 0E       		.uleb128 0xe
 2279 004a 3A       		.uleb128 0x3a
 2280 004b 0B       		.uleb128 0xb
 2281 004c 3B       		.uleb128 0x3b
 2282 004d 0B       		.uleb128 0xb
 2283 004e 49       		.uleb128 0x49
 2284 004f 13       		.uleb128 0x13
 2285 0050 38       		.uleb128 0x38
 2286 0051 0B       		.uleb128 0xb
 2287 0052 00       		.byte	0
 2288 0053 00       		.byte	0
 2289 0054 07       		.uleb128 0x7
 2290 0055 0D       		.uleb128 0xd
 2291 0056 00       		.byte	0
 2292 0057 03       		.uleb128 0x3
 2293 0058 08       		.uleb128 0x8
 2294 0059 3A       		.uleb128 0x3a
 2295 005a 0B       		.uleb128 0xb
 2296 005b 3B       		.uleb128 0x3b
 2297 005c 0B       		.uleb128 0xb
 2298 005d 49       		.uleb128 0x49
 2299 005e 13       		.uleb128 0x13
 2300 005f 38       		.uleb128 0x38
 2301 0060 0B       		.uleb128 0xb
 2302 0061 00       		.byte	0
 2303 0062 00       		.byte	0
 2304 0063 08       		.uleb128 0x8
 2305 0064 13       		.uleb128 0x13
 2306 0065 01       		.byte	0x1
 2307 0066 0B       		.uleb128 0xb
 2308 0067 0B       		.uleb128 0xb
 2309 0068 3A       		.uleb128 0x3a
 2310 0069 0B       		.uleb128 0xb
 2311 006a 3B       		.uleb128 0x3b
 2312 006b 0B       		.uleb128 0xb
 2313 006c 01       		.uleb128 0x1
 2314 006d 13       		.uleb128 0x13
 2315 006e 00       		.byte	0
 2316 006f 00       		.byte	0
 2317 0070 09       		.uleb128 0x9
 2318 0071 0F       		.uleb128 0xf
 2319 0072 00       		.byte	0
 2320 0073 0B       		.uleb128 0xb
 2321 0074 0B       		.uleb128 0xb
 2322 0075 49       		.uleb128 0x49
 2323 0076 13       		.uleb128 0x13
 2324 0077 00       		.byte	0
 2325 0078 00       		.byte	0
 2326 0079 0A       		.uleb128 0xa
ARM GAS  /tmp/cccrq7ad.s 			page 42


 2327 007a 0F       		.uleb128 0xf
 2328 007b 00       		.byte	0
 2329 007c 0B       		.uleb128 0xb
 2330 007d 0B       		.uleb128 0xb
 2331 007e 00       		.byte	0
 2332 007f 00       		.byte	0
 2333 0080 0B       		.uleb128 0xb
 2334 0081 13       		.uleb128 0x13
 2335 0082 01       		.byte	0x1
 2336 0083 03       		.uleb128 0x3
 2337 0084 0E       		.uleb128 0xe
 2338 0085 0B       		.uleb128 0xb
 2339 0086 0B       		.uleb128 0xb
 2340 0087 3A       		.uleb128 0x3a
 2341 0088 0B       		.uleb128 0xb
 2342 0089 3B       		.uleb128 0x3b
 2343 008a 05       		.uleb128 0x5
 2344 008b 01       		.uleb128 0x1
 2345 008c 13       		.uleb128 0x13
 2346 008d 00       		.byte	0
 2347 008e 00       		.byte	0
 2348 008f 0C       		.uleb128 0xc
 2349 0090 0D       		.uleb128 0xd
 2350 0091 00       		.byte	0
 2351 0092 03       		.uleb128 0x3
 2352 0093 08       		.uleb128 0x8
 2353 0094 3A       		.uleb128 0x3a
 2354 0095 0B       		.uleb128 0xb
 2355 0096 3B       		.uleb128 0x3b
 2356 0097 05       		.uleb128 0x5
 2357 0098 49       		.uleb128 0x49
 2358 0099 13       		.uleb128 0x13
 2359 009a 38       		.uleb128 0x38
 2360 009b 0B       		.uleb128 0xb
 2361 009c 00       		.byte	0
 2362 009d 00       		.byte	0
 2363 009e 0D       		.uleb128 0xd
 2364 009f 15       		.uleb128 0x15
 2365 00a0 01       		.byte	0x1
 2366 00a1 27       		.uleb128 0x27
 2367 00a2 19       		.uleb128 0x19
 2368 00a3 01       		.uleb128 0x1
 2369 00a4 13       		.uleb128 0x13
 2370 00a5 00       		.byte	0
 2371 00a6 00       		.byte	0
 2372 00a7 0E       		.uleb128 0xe
 2373 00a8 05       		.uleb128 0x5
 2374 00a9 00       		.byte	0
 2375 00aa 49       		.uleb128 0x49
 2376 00ab 13       		.uleb128 0x13
 2377 00ac 00       		.byte	0
 2378 00ad 00       		.byte	0
 2379 00ae 0F       		.uleb128 0xf
 2380 00af 35       		.uleb128 0x35
 2381 00b0 00       		.byte	0
 2382 00b1 49       		.uleb128 0x49
 2383 00b2 13       		.uleb128 0x13
ARM GAS  /tmp/cccrq7ad.s 			page 43


 2384 00b3 00       		.byte	0
 2385 00b4 00       		.byte	0
 2386 00b5 10       		.uleb128 0x10
 2387 00b6 17       		.uleb128 0x17
 2388 00b7 01       		.byte	0x1
 2389 00b8 0B       		.uleb128 0xb
 2390 00b9 0B       		.uleb128 0xb
 2391 00ba 3A       		.uleb128 0x3a
 2392 00bb 0B       		.uleb128 0xb
 2393 00bc 3B       		.uleb128 0x3b
 2394 00bd 0B       		.uleb128 0xb
 2395 00be 01       		.uleb128 0x1
 2396 00bf 13       		.uleb128 0x13
 2397 00c0 00       		.byte	0
 2398 00c1 00       		.byte	0
 2399 00c2 11       		.uleb128 0x11
 2400 00c3 0D       		.uleb128 0xd
 2401 00c4 00       		.byte	0
 2402 00c5 03       		.uleb128 0x3
 2403 00c6 0E       		.uleb128 0xe
 2404 00c7 3A       		.uleb128 0x3a
 2405 00c8 0B       		.uleb128 0xb
 2406 00c9 3B       		.uleb128 0x3b
 2407 00ca 0B       		.uleb128 0xb
 2408 00cb 49       		.uleb128 0x49
 2409 00cc 13       		.uleb128 0x13
 2410 00cd 00       		.byte	0
 2411 00ce 00       		.byte	0
 2412 00cf 12       		.uleb128 0x12
 2413 00d0 26       		.uleb128 0x26
 2414 00d1 00       		.byte	0
 2415 00d2 49       		.uleb128 0x49
 2416 00d3 13       		.uleb128 0x13
 2417 00d4 00       		.byte	0
 2418 00d5 00       		.byte	0
 2419 00d6 13       		.uleb128 0x13
 2420 00d7 2E       		.uleb128 0x2e
 2421 00d8 01       		.byte	0x1
 2422 00d9 03       		.uleb128 0x3
 2423 00da 0E       		.uleb128 0xe
 2424 00db 3A       		.uleb128 0x3a
 2425 00dc 0B       		.uleb128 0xb
 2426 00dd 3B       		.uleb128 0x3b
 2427 00de 0B       		.uleb128 0xb
 2428 00df 27       		.uleb128 0x27
 2429 00e0 19       		.uleb128 0x19
 2430 00e1 49       		.uleb128 0x49
 2431 00e2 13       		.uleb128 0x13
 2432 00e3 20       		.uleb128 0x20
 2433 00e4 0B       		.uleb128 0xb
 2434 00e5 01       		.uleb128 0x1
 2435 00e6 13       		.uleb128 0x13
 2436 00e7 00       		.byte	0
 2437 00e8 00       		.byte	0
 2438 00e9 14       		.uleb128 0x14
 2439 00ea 05       		.uleb128 0x5
 2440 00eb 00       		.byte	0
ARM GAS  /tmp/cccrq7ad.s 			page 44


 2441 00ec 03       		.uleb128 0x3
 2442 00ed 08       		.uleb128 0x8
 2443 00ee 3A       		.uleb128 0x3a
 2444 00ef 0B       		.uleb128 0xb
 2445 00f0 3B       		.uleb128 0x3b
 2446 00f1 0B       		.uleb128 0xb
 2447 00f2 49       		.uleb128 0x49
 2448 00f3 13       		.uleb128 0x13
 2449 00f4 00       		.byte	0
 2450 00f5 00       		.byte	0
 2451 00f6 15       		.uleb128 0x15
 2452 00f7 2E       		.uleb128 0x2e
 2453 00f8 01       		.byte	0x1
 2454 00f9 03       		.uleb128 0x3
 2455 00fa 0E       		.uleb128 0xe
 2456 00fb 3A       		.uleb128 0x3a
 2457 00fc 0B       		.uleb128 0xb
 2458 00fd 3B       		.uleb128 0x3b
 2459 00fe 0B       		.uleb128 0xb
 2460 00ff 27       		.uleb128 0x27
 2461 0100 19       		.uleb128 0x19
 2462 0101 20       		.uleb128 0x20
 2463 0102 0B       		.uleb128 0xb
 2464 0103 01       		.uleb128 0x1
 2465 0104 13       		.uleb128 0x13
 2466 0105 00       		.byte	0
 2467 0106 00       		.byte	0
 2468 0107 16       		.uleb128 0x16
 2469 0108 34       		.uleb128 0x34
 2470 0109 00       		.byte	0
 2471 010a 03       		.uleb128 0x3
 2472 010b 08       		.uleb128 0x8
 2473 010c 3A       		.uleb128 0x3a
 2474 010d 0B       		.uleb128 0xb
 2475 010e 3B       		.uleb128 0x3b
 2476 010f 0B       		.uleb128 0xb
 2477 0110 49       		.uleb128 0x49
 2478 0111 13       		.uleb128 0x13
 2479 0112 00       		.byte	0
 2480 0113 00       		.byte	0
 2481 0114 17       		.uleb128 0x17
 2482 0115 0B       		.uleb128 0xb
 2483 0116 01       		.byte	0x1
 2484 0117 01       		.uleb128 0x1
 2485 0118 13       		.uleb128 0x13
 2486 0119 00       		.byte	0
 2487 011a 00       		.byte	0
 2488 011b 18       		.uleb128 0x18
 2489 011c 0B       		.uleb128 0xb
 2490 011d 01       		.byte	0x1
 2491 011e 00       		.byte	0
 2492 011f 00       		.byte	0
 2493 0120 19       		.uleb128 0x19
 2494 0121 2E       		.uleb128 0x2e
 2495 0122 00       		.byte	0
 2496 0123 3F       		.uleb128 0x3f
 2497 0124 19       		.uleb128 0x19
ARM GAS  /tmp/cccrq7ad.s 			page 45


 2498 0125 03       		.uleb128 0x3
 2499 0126 0E       		.uleb128 0xe
 2500 0127 3A       		.uleb128 0x3a
 2501 0128 0B       		.uleb128 0xb
 2502 0129 3B       		.uleb128 0x3b
 2503 012a 0B       		.uleb128 0xb
 2504 012b 27       		.uleb128 0x27
 2505 012c 19       		.uleb128 0x19
 2506 012d 11       		.uleb128 0x11
 2507 012e 01       		.uleb128 0x1
 2508 012f 12       		.uleb128 0x12
 2509 0130 06       		.uleb128 0x6
 2510 0131 40       		.uleb128 0x40
 2511 0132 18       		.uleb128 0x18
 2512 0133 9742     		.uleb128 0x2117
 2513 0135 19       		.uleb128 0x19
 2514 0136 00       		.byte	0
 2515 0137 00       		.byte	0
 2516 0138 1A       		.uleb128 0x1a
 2517 0139 2E       		.uleb128 0x2e
 2518 013a 01       		.byte	0x1
 2519 013b 3F       		.uleb128 0x3f
 2520 013c 19       		.uleb128 0x19
 2521 013d 03       		.uleb128 0x3
 2522 013e 0E       		.uleb128 0xe
 2523 013f 3A       		.uleb128 0x3a
 2524 0140 0B       		.uleb128 0xb
 2525 0141 3B       		.uleb128 0x3b
 2526 0142 0B       		.uleb128 0xb
 2527 0143 27       		.uleb128 0x27
 2528 0144 19       		.uleb128 0x19
 2529 0145 49       		.uleb128 0x49
 2530 0146 13       		.uleb128 0x13
 2531 0147 11       		.uleb128 0x11
 2532 0148 01       		.uleb128 0x1
 2533 0149 12       		.uleb128 0x12
 2534 014a 06       		.uleb128 0x6
 2535 014b 40       		.uleb128 0x40
 2536 014c 18       		.uleb128 0x18
 2537 014d 9742     		.uleb128 0x2117
 2538 014f 19       		.uleb128 0x19
 2539 0150 01       		.uleb128 0x1
 2540 0151 13       		.uleb128 0x13
 2541 0152 00       		.byte	0
 2542 0153 00       		.byte	0
 2543 0154 1B       		.uleb128 0x1b
 2544 0155 05       		.uleb128 0x5
 2545 0156 00       		.byte	0
 2546 0157 03       		.uleb128 0x3
 2547 0158 08       		.uleb128 0x8
 2548 0159 3A       		.uleb128 0x3a
 2549 015a 0B       		.uleb128 0xb
 2550 015b 3B       		.uleb128 0x3b
 2551 015c 0B       		.uleb128 0xb
 2552 015d 49       		.uleb128 0x49
 2553 015e 13       		.uleb128 0x13
 2554 015f 02       		.uleb128 0x2
ARM GAS  /tmp/cccrq7ad.s 			page 46


 2555 0160 17       		.uleb128 0x17
 2556 0161 00       		.byte	0
 2557 0162 00       		.byte	0
 2558 0163 1C       		.uleb128 0x1c
 2559 0164 34       		.uleb128 0x34
 2560 0165 00       		.byte	0
 2561 0166 03       		.uleb128 0x3
 2562 0167 08       		.uleb128 0x8
 2563 0168 3A       		.uleb128 0x3a
 2564 0169 0B       		.uleb128 0xb
 2565 016a 3B       		.uleb128 0x3b
 2566 016b 0B       		.uleb128 0xb
 2567 016c 49       		.uleb128 0x49
 2568 016d 13       		.uleb128 0x13
 2569 016e 02       		.uleb128 0x2
 2570 016f 17       		.uleb128 0x17
 2571 0170 00       		.byte	0
 2572 0171 00       		.byte	0
 2573 0172 1D       		.uleb128 0x1d
 2574 0173 898201   		.uleb128 0x4109
 2575 0176 00       		.byte	0
 2576 0177 11       		.uleb128 0x11
 2577 0178 01       		.uleb128 0x1
 2578 0179 31       		.uleb128 0x31
 2579 017a 13       		.uleb128 0x13
 2580 017b 00       		.byte	0
 2581 017c 00       		.byte	0
 2582 017d 1E       		.uleb128 0x1e
 2583 017e 898201   		.uleb128 0x4109
 2584 0181 01       		.byte	0x1
 2585 0182 11       		.uleb128 0x11
 2586 0183 01       		.uleb128 0x1
 2587 0184 31       		.uleb128 0x31
 2588 0185 13       		.uleb128 0x13
 2589 0186 00       		.byte	0
 2590 0187 00       		.byte	0
 2591 0188 1F       		.uleb128 0x1f
 2592 0189 8A8201   		.uleb128 0x410a
 2593 018c 00       		.byte	0
 2594 018d 02       		.uleb128 0x2
 2595 018e 18       		.uleb128 0x18
 2596 018f 9142     		.uleb128 0x2111
 2597 0191 18       		.uleb128 0x18
 2598 0192 00       		.byte	0
 2599 0193 00       		.byte	0
 2600 0194 20       		.uleb128 0x20
 2601 0195 2E       		.uleb128 0x2e
 2602 0196 01       		.byte	0x1
 2603 0197 31       		.uleb128 0x31
 2604 0198 13       		.uleb128 0x13
 2605 0199 11       		.uleb128 0x11
 2606 019a 01       		.uleb128 0x1
 2607 019b 12       		.uleb128 0x12
 2608 019c 06       		.uleb128 0x6
 2609 019d 40       		.uleb128 0x40
 2610 019e 18       		.uleb128 0x18
 2611 019f 9742     		.uleb128 0x2117
ARM GAS  /tmp/cccrq7ad.s 			page 47


 2612 01a1 19       		.uleb128 0x19
 2613 01a2 01       		.uleb128 0x1
 2614 01a3 13       		.uleb128 0x13
 2615 01a4 00       		.byte	0
 2616 01a5 00       		.byte	0
 2617 01a6 21       		.uleb128 0x21
 2618 01a7 05       		.uleb128 0x5
 2619 01a8 00       		.byte	0
 2620 01a9 31       		.uleb128 0x31
 2621 01aa 13       		.uleb128 0x13
 2622 01ab 02       		.uleb128 0x2
 2623 01ac 17       		.uleb128 0x17
 2624 01ad 00       		.byte	0
 2625 01ae 00       		.byte	0
 2626 01af 22       		.uleb128 0x22
 2627 01b0 34       		.uleb128 0x34
 2628 01b1 00       		.byte	0
 2629 01b2 31       		.uleb128 0x31
 2630 01b3 13       		.uleb128 0x13
 2631 01b4 02       		.uleb128 0x2
 2632 01b5 17       		.uleb128 0x17
 2633 01b6 00       		.byte	0
 2634 01b7 00       		.byte	0
 2635 01b8 23       		.uleb128 0x23
 2636 01b9 0B       		.uleb128 0xb
 2637 01ba 01       		.byte	0x1
 2638 01bb 55       		.uleb128 0x55
 2639 01bc 17       		.uleb128 0x17
 2640 01bd 01       		.uleb128 0x1
 2641 01be 13       		.uleb128 0x13
 2642 01bf 00       		.byte	0
 2643 01c0 00       		.byte	0
 2644 01c1 24       		.uleb128 0x24
 2645 01c2 34       		.uleb128 0x34
 2646 01c3 00       		.byte	0
 2647 01c4 31       		.uleb128 0x31
 2648 01c5 13       		.uleb128 0x13
 2649 01c6 02       		.uleb128 0x2
 2650 01c7 18       		.uleb128 0x18
 2651 01c8 00       		.byte	0
 2652 01c9 00       		.byte	0
 2653 01ca 25       		.uleb128 0x25
 2654 01cb 1D       		.uleb128 0x1d
 2655 01cc 01       		.byte	0x1
 2656 01cd 31       		.uleb128 0x31
 2657 01ce 13       		.uleb128 0x13
 2658 01cf 11       		.uleb128 0x11
 2659 01d0 01       		.uleb128 0x1
 2660 01d1 12       		.uleb128 0x12
 2661 01d2 06       		.uleb128 0x6
 2662 01d3 58       		.uleb128 0x58
 2663 01d4 0B       		.uleb128 0xb
 2664 01d5 59       		.uleb128 0x59
 2665 01d6 0B       		.uleb128 0xb
 2666 01d7 01       		.uleb128 0x1
 2667 01d8 13       		.uleb128 0x13
 2668 01d9 00       		.byte	0
ARM GAS  /tmp/cccrq7ad.s 			page 48


 2669 01da 00       		.byte	0
 2670 01db 26       		.uleb128 0x26
 2671 01dc 0B       		.uleb128 0xb
 2672 01dd 01       		.byte	0x1
 2673 01de 11       		.uleb128 0x11
 2674 01df 01       		.uleb128 0x1
 2675 01e0 12       		.uleb128 0x12
 2676 01e1 06       		.uleb128 0x6
 2677 01e2 01       		.uleb128 0x1
 2678 01e3 13       		.uleb128 0x13
 2679 01e4 00       		.byte	0
 2680 01e5 00       		.byte	0
 2681 01e6 27       		.uleb128 0x27
 2682 01e7 898201   		.uleb128 0x4109
 2683 01ea 01       		.byte	0x1
 2684 01eb 11       		.uleb128 0x11
 2685 01ec 01       		.uleb128 0x1
 2686 01ed 31       		.uleb128 0x31
 2687 01ee 13       		.uleb128 0x13
 2688 01ef 01       		.uleb128 0x1
 2689 01f0 13       		.uleb128 0x13
 2690 01f1 00       		.byte	0
 2691 01f2 00       		.byte	0
 2692 01f3 28       		.uleb128 0x28
 2693 01f4 2E       		.uleb128 0x2e
 2694 01f5 01       		.byte	0x1
 2695 01f6 3F       		.uleb128 0x3f
 2696 01f7 19       		.uleb128 0x19
 2697 01f8 03       		.uleb128 0x3
 2698 01f9 0E       		.uleb128 0xe
 2699 01fa 3A       		.uleb128 0x3a
 2700 01fb 0B       		.uleb128 0xb
 2701 01fc 3B       		.uleb128 0x3b
 2702 01fd 0B       		.uleb128 0xb
 2703 01fe 27       		.uleb128 0x27
 2704 01ff 19       		.uleb128 0x19
 2705 0200 11       		.uleb128 0x11
 2706 0201 01       		.uleb128 0x1
 2707 0202 12       		.uleb128 0x12
 2708 0203 06       		.uleb128 0x6
 2709 0204 40       		.uleb128 0x40
 2710 0205 18       		.uleb128 0x18
 2711 0206 9742     		.uleb128 0x2117
 2712 0208 19       		.uleb128 0x19
 2713 0209 01       		.uleb128 0x1
 2714 020a 13       		.uleb128 0x13
 2715 020b 00       		.byte	0
 2716 020c 00       		.byte	0
 2717 020d 29       		.uleb128 0x29
 2718 020e 05       		.uleb128 0x5
 2719 020f 00       		.byte	0
 2720 0210 03       		.uleb128 0x3
 2721 0211 0E       		.uleb128 0xe
 2722 0212 3A       		.uleb128 0x3a
 2723 0213 0B       		.uleb128 0xb
 2724 0214 3B       		.uleb128 0x3b
 2725 0215 0B       		.uleb128 0xb
ARM GAS  /tmp/cccrq7ad.s 			page 49


 2726 0216 49       		.uleb128 0x49
 2727 0217 13       		.uleb128 0x13
 2728 0218 02       		.uleb128 0x2
 2729 0219 17       		.uleb128 0x17
 2730 021a 00       		.byte	0
 2731 021b 00       		.byte	0
 2732 021c 2A       		.uleb128 0x2a
 2733 021d 1D       		.uleb128 0x1d
 2734 021e 01       		.byte	0x1
 2735 021f 31       		.uleb128 0x31
 2736 0220 13       		.uleb128 0x13
 2737 0221 52       		.uleb128 0x52
 2738 0222 01       		.uleb128 0x1
 2739 0223 55       		.uleb128 0x55
 2740 0224 17       		.uleb128 0x17
 2741 0225 58       		.uleb128 0x58
 2742 0226 0B       		.uleb128 0xb
 2743 0227 59       		.uleb128 0x59
 2744 0228 0B       		.uleb128 0xb
 2745 0229 01       		.uleb128 0x1
 2746 022a 13       		.uleb128 0x13
 2747 022b 00       		.byte	0
 2748 022c 00       		.byte	0
 2749 022d 2B       		.uleb128 0x2b
 2750 022e 05       		.uleb128 0x5
 2751 022f 00       		.byte	0
 2752 0230 31       		.uleb128 0x31
 2753 0231 13       		.uleb128 0x13
 2754 0232 02       		.uleb128 0x2
 2755 0233 18       		.uleb128 0x18
 2756 0234 00       		.byte	0
 2757 0235 00       		.byte	0
 2758 0236 2C       		.uleb128 0x2c
 2759 0237 0B       		.uleb128 0xb
 2760 0238 01       		.byte	0x1
 2761 0239 55       		.uleb128 0x55
 2762 023a 17       		.uleb128 0x17
 2763 023b 00       		.byte	0
 2764 023c 00       		.byte	0
 2765 023d 2D       		.uleb128 0x2d
 2766 023e 34       		.uleb128 0x34
 2767 023f 00       		.byte	0
 2768 0240 03       		.uleb128 0x3
 2769 0241 08       		.uleb128 0x8
 2770 0242 3A       		.uleb128 0x3a
 2771 0243 0B       		.uleb128 0xb
 2772 0244 3B       		.uleb128 0x3b
 2773 0245 0B       		.uleb128 0xb
 2774 0246 49       		.uleb128 0x49
 2775 0247 13       		.uleb128 0x13
 2776 0248 02       		.uleb128 0x2
 2777 0249 18       		.uleb128 0x18
 2778 024a 00       		.byte	0
 2779 024b 00       		.byte	0
 2780 024c 2E       		.uleb128 0x2e
 2781 024d 898201   		.uleb128 0x4109
 2782 0250 00       		.byte	0
ARM GAS  /tmp/cccrq7ad.s 			page 50


 2783 0251 11       		.uleb128 0x11
 2784 0252 01       		.uleb128 0x1
 2785 0253 9542     		.uleb128 0x2115
 2786 0255 19       		.uleb128 0x19
 2787 0256 31       		.uleb128 0x31
 2788 0257 13       		.uleb128 0x13
 2789 0258 00       		.byte	0
 2790 0259 00       		.byte	0
 2791 025a 2F       		.uleb128 0x2f
 2792 025b 898201   		.uleb128 0x4109
 2793 025e 01       		.byte	0x1
 2794 025f 11       		.uleb128 0x11
 2795 0260 01       		.uleb128 0x1
 2796 0261 9542     		.uleb128 0x2115
 2797 0263 19       		.uleb128 0x19
 2798 0264 31       		.uleb128 0x31
 2799 0265 13       		.uleb128 0x13
 2800 0266 01       		.uleb128 0x1
 2801 0267 13       		.uleb128 0x13
 2802 0268 00       		.byte	0
 2803 0269 00       		.byte	0
 2804 026a 30       		.uleb128 0x30
 2805 026b 898201   		.uleb128 0x4109
 2806 026e 01       		.byte	0x1
 2807 026f 11       		.uleb128 0x11
 2808 0270 01       		.uleb128 0x1
 2809 0271 9542     		.uleb128 0x2115
 2810 0273 19       		.uleb128 0x19
 2811 0274 31       		.uleb128 0x31
 2812 0275 13       		.uleb128 0x13
 2813 0276 00       		.byte	0
 2814 0277 00       		.byte	0
 2815 0278 31       		.uleb128 0x31
 2816 0279 2E       		.uleb128 0x2e
 2817 027a 01       		.byte	0x1
 2818 027b 3F       		.uleb128 0x3f
 2819 027c 19       		.uleb128 0x19
 2820 027d 03       		.uleb128 0x3
 2821 027e 0E       		.uleb128 0xe
 2822 027f 3A       		.uleb128 0x3a
 2823 0280 0B       		.uleb128 0xb
 2824 0281 3B       		.uleb128 0x3b
 2825 0282 05       		.uleb128 0x5
 2826 0283 27       		.uleb128 0x27
 2827 0284 19       		.uleb128 0x19
 2828 0285 11       		.uleb128 0x11
 2829 0286 01       		.uleb128 0x1
 2830 0287 12       		.uleb128 0x12
 2831 0288 06       		.uleb128 0x6
 2832 0289 40       		.uleb128 0x40
 2833 028a 18       		.uleb128 0x18
 2834 028b 9742     		.uleb128 0x2117
 2835 028d 19       		.uleb128 0x19
 2836 028e 01       		.uleb128 0x1
 2837 028f 13       		.uleb128 0x13
 2838 0290 00       		.byte	0
 2839 0291 00       		.byte	0
ARM GAS  /tmp/cccrq7ad.s 			page 51


 2840 0292 32       		.uleb128 0x32
 2841 0293 34       		.uleb128 0x34
 2842 0294 00       		.byte	0
 2843 0295 03       		.uleb128 0x3
 2844 0296 08       		.uleb128 0x8
 2845 0297 3A       		.uleb128 0x3a
 2846 0298 0B       		.uleb128 0xb
 2847 0299 3B       		.uleb128 0x3b
 2848 029a 05       		.uleb128 0x5
 2849 029b 49       		.uleb128 0x49
 2850 029c 13       		.uleb128 0x13
 2851 029d 02       		.uleb128 0x2
 2852 029e 17       		.uleb128 0x17
 2853 029f 00       		.byte	0
 2854 02a0 00       		.byte	0
 2855 02a1 33       		.uleb128 0x33
 2856 02a2 1D       		.uleb128 0x1d
 2857 02a3 01       		.byte	0x1
 2858 02a4 31       		.uleb128 0x31
 2859 02a5 13       		.uleb128 0x13
 2860 02a6 52       		.uleb128 0x52
 2861 02a7 01       		.uleb128 0x1
 2862 02a8 55       		.uleb128 0x55
 2863 02a9 17       		.uleb128 0x17
 2864 02aa 58       		.uleb128 0x58
 2865 02ab 0B       		.uleb128 0xb
 2866 02ac 59       		.uleb128 0x59
 2867 02ad 05       		.uleb128 0x5
 2868 02ae 01       		.uleb128 0x1
 2869 02af 13       		.uleb128 0x13
 2870 02b0 00       		.byte	0
 2871 02b1 00       		.byte	0
 2872 02b2 34       		.uleb128 0x34
 2873 02b3 34       		.uleb128 0x34
 2874 02b4 00       		.byte	0
 2875 02b5 03       		.uleb128 0x3
 2876 02b6 08       		.uleb128 0x8
 2877 02b7 3A       		.uleb128 0x3a
 2878 02b8 0B       		.uleb128 0xb
 2879 02b9 3B       		.uleb128 0x3b
 2880 02ba 05       		.uleb128 0x5
 2881 02bb 49       		.uleb128 0x49
 2882 02bc 13       		.uleb128 0x13
 2883 02bd 02       		.uleb128 0x2
 2884 02be 18       		.uleb128 0x18
 2885 02bf 00       		.byte	0
 2886 02c0 00       		.byte	0
 2887 02c1 35       		.uleb128 0x35
 2888 02c2 34       		.uleb128 0x34
 2889 02c3 00       		.byte	0
 2890 02c4 03       		.uleb128 0x3
 2891 02c5 0E       		.uleb128 0xe
 2892 02c6 3A       		.uleb128 0x3a
 2893 02c7 0B       		.uleb128 0xb
 2894 02c8 3B       		.uleb128 0x3b
 2895 02c9 0B       		.uleb128 0xb
 2896 02ca 49       		.uleb128 0x49
ARM GAS  /tmp/cccrq7ad.s 			page 52


 2897 02cb 13       		.uleb128 0x13
 2898 02cc 3F       		.uleb128 0x3f
 2899 02cd 19       		.uleb128 0x19
 2900 02ce 02       		.uleb128 0x2
 2901 02cf 18       		.uleb128 0x18
 2902 02d0 00       		.byte	0
 2903 02d1 00       		.byte	0
 2904 02d2 36       		.uleb128 0x36
 2905 02d3 2E       		.uleb128 0x2e
 2906 02d4 00       		.byte	0
 2907 02d5 3F       		.uleb128 0x3f
 2908 02d6 19       		.uleb128 0x19
 2909 02d7 03       		.uleb128 0x3
 2910 02d8 0E       		.uleb128 0xe
 2911 02d9 3A       		.uleb128 0x3a
 2912 02da 0B       		.uleb128 0xb
 2913 02db 3B       		.uleb128 0x3b
 2914 02dc 0B       		.uleb128 0xb
 2915 02dd 27       		.uleb128 0x27
 2916 02de 19       		.uleb128 0x19
 2917 02df 3C       		.uleb128 0x3c
 2918 02e0 19       		.uleb128 0x19
 2919 02e1 00       		.byte	0
 2920 02e2 00       		.byte	0
 2921 02e3 37       		.uleb128 0x37
 2922 02e4 2E       		.uleb128 0x2e
 2923 02e5 01       		.byte	0x1
 2924 02e6 3F       		.uleb128 0x3f
 2925 02e7 19       		.uleb128 0x19
 2926 02e8 03       		.uleb128 0x3
 2927 02e9 0E       		.uleb128 0xe
 2928 02ea 3A       		.uleb128 0x3a
 2929 02eb 0B       		.uleb128 0xb
 2930 02ec 3B       		.uleb128 0x3b
 2931 02ed 0B       		.uleb128 0xb
 2932 02ee 27       		.uleb128 0x27
 2933 02ef 19       		.uleb128 0x19
 2934 02f0 3C       		.uleb128 0x3c
 2935 02f1 19       		.uleb128 0x19
 2936 02f2 01       		.uleb128 0x1
 2937 02f3 13       		.uleb128 0x13
 2938 02f4 00       		.byte	0
 2939 02f5 00       		.byte	0
 2940 02f6 38       		.uleb128 0x38
 2941 02f7 2E       		.uleb128 0x2e
 2942 02f8 01       		.byte	0x1
 2943 02f9 3F       		.uleb128 0x3f
 2944 02fa 19       		.uleb128 0x19
 2945 02fb 03       		.uleb128 0x3
 2946 02fc 0E       		.uleb128 0xe
 2947 02fd 3A       		.uleb128 0x3a
 2948 02fe 0B       		.uleb128 0xb
 2949 02ff 3B       		.uleb128 0x3b
 2950 0300 05       		.uleb128 0x5
 2951 0301 27       		.uleb128 0x27
 2952 0302 19       		.uleb128 0x19
 2953 0303 3C       		.uleb128 0x3c
ARM GAS  /tmp/cccrq7ad.s 			page 53


 2954 0304 19       		.uleb128 0x19
 2955 0305 01       		.uleb128 0x1
 2956 0306 13       		.uleb128 0x13
 2957 0307 00       		.byte	0
 2958 0308 00       		.byte	0
 2959 0309 39       		.uleb128 0x39
 2960 030a 2E       		.uleb128 0x2e
 2961 030b 01       		.byte	0x1
 2962 030c 3F       		.uleb128 0x3f
 2963 030d 19       		.uleb128 0x19
 2964 030e 03       		.uleb128 0x3
 2965 030f 0E       		.uleb128 0xe
 2966 0310 3A       		.uleb128 0x3a
 2967 0311 0B       		.uleb128 0xb
 2968 0312 3B       		.uleb128 0x3b
 2969 0313 0B       		.uleb128 0xb
 2970 0314 27       		.uleb128 0x27
 2971 0315 19       		.uleb128 0x19
 2972 0316 3C       		.uleb128 0x3c
 2973 0317 19       		.uleb128 0x19
 2974 0318 00       		.byte	0
 2975 0319 00       		.byte	0
 2976 031a 00       		.byte	0
 2977              		.section	.debug_loc,"",%progbits
 2978              	.Ldebug_loc0:
 2979              	.LLST0:
 2980 0000 00000000 		.4byte	.LVL0
 2981 0004 07000000 		.4byte	.LVL1-1
 2982 0008 0100     		.2byte	0x1
 2983 000a 50       		.byte	0x50
 2984 000b 07000000 		.4byte	.LVL1-1
 2985 000f 44000000 		.4byte	.LFE8
 2986 0013 0100     		.2byte	0x1
 2987 0015 54       		.byte	0x54
 2988 0016 00000000 		.4byte	0
 2989 001a 00000000 		.4byte	0
 2990              	.LLST1:
 2991 001e 1C000000 		.4byte	.LVL2
 2992 0022 32000000 		.4byte	.LVL4
 2993 0026 0100     		.2byte	0x1
 2994 0028 53       		.byte	0x53
 2995 0029 00000000 		.4byte	0
 2996 002d 00000000 		.4byte	0
 2997              	.LLST2:
 2998 0031 00000000 		.4byte	.LVL6
 2999 0035 0D000000 		.4byte	.LVL7-1
 3000 0039 0100     		.2byte	0x1
 3001 003b 50       		.byte	0x50
 3002 003c 0D000000 		.4byte	.LVL7-1
 3003 0040 52000000 		.4byte	.LFE10
 3004 0044 0100     		.2byte	0x1
 3005 0046 54       		.byte	0x54
 3006 0047 00000000 		.4byte	0
 3007 004b 00000000 		.4byte	0
 3008              	.LLST4:
 3009 004f 30000000 		.4byte	.LVL8
 3010 0053 3A000000 		.4byte	.LVL9
ARM GAS  /tmp/cccrq7ad.s 			page 54


 3011 0057 0100     		.2byte	0x1
 3012 0059 54       		.byte	0x54
 3013 005a 00000000 		.4byte	0
 3014 005e 00000000 		.4byte	0
 3015              	.LLST5:
 3016 0062 00000000 		.4byte	.LVL12
 3017 0066 09000000 		.4byte	.LVL13-1
 3018 006a 0100     		.2byte	0x1
 3019 006c 50       		.byte	0x50
 3020 006d 09000000 		.4byte	.LVL13-1
 3021 0071 50000000 		.4byte	.LFE9
 3022 0075 0400     		.2byte	0x4
 3023 0077 F3       		.byte	0xf3
 3024 0078 01       		.uleb128 0x1
 3025 0079 50       		.byte	0x50
 3026 007a 9F       		.byte	0x9f
 3027 007b 00000000 		.4byte	0
 3028 007f 00000000 		.4byte	0
 3029              	.LLST6:
 3030 0083 0E000000 		.4byte	.LVL14
 3031 0087 44000000 		.4byte	.LVL18
 3032 008b 0100     		.2byte	0x1
 3033 008d 55       		.byte	0x55
 3034 008e 44000000 		.4byte	.LVL18
 3035 0092 47000000 		.4byte	.LVL19-1
 3036 0096 0100     		.2byte	0x1
 3037 0098 51       		.byte	0x51
 3038 0099 00000000 		.4byte	0
 3039 009d 00000000 		.4byte	0
 3040              	.LLST7:
 3041 00a1 1C000000 		.4byte	.LVL15
 3042 00a5 2B000000 		.4byte	.LVL16-1
 3043 00a9 0100     		.2byte	0x1
 3044 00ab 53       		.byte	0x53
 3045 00ac 00000000 		.4byte	0
 3046 00b0 00000000 		.4byte	0
 3047              	.LLST8:
 3048 00b4 00000000 		.4byte	.LVL20
 3049 00b8 0B000000 		.4byte	.LVL21-1
 3050 00bc 0100     		.2byte	0x1
 3051 00be 50       		.byte	0x50
 3052 00bf 0B000000 		.4byte	.LVL21-1
 3053 00c3 50000000 		.4byte	.LFE11
 3054 00c7 0400     		.2byte	0x4
 3055 00c9 F3       		.byte	0xf3
 3056 00ca 01       		.uleb128 0x1
 3057 00cb 50       		.byte	0x50
 3058 00cc 9F       		.byte	0x9f
 3059 00cd 00000000 		.4byte	0
 3060 00d1 00000000 		.4byte	0
 3061              	.LLST9:
 3062 00d5 00000000 		.4byte	.LVL20
 3063 00d9 0B000000 		.4byte	.LVL21-1
 3064 00dd 0100     		.2byte	0x1
 3065 00df 51       		.byte	0x51
 3066 00e0 0B000000 		.4byte	.LVL21-1
 3067 00e4 46000000 		.4byte	.LVL27
ARM GAS  /tmp/cccrq7ad.s 			page 55


 3068 00e8 0100     		.2byte	0x1
 3069 00ea 54       		.byte	0x54
 3070 00eb 46000000 		.4byte	.LVL27
 3071 00ef 50000000 		.4byte	.LFE11
 3072 00f3 0400     		.2byte	0x4
 3073 00f5 F3       		.byte	0xf3
 3074 00f6 01       		.uleb128 0x1
 3075 00f7 51       		.byte	0x51
 3076 00f8 9F       		.byte	0x9f
 3077 00f9 00000000 		.4byte	0
 3078 00fd 00000000 		.4byte	0
 3079              	.LLST10:
 3080 0101 00000000 		.4byte	.LVL28
 3081 0105 0B000000 		.4byte	.LVL29-1
 3082 0109 0100     		.2byte	0x1
 3083 010b 50       		.byte	0x50
 3084 010c 0B000000 		.4byte	.LVL29-1
 3085 0110 3C000000 		.4byte	.LVL33
 3086 0114 0100     		.2byte	0x1
 3087 0116 54       		.byte	0x54
 3088 0117 3C000000 		.4byte	.LVL33
 3089 011b 3F000000 		.4byte	.LVL34-1
 3090 011f 0100     		.2byte	0x1
 3091 0121 50       		.byte	0x50
 3092 0122 3F000000 		.4byte	.LVL34-1
 3093 0126 40000000 		.4byte	.LVL34
 3094 012a 0400     		.2byte	0x4
 3095 012c F3       		.byte	0xf3
 3096 012d 01       		.uleb128 0x1
 3097 012e 50       		.byte	0x50
 3098 012f 9F       		.byte	0x9f
 3099 0130 40000000 		.4byte	.LVL34
 3100 0134 46000000 		.4byte	.LVL35
 3101 0138 0100     		.2byte	0x1
 3102 013a 54       		.byte	0x54
 3103 013b 46000000 		.4byte	.LVL35
 3104 013f 49000000 		.4byte	.LVL36-1
 3105 0143 0100     		.2byte	0x1
 3106 0145 50       		.byte	0x50
 3107 0146 49000000 		.4byte	.LVL36-1
 3108 014a 4A000000 		.4byte	.LVL36
 3109 014e 0400     		.2byte	0x4
 3110 0150 F3       		.byte	0xf3
 3111 0151 01       		.uleb128 0x1
 3112 0152 50       		.byte	0x50
 3113 0153 9F       		.byte	0x9f
 3114 0154 4A000000 		.4byte	.LVL36
 3115 0158 58000000 		.4byte	.LVL38
 3116 015c 0100     		.2byte	0x1
 3117 015e 54       		.byte	0x54
 3118 015f 58000000 		.4byte	.LVL38
 3119 0163 5B000000 		.4byte	.LVL39-1
 3120 0167 0100     		.2byte	0x1
 3121 0169 50       		.byte	0x50
 3122 016a 5B000000 		.4byte	.LVL39-1
 3123 016e 64000000 		.4byte	.LFE12
 3124 0172 0400     		.2byte	0x4
ARM GAS  /tmp/cccrq7ad.s 			page 56


 3125 0174 F3       		.byte	0xf3
 3126 0175 01       		.uleb128 0x1
 3127 0176 50       		.byte	0x50
 3128 0177 9F       		.byte	0x9f
 3129 0178 00000000 		.4byte	0
 3130 017c 00000000 		.4byte	0
 3131              	.LLST11:
 3132 0180 00000000 		.4byte	.LVL28
 3133 0184 0B000000 		.4byte	.LVL29-1
 3134 0188 0100     		.2byte	0x1
 3135 018a 51       		.byte	0x51
 3136 018b 0B000000 		.4byte	.LVL29-1
 3137 018f 20000000 		.4byte	.LVL31
 3138 0193 0100     		.2byte	0x1
 3139 0195 56       		.byte	0x56
 3140 0196 20000000 		.4byte	.LVL31
 3141 019a 40000000 		.4byte	.LVL34
 3142 019e 0400     		.2byte	0x4
 3143 01a0 F3       		.byte	0xf3
 3144 01a1 01       		.uleb128 0x1
 3145 01a2 51       		.byte	0x51
 3146 01a3 9F       		.byte	0x9f
 3147 01a4 40000000 		.4byte	.LVL34
 3148 01a8 46000000 		.4byte	.LVL35
 3149 01ac 0100     		.2byte	0x1
 3150 01ae 56       		.byte	0x56
 3151 01af 46000000 		.4byte	.LVL35
 3152 01b3 49000000 		.4byte	.LVL36-1
 3153 01b7 0200     		.2byte	0x2
 3154 01b9 70       		.byte	0x70
 3155 01ba 28       		.sleb128 40
 3156 01bb 49000000 		.4byte	.LVL36-1
 3157 01bf 64000000 		.4byte	.LFE12
 3158 01c3 0400     		.2byte	0x4
 3159 01c5 F3       		.byte	0xf3
 3160 01c6 01       		.uleb128 0x1
 3161 01c7 51       		.byte	0x51
 3162 01c8 9F       		.byte	0x9f
 3163 01c9 00000000 		.4byte	0
 3164 01cd 00000000 		.4byte	0
 3165              	.LLST12:
 3166 01d1 20000000 		.4byte	.LVL31
 3167 01d5 29000000 		.4byte	.LVL32-1
 3168 01d9 0100     		.2byte	0x1
 3169 01db 50       		.byte	0x50
 3170 01dc 29000000 		.4byte	.LVL32-1
 3171 01e0 3C000000 		.4byte	.LVL33
 3172 01e4 0100     		.2byte	0x1
 3173 01e6 56       		.byte	0x56
 3174 01e7 3C000000 		.4byte	.LVL33
 3175 01eb 3F000000 		.4byte	.LVL34-1
 3176 01ef 0100     		.2byte	0x1
 3177 01f1 51       		.byte	0x51
 3178 01f2 4A000000 		.4byte	.LVL36
 3179 01f6 58000000 		.4byte	.LVL38
 3180 01fa 0100     		.2byte	0x1
 3181 01fc 56       		.byte	0x56
ARM GAS  /tmp/cccrq7ad.s 			page 57


 3182 01fd 58000000 		.4byte	.LVL38
 3183 0201 5B000000 		.4byte	.LVL39-1
 3184 0205 0100     		.2byte	0x1
 3185 0207 51       		.byte	0x51
 3186 0208 00000000 		.4byte	0
 3187 020c 00000000 		.4byte	0
 3188              	.LLST13:
 3189 0210 08000000 		.4byte	.LVL40
 3190 0214 40000000 		.4byte	.LVL44
 3191 0218 0100     		.2byte	0x1
 3192 021a 55       		.byte	0x55
 3193 021b 40000000 		.4byte	.LVL44
 3194 021f 43000000 		.4byte	.LVL45-1
 3195 0223 0100     		.2byte	0x1
 3196 0225 51       		.byte	0x51
 3197 0226 00000000 		.4byte	0
 3198 022a 00000000 		.4byte	0
 3199              	.LLST14:
 3200 022e 08000000 		.4byte	.LVL40
 3201 0232 21000000 		.4byte	.LVL41-1
 3202 0236 0100     		.2byte	0x1
 3203 0238 53       		.byte	0x53
 3204 0239 00000000 		.4byte	0
 3205 023d 00000000 		.4byte	0
 3206              	.LLST15:
 3207 0241 08000000 		.4byte	.LVL46
 3208 0245 52000000 		.4byte	.LVL52
 3209 0249 0100     		.2byte	0x1
 3210 024b 54       		.byte	0x54
 3211 024c 52000000 		.4byte	.LVL52
 3212 0250 55000000 		.4byte	.LVL53-1
 3213 0254 0100     		.2byte	0x1
 3214 0256 51       		.byte	0x51
 3215 0257 00000000 		.4byte	0
 3216 025b 00000000 		.4byte	0
 3217              	.LLST16:
 3218 025f 20000000 		.4byte	.LVL47
 3219 0263 22000000 		.4byte	.LVL48
 3220 0267 0600     		.2byte	0x6
 3221 0269 03       		.byte	0x3
 3222 026a 00000000 		.4byte	rlist
 3223 026e 9F       		.byte	0x9f
 3224 026f 22000000 		.4byte	.LVL48
 3225 0273 39000000 		.4byte	.LVL50-1
 3226 0277 0100     		.2byte	0x1
 3227 0279 53       		.byte	0x53
 3228 027a 00000000 		.4byte	0
 3229 027e 00000000 		.4byte	0
 3230              	.LLST17:
 3231 0282 08000000 		.4byte	.LVL46
 3232 0286 22000000 		.4byte	.LVL48
 3233 028a 0100     		.2byte	0x1
 3234 028c 52       		.byte	0x52
 3235 028d 22000000 		.4byte	.LVL48
 3236 0291 39000000 		.4byte	.LVL50-1
 3237 0295 0500     		.2byte	0x5
 3238 0297 03       		.byte	0x3
ARM GAS  /tmp/cccrq7ad.s 			page 58


 3239 0298 00000000 		.4byte	rlist
 3240 029c 00000000 		.4byte	0
 3241 02a0 00000000 		.4byte	0
 3242              		.section	.debug_aranges,"",%progbits
 3243 0000 64000000 		.4byte	0x64
 3244 0004 0200     		.2byte	0x2
 3245 0006 00000000 		.4byte	.Ldebug_info0
 3246 000a 04       		.byte	0x4
 3247 000b 00       		.byte	0
 3248 000c 0000     		.2byte	0
 3249 000e 0000     		.2byte	0
 3250 0010 00000000 		.4byte	.LFB7
 3251 0014 14000000 		.4byte	.LFE7-.LFB7
 3252 0018 00000000 		.4byte	.LFB8
 3253 001c 44000000 		.4byte	.LFE8-.LFB8
 3254 0020 00000000 		.4byte	.LFB10
 3255 0024 52000000 		.4byte	.LFE10-.LFB10
 3256 0028 00000000 		.4byte	.LFB9
 3257 002c 50000000 		.4byte	.LFE9-.LFB9
 3258 0030 00000000 		.4byte	.LFB11
 3259 0034 50000000 		.4byte	.LFE11-.LFB11
 3260 0038 00000000 		.4byte	.LFB12
 3261 003c 64000000 		.4byte	.LFE12-.LFB12
 3262 0040 00000000 		.4byte	.LFB14
 3263 0044 4C000000 		.4byte	.LFE14-.LFB14
 3264 0048 00000000 		.4byte	.LFB15
 3265 004c 60000000 		.4byte	.LFE15-.LFB15
 3266 0050 00000000 		.4byte	.LFB13
 3267 0054 24000000 		.4byte	.LFE13-.LFB13
 3268 0058 00000000 		.4byte	.LFB16
 3269 005c 18000000 		.4byte	.LFE16-.LFB16
 3270 0060 00000000 		.4byte	0
 3271 0064 00000000 		.4byte	0
 3272              		.section	.debug_ranges,"",%progbits
 3273              	.Ldebug_ranges0:
 3274 0000 02000000 		.4byte	.LBB32
 3275 0004 04000000 		.4byte	.LBE32
 3276 0008 06000000 		.4byte	.LBB33
 3277 000c 0A000000 		.4byte	.LBE33
 3278 0010 00000000 		.4byte	0
 3279 0014 00000000 		.4byte	0
 3280 0018 0A000000 		.4byte	.LBB37
 3281 001c 0C000000 		.4byte	.LBE37
 3282 0020 0E000000 		.4byte	.LBB42
 3283 0024 10000000 		.4byte	.LBE42
 3284 0028 1C000000 		.4byte	.LBB43
 3285 002c 1E000000 		.4byte	.LBE43
 3286 0030 24000000 		.4byte	.LBB44
 3287 0034 26000000 		.4byte	.LBE44
 3288 0038 00000000 		.4byte	0
 3289 003c 00000000 		.4byte	0
 3290 0040 2C000000 		.4byte	.LBB45
 3291 0044 40000000 		.4byte	.LBE45
 3292 0048 44000000 		.4byte	.LBB46
 3293 004c 50000000 		.4byte	.LBE46
 3294 0050 00000000 		.4byte	0
 3295 0054 00000000 		.4byte	0
ARM GAS  /tmp/cccrq7ad.s 			page 59


 3296 0058 18000000 		.4byte	.LBB48
 3297 005c 38000000 		.4byte	.LBE48
 3298 0060 3C000000 		.4byte	.LBB53
 3299 0064 40000000 		.4byte	.LBE53
 3300 0068 4A000000 		.4byte	.LBB54
 3301 006c 54000000 		.4byte	.LBE54
 3302 0070 58000000 		.4byte	.LBB55
 3303 0074 64000000 		.4byte	.LBE55
 3304 0078 00000000 		.4byte	0
 3305 007c 00000000 		.4byte	0
 3306 0080 2A000000 		.4byte	.LBB49
 3307 0084 38000000 		.4byte	.LBE49
 3308 0088 3C000000 		.4byte	.LBB50
 3309 008c 40000000 		.4byte	.LBE50
 3310 0090 4A000000 		.4byte	.LBB51
 3311 0094 54000000 		.4byte	.LBE51
 3312 0098 58000000 		.4byte	.LBB52
 3313 009c 64000000 		.4byte	.LBE52
 3314 00a0 00000000 		.4byte	0
 3315 00a4 00000000 		.4byte	0
 3316 00a8 04000000 		.4byte	.LBB56
 3317 00ac 06000000 		.4byte	.LBE56
 3318 00b0 08000000 		.4byte	.LBB60
 3319 00b4 0C000000 		.4byte	.LBE60
 3320 00b8 10000000 		.4byte	.LBB61
 3321 00bc 12000000 		.4byte	.LBE61
 3322 00c0 00000000 		.4byte	0
 3323 00c4 00000000 		.4byte	0
 3324 00c8 28000000 		.4byte	.LBB62
 3325 00cc 3C000000 		.4byte	.LBE62
 3326 00d0 40000000 		.4byte	.LBB63
 3327 00d4 4C000000 		.4byte	.LBE63
 3328 00d8 00000000 		.4byte	0
 3329 00dc 00000000 		.4byte	0
 3330 00e0 04000000 		.4byte	.LBB64
 3331 00e4 06000000 		.4byte	.LBE64
 3332 00e8 08000000 		.4byte	.LBB68
 3333 00ec 0E000000 		.4byte	.LBE68
 3334 00f0 12000000 		.4byte	.LBB69
 3335 00f4 14000000 		.4byte	.LBE69
 3336 00f8 00000000 		.4byte	0
 3337 00fc 00000000 		.4byte	0
 3338 0100 3A000000 		.4byte	.LBB70
 3339 0104 4E000000 		.4byte	.LBE70
 3340 0108 52000000 		.4byte	.LBB71
 3341 010c 60000000 		.4byte	.LBE71
 3342 0110 00000000 		.4byte	0
 3343 0114 00000000 		.4byte	0
 3344 0118 00000000 		.4byte	.LFB7
 3345 011c 14000000 		.4byte	.LFE7
 3346 0120 00000000 		.4byte	.LFB8
 3347 0124 44000000 		.4byte	.LFE8
 3348 0128 00000000 		.4byte	.LFB10
 3349 012c 52000000 		.4byte	.LFE10
 3350 0130 00000000 		.4byte	.LFB9
 3351 0134 50000000 		.4byte	.LFE9
 3352 0138 00000000 		.4byte	.LFB11
ARM GAS  /tmp/cccrq7ad.s 			page 60


 3353 013c 50000000 		.4byte	.LFE11
 3354 0140 00000000 		.4byte	.LFB12
 3355 0144 64000000 		.4byte	.LFE12
 3356 0148 00000000 		.4byte	.LFB14
 3357 014c 4C000000 		.4byte	.LFE14
 3358 0150 00000000 		.4byte	.LFB15
 3359 0154 60000000 		.4byte	.LFE15
 3360 0158 00000000 		.4byte	.LFB13
 3361 015c 24000000 		.4byte	.LFE13
 3362 0160 00000000 		.4byte	.LFB16
 3363 0164 18000000 		.4byte	.LFE16
 3364 0168 00000000 		.4byte	0
 3365 016c 00000000 		.4byte	0
 3366              		.section	.debug_line,"",%progbits
 3367              	.Ldebug_line0:
 3368 0000 62030000 		.section	.debug_str,"MS",%progbits,1
 3368      02006401 
 3368      00000201 
 3368      FB0E0D00 
 3368      01010101 
 3369              	.LASF43:
 3370 0000 705F6D73 		.ascii	"p_msg\000"
 3370      6700
 3371              	.LASF96:
 3372 0006 63684462 		.ascii	"chDbgPanic\000"
 3372      6750616E 
 3372      696300
 3373              	.LASF76:
 3374 0011 7264796D 		.ascii	"rdymsg\000"
 3374      736700
 3375              	.LASF16:
 3376 0018 75696E74 		.ascii	"uint64_t\000"
 3376      36345F74 
 3376      00
 3377              	.LASF90:
 3378 0021 63685363 		.ascii	"chSchDoRescheduleAhead\000"
 3378      68446F52 
 3378      65736368 
 3378      6564756C 
 3378      65416865 
 3379              	.LASF5:
 3380 0038 5F5F7569 		.ascii	"__uint8_t\000"
 3380      6E74385F 
 3380      7400
 3381              	.LASF12:
 3382 0042 6C6F6E67 		.ascii	"long long unsigned int\000"
 3382      206C6F6E 
 3382      6720756E 
 3382      7369676E 
 3382      65642069 
 3383              	.LASF101:
 3384 0059 474E5520 		.ascii	"GNU C 4.9.3 20150529 (prerelease) -mcpu=cortex-m4 -"
 3384      4320342E 
 3384      392E3320 
 3384      32303135 
 3384      30353239 
 3385 008c 6D6E6F2D 		.ascii	"mno-thumb-interwork -mthumb -ggdb -O2 -fomit-frame-"
ARM GAS  /tmp/cccrq7ad.s 			page 61


 3385      7468756D 
 3385      622D696E 
 3385      74657277 
 3385      6F726B20 
 3386 00bf 706F696E 		.ascii	"pointer -falign-functions=16 -ffunction-sections -f"
 3386      74657220 
 3386      2D66616C 
 3386      69676E2D 
 3386      66756E63 
 3387 00f2 64617461 		.ascii	"data-sections -fno-common\000"
 3387      2D736563 
 3387      74696F6E 
 3387      73202D66 
 3387      6E6F2D63 
 3388              	.LASF77:
 3389 010c 65786974 		.ascii	"exitcode\000"
 3389      636F6465 
 3389      00
 3390              	.LASF30:
 3391 0115 705F7072 		.ascii	"p_prio\000"
 3391      696F00
 3392              	.LASF105:
 3393 011c 5F736368 		.ascii	"_scheduler_init\000"
 3393      6564756C 
 3393      65725F69 
 3393      6E697400 
 3394              	.LASF10:
 3395 012c 6C6F6E67 		.ascii	"long long int\000"
 3395      206C6F6E 
 3395      6720696E 
 3395      7400
 3396              	.LASF1:
 3397 013a 7369676E 		.ascii	"signed char\000"
 3397      65642063 
 3397      68617200 
 3398              	.LASF95:
 3399 0146 6462675F 		.ascii	"dbg_check_unlock_from_isr\000"
 3399      63686563 
 3399      6B5F756E 
 3399      6C6F636B 
 3399      5F66726F 
 3400              	.LASF47:
 3401 0160 705F6D70 		.ascii	"p_mpool\000"
 3401      6F6F6C00 
 3402              	.LASF73:
 3403 0168 6D5F7175 		.ascii	"m_queue\000"
 3403      65756500 
 3404              	.LASF78:
 3405 0170 77746F62 		.ascii	"wtobjp\000"
 3405      6A7000
 3406              	.LASF21:
 3407 0177 74736C69 		.ascii	"tslices_t\000"
 3407      6365735F 
 3407      7400
 3408              	.LASF7:
 3409 0181 6C6F6E67 		.ascii	"long int\000"
 3409      20696E74 
ARM GAS  /tmp/cccrq7ad.s 			page 62


 3409      00
 3410              	.LASF19:
 3411 018a 74737461 		.ascii	"tstate_t\000"
 3411      74655F74 
 3411      00
 3412              	.LASF32:
 3413 0193 705F6E65 		.ascii	"p_newer\000"
 3413      77657200 
 3414              	.LASF70:
 3415 019b 735F7175 		.ascii	"s_queue\000"
 3415      65756500 
 3416              	.LASF91:
 3417 01a3 63685363 		.ascii	"chSchRescheduleS\000"
 3417      68526573 
 3417      63686564 
 3417      756C6553 
 3417      00
 3418              	.LASF8:
 3419 01b4 5F5F7569 		.ascii	"__uint32_t\000"
 3419      6E743332 
 3419      5F7400
 3420              	.LASF50:
 3421 01bf 72656761 		.ascii	"regarm_t\000"
 3421      726D5F74 
 3421      00
 3422              	.LASF58:
 3423 01c8 76745F70 		.ascii	"vt_prev\000"
 3423      72657600 
 3424              	.LASF92:
 3425 01d0 63685363 		.ascii	"chSchDoReschedule\000"
 3425      68446F52 
 3425      65736368 
 3425      6564756C 
 3425      6500
 3426              	.LASF26:
 3427 01e2 636E745F 		.ascii	"cnt_t\000"
 3427      7400
 3428              	.LASF35:
 3429 01e8 705F7374 		.ascii	"p_stklimit\000"
 3429      6B6C696D 
 3429      697400
 3430              	.LASF0:
 3431 01f3 756E7369 		.ascii	"unsigned int\000"
 3431      676E6564 
 3431      20696E74 
 3431      00
 3432              	.LASF104:
 3433 0200 77616B65 		.ascii	"wakeup\000"
 3433      757000
 3434              	.LASF57:
 3435 0207 76745F6E 		.ascii	"vt_next\000"
 3435      65787400 
 3436              	.LASF99:
 3437 020f 6462675F 		.ascii	"dbg_trace\000"
 3437      74726163 
 3437      6500
 3438              	.LASF97:
ARM GAS  /tmp/cccrq7ad.s 			page 63


 3439 0219 5F706F72 		.ascii	"_port_switch\000"
 3439      745F7377 
 3439      69746368 
 3439      00
 3440              	.LASF9:
 3441 0226 6C6F6E67 		.ascii	"long unsigned int\000"
 3441      20756E73 
 3441      69676E65 
 3441      6420696E 
 3441      7400
 3442              	.LASF55:
 3443 0238 76746675 		.ascii	"vtfunc_t\000"
 3443      6E635F74 
 3443      00
 3444              	.LASF71:
 3445 0241 735F636E 		.ascii	"s_cnt\000"
 3445      7400
 3446              	.LASF53:
 3447 0247 636F6E74 		.ascii	"context\000"
 3447      65787400 
 3448              	.LASF102:
 3449 024f 2E2E2F2E 		.ascii	"../../ChibiOS_2.6.5/os/kernel/src/chschd.c\000"
 3449      2E2F4368 
 3449      6962694F 
 3449      535F322E 
 3449      362E352F 
 3450              	.LASF88:
 3451 027a 63685363 		.ascii	"chSchWakeupS\000"
 3451      6857616B 
 3451      65757053 
 3451      00
 3452              	.LASF23:
 3453 0287 6D73675F 		.ascii	"msg_t\000"
 3453      7400
 3454              	.LASF65:
 3455 028d 725F6E65 		.ascii	"r_newer\000"
 3455      77657200 
 3456              	.LASF93:
 3457 0295 63684462 		.ascii	"chDbgCheckClassI\000"
 3457      67436865 
 3457      636B436C 
 3457      61737349 
 3457      00
 3458              	.LASF18:
 3459 02a6 746D6F64 		.ascii	"tmode_t\000"
 3459      655F7400 
 3460              	.LASF98:
 3461 02ae 63684462 		.ascii	"chDbgCheckClassS\000"
 3461      67436865 
 3461      636B436C 
 3461      61737353 
 3461      00
 3462              	.LASF49:
 3463 02bf 54687265 		.ascii	"ThreadsList\000"
 3463      6164734C 
 3463      69737400 
 3464              	.LASF24:
ARM GAS  /tmp/cccrq7ad.s 			page 64


 3465 02cb 6576656E 		.ascii	"eventmask_t\000"
 3465      746D6173 
 3465      6B5F7400 
 3466              	.LASF72:
 3467 02d7 4D757465 		.ascii	"Mutex\000"
 3467      7800
 3468              	.LASF51:
 3469 02dd 73746B61 		.ascii	"stkalign_t\000"
 3469      6C69676E 
 3469      5F7400
 3470              	.LASF59:
 3471 02e8 76745F74 		.ascii	"vt_time\000"
 3471      696D6500 
 3472              	.LASF54:
 3473 02f0 73697A65 		.ascii	"sizetype\000"
 3473      74797065 
 3473      00
 3474              	.LASF60:
 3475 02f9 76745F66 		.ascii	"vt_func\000"
 3475      756E6300 
 3476              	.LASF89:
 3477 0301 63685363 		.ascii	"chSchDoRescheduleBehind\000"
 3477      68446F52 
 3477      65736368 
 3477      6564756C 
 3477      65426568 
 3478              	.LASF100:
 3479 0319 63685654 		.ascii	"chVTSetI\000"
 3479      53657449 
 3479      00
 3480              	.LASF33:
 3481 0322 705F6F6C 		.ascii	"p_older\000"
 3481      64657200 
 3482              	.LASF64:
 3483 032a 725F6374 		.ascii	"r_ctx\000"
 3483      7800
 3484              	.LASF48:
 3485 0330 54687265 		.ascii	"ThreadsQueue\000"
 3485      61647351 
 3485      75657565 
 3485      00
 3486              	.LASF81:
 3487 033d 64657175 		.ascii	"dequeue\000"
 3487      65756500 
 3488              	.LASF67:
 3489 0345 725F6375 		.ascii	"r_current\000"
 3489      7272656E 
 3489      7400
 3490              	.LASF66:
 3491 034f 725F6F6C 		.ascii	"r_older\000"
 3491      64657200 
 3492              	.LASF11:
 3493 0357 5F5F7569 		.ascii	"__uint64_t\000"
 3493      6E743634 
 3493      5F7400
 3494              	.LASF20:
 3495 0362 74726566 		.ascii	"trefs_t\000"
ARM GAS  /tmp/cccrq7ad.s 			page 65


 3495      735F7400 
 3496              	.LASF29:
 3497 036a 705F7072 		.ascii	"p_prev\000"
 3497      657600
 3498              	.LASF22:
 3499 0371 74707269 		.ascii	"tprio_t\000"
 3499      6F5F7400 
 3500              	.LASF17:
 3501 0379 5F426F6F 		.ascii	"_Bool\000"
 3501      6C00
 3502              	.LASF14:
 3503 037f 696E7433 		.ascii	"int32_t\000"
 3503      325F7400 
 3504              	.LASF2:
 3505 0387 756E7369 		.ascii	"unsigned char\000"
 3505      676E6564 
 3505      20636861 
 3505      7200
 3506              	.LASF83:
 3507 0395 6E657773 		.ascii	"newstate\000"
 3507      74617465 
 3507      00
 3508              	.LASF45:
 3509 039e 705F6D74 		.ascii	"p_mtxlist\000"
 3509      786C6973 
 3509      7400
 3510              	.LASF3:
 3511 03a8 73686F72 		.ascii	"short int\000"
 3511      7420696E 
 3511      7400
 3512              	.LASF36:
 3513 03b2 705F7374 		.ascii	"p_state\000"
 3513      61746500 
 3514              	.LASF39:
 3515 03ba 705F7072 		.ascii	"p_preempt\000"
 3515      65656D70 
 3515      7400
 3516              	.LASF63:
 3517 03c4 725F7072 		.ascii	"r_prio\000"
 3517      696F00
 3518              	.LASF103:
 3519 03cb 2F686F6D 		.ascii	"/home/namv1994/CFSD19/Christian STM32 code/STM32F4/"
 3519      652F6E61 
 3519      6D763139 
 3519      39342F43 
 3519      46534431 
 3520 03fe 53544D33 		.ascii	"STM32F4/embedded/ChibiOS/nam-test-USB/USB_CDC\000"
 3520      3246342F 
 3520      656D6265 
 3520      64646564 
 3520      2F436869 
 3521              	.LASF79:
 3522 042c 65776D61 		.ascii	"ewmask\000"
 3522      736B00
 3523              	.LASF28:
 3524 0433 705F6E65 		.ascii	"p_next\000"
 3524      787400
ARM GAS  /tmp/cccrq7ad.s 			page 66


 3525              	.LASF37:
 3526 043a 705F666C 		.ascii	"p_flags\000"
 3526      61677300 
 3527              	.LASF27:
 3528 0442 54687265 		.ascii	"Thread\000"
 3528      616400
 3529              	.LASF107:
 3530 0449 63685654 		.ascii	"chVTResetI\000"
 3530      52657365 
 3530      744900
 3531              	.LASF87:
 3532 0454 63685363 		.ascii	"chSchGoSleepS\000"
 3532      68476F53 
 3532      6C656570 
 3532      5300
 3533              	.LASF44:
 3534 0462 705F6570 		.ascii	"p_epending\000"
 3534      656E6469 
 3534      6E6700
 3535              	.LASF15:
 3536 046d 75696E74 		.ascii	"uint32_t\000"
 3536      33325F74 
 3536      00
 3537              	.LASF62:
 3538 0476 725F7175 		.ascii	"r_queue\000"
 3538      65756500 
 3539              	.LASF56:
 3540 047e 56697274 		.ascii	"VirtualTimer\000"
 3540      75616C54 
 3540      696D6572 
 3540      00
 3541              	.LASF80:
 3542 048b 63686172 		.ascii	"char\000"
 3542      00
 3543              	.LASF82:
 3544 0490 6669666F 		.ascii	"fifo_remove\000"
 3544      5F72656D 
 3544      6F766500 
 3545              	.LASF84:
 3546 049c 63685363 		.ascii	"chSchReadyI\000"
 3546      68526561 
 3546      64794900 
 3547              	.LASF75:
 3548 04a8 6D5F6E65 		.ascii	"m_next\000"
 3548      787400
 3549              	.LASF25:
 3550 04af 73797374 		.ascii	"systime_t\000"
 3550      696D655F 
 3550      7400
 3551              	.LASF46:
 3552 04b9 705F7265 		.ascii	"p_realprio\000"
 3552      616C7072 
 3552      696F00
 3553              	.LASF6:
 3554 04c4 5F5F696E 		.ascii	"__int32_t\000"
 3554      7433325F 
 3554      7400
ARM GAS  /tmp/cccrq7ad.s 			page 67


 3555              	.LASF4:
 3556 04ce 73686F72 		.ascii	"short unsigned int\000"
 3556      7420756E 
 3556      7369676E 
 3556      65642069 
 3556      6E7400
 3557              	.LASF52:
 3558 04e1 696E7463 		.ascii	"intctx\000"
 3558      747800
 3559              	.LASF42:
 3560 04e8 705F6D73 		.ascii	"p_msgqueue\000"
 3560      67717565 
 3560      756500
 3561              	.LASF86:
 3562 04f3 74696D65 		.ascii	"time\000"
 3562      00
 3563              	.LASF61:
 3564 04f8 76745F70 		.ascii	"vt_par\000"
 3564      617200
 3565              	.LASF69:
 3566 04ff 53656D61 		.ascii	"Semaphore\000"
 3566      70686F72 
 3566      6500
 3567              	.LASF38:
 3568 0509 705F7265 		.ascii	"p_refs\000"
 3568      667300
 3569              	.LASF68:
 3570 0510 52656164 		.ascii	"ReadyList\000"
 3570      794C6973 
 3570      7400
 3571              	.LASF106:
 3572 051a 726C6973 		.ascii	"rlist\000"
 3572      7400
 3573              	.LASF13:
 3574 0520 75696E74 		.ascii	"uint8_t\000"
 3574      385F7400 
 3575              	.LASF94:
 3576 0528 6462675F 		.ascii	"dbg_check_lock_from_isr\000"
 3576      63686563 
 3576      6B5F6C6F 
 3576      636B5F66 
 3576      726F6D5F 
 3577              	.LASF40:
 3578 0540 705F7469 		.ascii	"p_time\000"
 3578      6D6500
 3579              	.LASF34:
 3580 0547 705F6E61 		.ascii	"p_name\000"
 3580      6D6500
 3581              	.LASF85:
 3582 054e 63685363 		.ascii	"chSchGoSleepTimeoutS\000"
 3582      68476F53 
 3582      6C656570 
 3582      54696D65 
 3582      6F757453 
 3583              	.LASF74:
 3584 0563 6D5F6F77 		.ascii	"m_owner\000"
 3584      6E657200 
ARM GAS  /tmp/cccrq7ad.s 			page 68


 3585              	.LASF31:
 3586 056b 705F6374 		.ascii	"p_ctx\000"
 3586      7800
 3587              	.LASF41:
 3588 0571 705F7761 		.ascii	"p_waiting\000"
 3588      6974696E 
 3588      6700
 3589              		.ident	"GCC: (15:4.9.3+svn231177-1) 4.9.3 20150529 (prerelease)"
ARM GAS  /tmp/cccrq7ad.s 			page 69


DEFINED SYMBOLS
                            *ABS*:0000000000000000 chschd.c
     /tmp/cccrq7ad.s:19     .text._scheduler_init:0000000000000000 $t
     /tmp/cccrq7ad.s:25     .text._scheduler_init:0000000000000000 _scheduler_init
     /tmp/cccrq7ad.s:49     .text._scheduler_init:0000000000000010 $d
     /tmp/cccrq7ad.s:54     .text.chSchReadyI:0000000000000000 $t
     /tmp/cccrq7ad.s:60     .text.chSchReadyI:0000000000000000 chSchReadyI
     /tmp/cccrq7ad.s:121    .text.chSchReadyI:000000000000003c $d
     /tmp/cccrq7ad.s:127    .text.wakeup:0000000000000000 $t
     /tmp/cccrq7ad.s:132    .text.wakeup:0000000000000000 wakeup
     /tmp/cccrq7ad.s:164    .text.wakeup:000000000000001a $d
     /tmp/cccrq7ad.s:178    .text.wakeup:0000000000000028 $t
     /tmp/cccrq7ad.s:223    .text.chSchGoSleepS:0000000000000000 $t
     /tmp/cccrq7ad.s:229    .text.chSchGoSleepS:0000000000000000 chSchGoSleepS
     /tmp/cccrq7ad.s:323    .text.chSchGoSleepS:0000000000000048 $d
     /tmp/cccrq7ad.s:330    .text.chSchGoSleepTimeoutS:0000000000000000 $t
     /tmp/cccrq7ad.s:336    .text.chSchGoSleepTimeoutS:0000000000000000 chSchGoSleepTimeoutS
     /tmp/cccrq7ad.s:411    .text.chSchGoSleepTimeoutS:0000000000000048 $d
     /tmp/cccrq7ad.s:417    .text.chSchWakeupS:0000000000000000 $t
     /tmp/cccrq7ad.s:423    .text.chSchWakeupS:0000000000000000 chSchWakeupS
     /tmp/cccrq7ad.s:539    .text.chSchWakeupS:000000000000005c $d
     /tmp/cccrq7ad.s:547    .text.chSchDoRescheduleBehind:0000000000000000 $t
     /tmp/cccrq7ad.s:553    .text.chSchDoRescheduleBehind:0000000000000000 chSchDoRescheduleBehind
     /tmp/cccrq7ad.s:637    .text.chSchDoRescheduleBehind:0000000000000044 $d
     /tmp/cccrq7ad.s:644    .text.chSchDoRescheduleAhead:0000000000000000 $t
     /tmp/cccrq7ad.s:650    .text.chSchDoRescheduleAhead:0000000000000000 chSchDoRescheduleAhead
     /tmp/cccrq7ad.s:752    .text.chSchDoRescheduleAhead:0000000000000058 $d
     /tmp/cccrq7ad.s:759    .text.chSchRescheduleS:0000000000000000 $t
     /tmp/cccrq7ad.s:765    .text.chSchRescheduleS:0000000000000000 chSchRescheduleS
     /tmp/cccrq7ad.s:799    .text.chSchRescheduleS:0000000000000020 $d
     /tmp/cccrq7ad.s:804    .text.chSchDoReschedule:0000000000000000 $t
     /tmp/cccrq7ad.s:810    .text.chSchDoReschedule:0000000000000000 chSchDoReschedule
     /tmp/cccrq7ad.s:832    .text.chSchDoReschedule:0000000000000014 $d
     /tmp/cccrq7ad.s:849    .bss.rlist:0000000000000000 rlist
     /tmp/cccrq7ad.s:838    .rodata.str1.4:0000000000000000 $d
     /tmp/cccrq7ad.s:845    .bss.rlist:0000000000000000 $d
                     .debug_frame:0000000000000010 $d

UNDEFINED SYMBOLS
chDbgCheckClassI
chDbgPanic
dbg_check_lock_from_isr
dbg_check_unlock_from_isr
chDbgCheckClassS
dbg_trace
_port_switch
chVTSetI
chVTResetI
