ARM GAS  /tmp/cccrq7ad.s 			page 1


   1              		.syntax unified
   2              		.cpu cortex-m4
   3              		.fpu softvfp
   4              		.eabi_attribute 20, 1
   5              		.eabi_attribute 21, 1
   6              		.eabi_attribute 23, 3
   7              		.eabi_attribute 24, 1
   8              		.eabi_attribute 25, 1
   9              		.eabi_attribute 26, 1
  10              		.eabi_attribute 30, 2
  11              		.eabi_attribute 34, 1
  12              		.eabi_attribute 18, 4
  13              		.thumb
  14              		.file	"chschd.c"
  15              		.text
  16              	.Ltext0:
  17              		.cfi_sections	.debug_frame
  18              		.section	.text._scheduler_init,"ax",%progbits
  19              		.align	2
  20              		.p2align 4,,15
  21              		.global	_scheduler_init
  22              		.thumb
  23              		.thumb_func
  24              		.type	_scheduler_init, %function
  25              	_scheduler_init:
  26              	.LFB7:
  27              		.file 1 "../../ChibiOS_2.6.5/os/kernel/src/chschd.c"
  28              		.loc 1 55 0
  29              		.cfi_startproc
  30              		@ args = 0, pretend = 0, frame = 0
  31              		@ frame_needed = 0, uses_anonymous_args = 0
  32              		@ link register save eliminated.
  33              		.loc 1 57 0
  34 0000 034B     		ldr	r3, .L2
  35              		.loc 1 58 0
  36 0002 0022     		movs	r2, #0
  37              		.loc 1 57 0
  38 0004 5B60     		str	r3, [r3, #4]
  39 0006 1B60     		str	r3, [r3]
  40              		.loc 1 60 0
  41 0008 5B61     		str	r3, [r3, #20]
  42 000a 1B61     		str	r3, [r3, #16]
  43              		.loc 1 58 0
  44 000c 9A60     		str	r2, [r3, #8]
  45 000e 7047     		bx	lr
  46              	.L3:
  47              		.align	2
  48              	.L2:
  49 0010 00000000 		.word	.LANCHOR0
  50              		.cfi_endproc
  51              	.LFE7:
  52              		.size	_scheduler_init, .-_scheduler_init
  53              		.section	.text.chSchReadyI,"ax",%progbits
  54              		.align	2
  55              		.p2align 4,,15
  56              		.global	chSchReadyI
  57              		.thumb
ARM GAS  /tmp/cccrq7ad.s 			page 2


  58              		.thumb_func
  59              		.type	chSchReadyI, %function
  60              	chSchReadyI:
  61              	.LFB8:
  62              		.loc 1 81 0
  63              		.cfi_startproc
  64              		@ args = 0, pretend = 0, frame = 0
  65              		@ frame_needed = 0, uses_anonymous_args = 0
  66              	.LVL0:
  67 0000 10B5     		push	{r4, lr}
  68              		.cfi_def_cfa_offset 8
  69              		.cfi_offset 4, -8
  70              		.cfi_offset 14, -4
  71              		.loc 1 81 0
  72 0002 0446     		mov	r4, r0
  73              		.loc 1 84 0
  74 0004 FFF7FEFF 		bl	chDbgCheckClassI
  75              	.LVL1:
  76              		.loc 1 87 0
  77 0008 94F82030 		ldrb	r3, [r4, #32]	@ zero_extendqisi2
  78 000c 8BB1     		cbz	r3, .L5
  79              		.loc 1 87 0 is_stmt 0 discriminator 2
  80 000e 0E2B     		cmp	r3, #14
  81 0010 0FD0     		beq	.L5
  82              	.L6:
  83              		.loc 1 92 0 is_stmt 1
  84 0012 0022     		movs	r2, #0
  85 0014 A168     		ldr	r1, [r4, #8]
  86              		.loc 1 93 0
  87 0016 094B     		ldr	r3, .L14
  88              		.loc 1 92 0
  89 0018 84F82020 		strb	r2, [r4, #32]
  90              	.LVL2:
  91              	.L7:
  92              		.loc 1 95 0 discriminator 1
  93 001c 1B68     		ldr	r3, [r3]
  94              	.LVL3:
  95              		.loc 1 96 0 discriminator 1
  96 001e 9A68     		ldr	r2, [r3, #8]
  97 0020 8A42     		cmp	r2, r1
  98 0022 FBD2     		bcs	.L7
  99              		.loc 1 99 0
 100 0024 5A68     		ldr	r2, [r3, #4]
 101 0026 6260     		str	r2, [r4, #4]
 102              		.loc 1 98 0
 103 0028 2360     		str	r3, [r4]
 104              		.loc 1 102 0
 105 002a 2046     		mov	r0, r4
 106              		.loc 1 100 0
 107 002c 5C60     		str	r4, [r3, #4]
 108 002e 1460     		str	r4, [r2]
 109              		.loc 1 102 0
 110 0030 10BD     		pop	{r4, pc}
 111              	.LVL4:
 112              	.L5:
 113              		.loc 1 87 0 discriminator 3
 114 0032 0348     		ldr	r0, .L14+4
ARM GAS  /tmp/cccrq7ad.s 			page 3


 115 0034 FFF7FEFF 		bl	chDbgPanic
 116              	.LVL5:
 117 0038 EBE7     		b	.L6
 118              	.L15:
 119 003a 00BF     		.align	2
 120              	.L14:
 121 003c 00000000 		.word	.LANCHOR0
 122 0040 00000000 		.word	.LC0
 123              		.cfi_endproc
 124              	.LFE8:
 125              		.size	chSchReadyI, .-chSchReadyI
 126              		.section	.text.wakeup,"ax",%progbits
 127              		.align	2
 128              		.p2align 4,,15
 129              		.thumb
 130              		.thumb_func
 131              		.type	wakeup, %function
 132              	wakeup:
 133              	.LFB10:
 134              		.loc 1 136 0
 135              		.cfi_startproc
 136              		@ args = 0, pretend = 0, frame = 0
 137              		@ frame_needed = 0, uses_anonymous_args = 0
 138              	.LVL6:
 139 0000 10B5     		push	{r4, lr}
 140              		.cfi_def_cfa_offset 8
 141              		.cfi_offset 4, -8
 142              		.cfi_offset 14, -4
 143              	.LBB32:
 144              		.loc 1 139 0
 145 0002 2023     		movs	r3, #32
 146              	.LBE32:
 147              		.loc 1 136 0
 148 0004 0446     		mov	r4, r0
 149              	.LBB33:
 150              		.loc 1 139 0
 151              	@ 139 "../../ChibiOS_2.6.5/os/kernel/src/chschd.c" 1
 152 0006 83F31188 		msr     BASEPRI, r3
 153              	@ 0 "" 2
 154              		.thumb
 155              	.LBE33:
 156 000a FFF7FEFF 		bl	dbg_check_lock_from_isr
 157              	.LVL7:
 158              		.loc 1 140 0
 159 000e 94F82030 		ldrb	r3, [r4, #32]	@ zero_extendqisi2
 160 0012 0D2B     		cmp	r3, #13
 161 0014 11D8     		bhi	.L17
 162 0016 DFE803F0 		tbb	[pc, r3]
 163              	.L19:
 164 001a 16       		.byte	(.L24-.L19)/2
 165 001b 10       		.byte	(.L17-.L19)/2
 166 001c 10       		.byte	(.L17-.L19)/2
 167 001d 07       		.byte	(.L20-.L19)/2
 168 001e 10       		.byte	(.L17-.L19)/2
 169 001f 0B       		.byte	(.L21-.L19)/2
 170 0020 10       		.byte	(.L17-.L19)/2
 171 0021 10       		.byte	(.L17-.L19)/2
ARM GAS  /tmp/cccrq7ad.s 			page 4


 172 0022 10       		.byte	(.L17-.L19)/2
 173 0023 10       		.byte	(.L17-.L19)/2
 174 0024 10       		.byte	(.L17-.L19)/2
 175 0025 10       		.byte	(.L17-.L19)/2
 176 0026 10       		.byte	(.L17-.L19)/2
 177 0027 0B       		.byte	(.L21-.L19)/2
 178              		.p2align 1
 179              	.L20:
 180              		.loc 1 150 0
 181 0028 A26A     		ldr	r2, [r4, #40]
 182 002a 9368     		ldr	r3, [r2, #8]
 183 002c 0133     		adds	r3, r3, #1
 184 002e 9360     		str	r3, [r2, #8]
 185              	.L21:
 186              	.LVL8:
 187              	.LBB34:
 188              	.LBB35:
 189              		.file 2 "../../ChibiOS_2.6.5/os/kernel/include/chinline.h"
 190              		.loc 2 75 0
 191 0030 94E80C00 		ldmia	r4, {r2, r3}
 192 0034 1A60     		str	r2, [r3]
 193              		.loc 2 76 0
 194 0036 2268     		ldr	r2, [r4]
 195 0038 5360     		str	r3, [r2, #4]
 196              	.LVL9:
 197              	.L17:
 198              	.LBE35:
 199              	.LBE34:
 200              		.loc 1 163 0
 201 003a 4FF0FF33 		mov	r3, #-1
 202 003e A362     		str	r3, [r4, #40]
 203              		.loc 1 164 0
 204 0040 2046     		mov	r0, r4
 205 0042 FFF7FEFF 		bl	chSchReadyI
 206              	.LVL10:
 207              	.L24:
 208              		.loc 1 165 0
 209 0046 FFF7FEFF 		bl	dbg_check_unlock_from_isr
 210              	.LVL11:
 211              	.LBB36:
 212 004a 0023     		movs	r3, #0
 213              	@ 165 "../../ChibiOS_2.6.5/os/kernel/src/chschd.c" 1
 214 004c 83F31188 		msr     BASEPRI, r3
 215              	@ 0 "" 2
 216              		.thumb
 217 0050 10BD     		pop	{r4, pc}
 218              	.LBE36:
 219              		.cfi_endproc
 220              	.LFE10:
 221              		.size	wakeup, .-wakeup
 222 0052 00BF     		.section	.text.chSchGoSleepS,"ax",%progbits
 223              		.align	2
 224              		.p2align 4,,15
 225              		.global	chSchGoSleepS
 226              		.thumb
 227              		.thumb_func
 228              		.type	chSchGoSleepS, %function
ARM GAS  /tmp/cccrq7ad.s 			page 5


 229              	chSchGoSleepS:
 230              	.LFB9:
 231              		.loc 1 115 0
 232              		.cfi_startproc
 233              		@ args = 0, pretend = 0, frame = 0
 234              		@ frame_needed = 0, uses_anonymous_args = 0
 235              	.LVL12:
 236 0000 70B5     		push	{r4, r5, r6, lr}
 237              		.cfi_def_cfa_offset 16
 238              		.cfi_offset 4, -16
 239              		.cfi_offset 5, -12
 240              		.cfi_offset 6, -8
 241              		.cfi_offset 14, -4
 242              		.loc 1 120 0
 243 0002 114C     		ldr	r4, .L28
 244              		.loc 1 115 0
 245 0004 0646     		mov	r6, r0
 246              		.loc 1 118 0
 247 0006 FFF7FEFF 		bl	chDbgCheckClassS
 248              	.LVL13:
 249              	.LBB37:
 250              	.LBB38:
 251              		.loc 2 60 0
 252 000a 2368     		ldr	r3, [r4]
 253              	.LBE38:
 254              	.LBE37:
 255              		.loc 1 120 0
 256 000c A569     		ldr	r5, [r4, #24]
 257              	.LVL14:
 258              	.LBB42:
 259              	.LBB39:
 260              		.loc 2 62 0
 261 000e 1A68     		ldr	r2, [r3]
 262              	.LBE39:
 263              	.LBE42:
 264              		.loc 1 120 0
 265 0010 85F82060 		strb	r6, [r5, #32]
 266              		.loc 1 124 0
 267 0014 1420     		movs	r0, #20
 268              		.loc 1 127 0
 269 0016 0121     		movs	r1, #1
 270              		.loc 1 124 0
 271 0018 85F82300 		strb	r0, [r5, #35]
 272              	.LVL15:
 273              	.LBB43:
 274              	.LBB40:
 275              		.loc 2 62 0
 276 001c 5460     		str	r4, [r2, #4]
 277              	.LBE40:
 278              	.LBE43:
 279              		.loc 1 128 0
 280 001e 2846     		mov	r0, r5
 281              		.loc 1 127 0
 282 0020 83F82010 		strb	r1, [r3, #32]
 283              	.LBB44:
 284              	.LBB41:
 285              		.loc 2 62 0
ARM GAS  /tmp/cccrq7ad.s 			page 6


 286 0024 2260     		str	r2, [r4]
 287              	.LBE41:
 288              	.LBE44:
 289              		.loc 1 126 0
 290 0026 A361     		str	r3, [r4, #24]
 291              		.loc 1 128 0
 292 0028 FFF7FEFF 		bl	dbg_trace
 293              	.LVL16:
 294              	.LBB45:
 295 002c EA69     		ldr	r2, [r5, #28]
 296 002e ADF12403 		sub	r3, sp, #36
 297 0032 9A42     		cmp	r2, r3
 298 0034 02D9     		bls	.L26
 299              		.loc 1 128 0 is_stmt 0 discriminator 1
 300 0036 0548     		ldr	r0, .L28+4
 301 0038 FFF7FEFF 		bl	chDbgPanic
 302              	.LVL17:
 303              	.L26:
 304              		.loc 1 128 0 discriminator 3
 305 003c A069     		ldr	r0, [r4, #24]
 306 003e 2946     		mov	r1, r5
 307              	.LBE45:
 308              		.loc 1 129 0 is_stmt 1 discriminator 3
 309 0040 BDE87040 		pop	{r4, r5, r6, lr}
 310              		.cfi_restore 14
 311              		.cfi_restore 6
 312              		.cfi_restore 5
 313              		.cfi_restore 4
 314              		.cfi_def_cfa_offset 0
 315              	.LVL18:
 316              	.LBB46:
 317              		.loc 1 128 0 discriminator 3
 318 0044 FFF7FEBF 		b	_port_switch
 319              	.LVL19:
 320              	.L29:
 321              		.align	2
 322              	.L28:
 323 0048 00000000 		.word	.LANCHOR0
 324 004c 14000000 		.word	.LC1
 325              	.LBE46:
 326              		.cfi_endproc
 327              	.LFE9:
 328              		.size	chSchGoSleepS, .-chSchGoSleepS
 329              		.section	.text.chSchGoSleepTimeoutS,"ax",%progbits
 330              		.align	2
 331              		.p2align 4,,15
 332              		.global	chSchGoSleepTimeoutS
 333              		.thumb
 334              		.thumb_func
 335              		.type	chSchGoSleepTimeoutS, %function
 336              	chSchGoSleepTimeoutS:
 337              	.LFB11:
 338              		.loc 1 189 0
 339              		.cfi_startproc
 340              		@ args = 0, pretend = 0, frame = 24
 341              		@ frame_needed = 0, uses_anonymous_args = 0
 342              	.LVL20:
ARM GAS  /tmp/cccrq7ad.s 			page 7


 343 0000 70B5     		push	{r4, r5, r6, lr}
 344              		.cfi_def_cfa_offset 16
 345              		.cfi_offset 4, -16
 346              		.cfi_offset 5, -12
 347              		.cfi_offset 6, -8
 348              		.cfi_offset 14, -4
 349 0002 0C46     		mov	r4, r1
 350 0004 86B0     		sub	sp, sp, #24
 351              		.cfi_def_cfa_offset 40
 352              		.loc 1 189 0
 353 0006 0646     		mov	r6, r0
 354              		.loc 1 191 0
 355 0008 FFF7FEFF 		bl	chDbgCheckClassS
 356              	.LVL21:
 357              		.loc 1 193 0
 358 000c 631C     		adds	r3, r4, #1
 359 000e 12D0     		beq	.L31
 360              	.LBB47:
 361              		.loc 1 196 0
 362 0010 0D4D     		ldr	r5, .L38
 363 0012 0E4A     		ldr	r2, .L38+4
 364 0014 AB69     		ldr	r3, [r5, #24]
 365 0016 2146     		mov	r1, r4
 366 0018 01A8     		add	r0, sp, #4
 367 001a FFF7FEFF 		bl	chVTSetI
 368              	.LVL22:
 369              		.loc 1 197 0
 370 001e 3046     		mov	r0, r6
 371 0020 FFF7FEFF 		bl	chSchGoSleepS
 372              	.LVL23:
 373              		.loc 1 198 0
 374 0024 049B     		ldr	r3, [sp, #16]
 375 0026 13B1     		cbz	r3, .L33
 376              		.loc 1 199 0
 377 0028 01A8     		add	r0, sp, #4
 378 002a FFF7FEFF 		bl	chVTResetI
 379              	.LVL24:
 380              	.L33:
 381              	.LBE47:
 382              		.loc 1 203 0
 383 002e AB69     		ldr	r3, [r5, #24]
 384              		.loc 1 204 0
 385 0030 986A     		ldr	r0, [r3, #40]
 386 0032 06B0     		add	sp, sp, #24
 387              		.cfi_remember_state
 388              		.cfi_def_cfa_offset 16
 389              		@ sp needed
 390 0034 70BD     		pop	{r4, r5, r6, pc}
 391              	.LVL25:
 392              	.L31:
 393              		.cfi_restore_state
 394 0036 044D     		ldr	r5, .L38
 395              		.loc 1 202 0
 396 0038 3046     		mov	r0, r6
 397 003a FFF7FEFF 		bl	chSchGoSleepS
 398              	.LVL26:
 399              		.loc 1 203 0
ARM GAS  /tmp/cccrq7ad.s 			page 8


 400 003e AB69     		ldr	r3, [r5, #24]
 401              		.loc 1 204 0
 402 0040 986A     		ldr	r0, [r3, #40]
 403 0042 06B0     		add	sp, sp, #24
 404              		.cfi_def_cfa_offset 16
 405              		@ sp needed
 406 0044 70BD     		pop	{r4, r5, r6, pc}
 407              	.LVL27:
 408              	.L39:
 409 0046 00BF     		.align	2
 410              	.L38:
 411 0048 00000000 		.word	.LANCHOR0
 412 004c 00000000 		.word	wakeup
 413              		.cfi_endproc
 414              	.LFE11:
 415              		.size	chSchGoSleepTimeoutS, .-chSchGoSleepTimeoutS
 416              		.section	.text.chSchWakeupS,"ax",%progbits
 417              		.align	2
 418              		.p2align 4,,15
 419              		.global	chSchWakeupS
 420              		.thumb
 421              		.thumb_func
 422              		.type	chSchWakeupS, %function
 423              	chSchWakeupS:
 424              	.LFB12:
 425              		.loc 1 225 0
 426              		.cfi_startproc
 427              		@ args = 0, pretend = 0, frame = 0
 428              		@ frame_needed = 0, uses_anonymous_args = 0
 429              	.LVL28:
 430 0000 70B5     		push	{r4, r5, r6, lr}
 431              		.cfi_def_cfa_offset 16
 432              		.cfi_offset 4, -16
 433              		.cfi_offset 5, -12
 434              		.cfi_offset 6, -8
 435              		.cfi_offset 14, -4
 436              		.loc 1 234 0
 437 0002 164D     		ldr	r5, .L46
 438              		.loc 1 225 0
 439 0004 0446     		mov	r4, r0
 440 0006 0E46     		mov	r6, r1
 441              		.loc 1 227 0
 442 0008 FFF7FEFF 		bl	chDbgCheckClassS
 443              	.LVL29:
 444              		.loc 1 234 0
 445 000c A869     		ldr	r0, [r5, #24]
 446 000e A268     		ldr	r2, [r4, #8]
 447 0010 8368     		ldr	r3, [r0, #8]
 448              		.loc 1 229 0
 449 0012 A662     		str	r6, [r4, #40]
 450              		.loc 1 234 0
 451 0014 9A42     		cmp	r2, r3
 452 0016 13D9     		bls	.L44
 453              	.LBB48:
 454              		.loc 1 237 0
 455 0018 FFF7FEFF 		bl	chSchReadyI
 456              	.LVL30:
ARM GAS  /tmp/cccrq7ad.s 			page 9


 457              		.loc 1 239 0
 458 001c 0123     		movs	r3, #1
 459              		.loc 1 237 0
 460 001e 0646     		mov	r6, r0
 461              	.LVL31:
 462              		.loc 1 239 0
 463 0020 84F82030 		strb	r3, [r4, #32]
 464              		.loc 1 238 0
 465 0024 AC61     		str	r4, [r5, #24]
 466              		.loc 1 240 0
 467 0026 FFF7FEFF 		bl	dbg_trace
 468              	.LVL32:
 469              	.LBB49:
 470 002a F269     		ldr	r2, [r6, #28]
 471 002c ADF12403 		sub	r3, sp, #36
 472 0030 9A42     		cmp	r2, r3
 473 0032 0AD8     		bhi	.L45
 474              		.loc 1 240 0 is_stmt 0 discriminator 3
 475 0034 2046     		mov	r0, r4
 476 0036 3146     		mov	r1, r6
 477              	.LBE49:
 478              	.LBE48:
 479              		.loc 1 242 0 is_stmt 1 discriminator 3
 480 0038 BDE87040 		pop	{r4, r5, r6, lr}
 481              		.cfi_remember_state
 482              		.cfi_restore 14
 483              		.cfi_restore 6
 484              		.cfi_restore 5
 485              		.cfi_restore 4
 486              		.cfi_def_cfa_offset 0
 487              	.LVL33:
 488              	.LBB53:
 489              	.LBB50:
 490              		.loc 1 240 0 discriminator 3
 491 003c FFF7FEBF 		b	_port_switch
 492              	.LVL34:
 493              	.L44:
 494              		.cfi_restore_state
 495              	.LBE50:
 496              	.LBE53:
 497              		.loc 1 235 0
 498 0040 2046     		mov	r0, r4
 499              		.loc 1 242 0
 500 0042 BDE87040 		pop	{r4, r5, r6, lr}
 501              		.cfi_remember_state
 502              		.cfi_restore 14
 503              		.cfi_restore 6
 504              		.cfi_restore 5
 505              		.cfi_restore 4
 506              		.cfi_def_cfa_offset 0
 507              	.LVL35:
 508              		.loc 1 235 0
 509 0046 FFF7FEBF 		b	chSchReadyI
 510              	.LVL36:
 511              	.L45:
 512              		.cfi_restore_state
 513              	.LBB54:
ARM GAS  /tmp/cccrq7ad.s 			page 10


 514              	.LBB51:
 515              		.loc 1 240 0 discriminator 1
 516 004a 0548     		ldr	r0, .L46+4
 517 004c FFF7FEFF 		bl	chDbgPanic
 518              	.LVL37:
 519 0050 2046     		mov	r0, r4
 520 0052 3146     		mov	r1, r6
 521              	.LBE51:
 522              	.LBE54:
 523              		.loc 1 242 0 discriminator 1
 524 0054 BDE87040 		pop	{r4, r5, r6, lr}
 525              		.cfi_restore 4
 526              		.cfi_restore 5
 527              		.cfi_restore 6
 528              		.cfi_restore 14
 529              		.cfi_def_cfa_offset 0
 530              	.LVL38:
 531              	.LBB55:
 532              	.LBB52:
 533              		.loc 1 240 0 discriminator 1
 534 0058 FFF7FEBF 		b	_port_switch
 535              	.LVL39:
 536              	.L47:
 537              		.align	2
 538              	.L46:
 539 005c 00000000 		.word	.LANCHOR0
 540 0060 14000000 		.word	.LC1
 541              	.LBE52:
 542              	.LBE55:
 543              		.cfi_endproc
 544              	.LFE12:
 545              		.size	chSchWakeupS, .-chSchWakeupS
 546              		.section	.text.chSchDoRescheduleBehind,"ax",%progbits
 547              		.align	2
 548              		.p2align 4,,15
 549              		.global	chSchDoRescheduleBehind
 550              		.thumb
 551              		.thumb_func
 552              		.type	chSchDoRescheduleBehind, %function
 553              	chSchDoRescheduleBehind:
 554              	.LFB14:
 555              		.loc 1 304 0
 556              		.cfi_startproc
 557              		@ args = 0, pretend = 0, frame = 0
 558              		@ frame_needed = 0, uses_anonymous_args = 0
 559 0000 70B5     		push	{r4, r5, r6, lr}
 560              		.cfi_def_cfa_offset 16
 561              		.cfi_offset 4, -16
 562              		.cfi_offset 5, -12
 563              		.cfi_offset 6, -8
 564              		.cfi_offset 14, -4
 565              		.loc 1 307 0
 566 0002 104C     		ldr	r4, .L51
 567              	.LBB56:
 568              	.LBB57:
 569              		.loc 2 60 0
 570 0004 2368     		ldr	r3, [r4]
ARM GAS  /tmp/cccrq7ad.s 			page 11


 571              	.LBE57:
 572              	.LBE56:
 573              		.loc 1 307 0
 574 0006 A569     		ldr	r5, [r4, #24]
 575              	.LVL40:
 576              	.LBB60:
 577              	.LBB58:
 578              		.loc 2 62 0
 579 0008 1A68     		ldr	r2, [r3]
 580 000a 2260     		str	r2, [r4]
 581              	.LBE58:
 582              	.LBE60:
 583              		.loc 1 312 0
 584 000c 1421     		movs	r1, #20
 585              		.loc 1 310 0
 586 000e 0126     		movs	r6, #1
 587              	.LBB61:
 588              	.LBB59:
 589              		.loc 2 62 0
 590 0010 5460     		str	r4, [r2, #4]
 591              	.LBE59:
 592              	.LBE61:
 593              		.loc 1 314 0
 594 0012 2846     		mov	r0, r5
 595              		.loc 1 310 0
 596 0014 83F82060 		strb	r6, [r3, #32]
 597              		.loc 1 312 0
 598 0018 85F82310 		strb	r1, [r5, #35]
 599              		.loc 1 309 0
 600 001c A361     		str	r3, [r4, #24]
 601              		.loc 1 314 0
 602 001e FFF7FEFF 		bl	chSchReadyI
 603              	.LVL41:
 604              		.loc 1 315 0
 605 0022 2846     		mov	r0, r5
 606 0024 FFF7FEFF 		bl	dbg_trace
 607              	.LVL42:
 608              	.LBB62:
 609 0028 EA69     		ldr	r2, [r5, #28]
 610 002a ADF12403 		sub	r3, sp, #36
 611 002e 9A42     		cmp	r2, r3
 612 0030 02D9     		bls	.L49
 613              		.loc 1 315 0 is_stmt 0 discriminator 1
 614 0032 0548     		ldr	r0, .L51+4
 615 0034 FFF7FEFF 		bl	chDbgPanic
 616              	.LVL43:
 617              	.L49:
 618              		.loc 1 315 0 discriminator 3
 619 0038 A069     		ldr	r0, [r4, #24]
 620 003a 2946     		mov	r1, r5
 621              	.LBE62:
 622              		.loc 1 316 0 is_stmt 1 discriminator 3
 623 003c BDE87040 		pop	{r4, r5, r6, lr}
 624              		.cfi_restore 14
 625              		.cfi_restore 6
 626              		.cfi_restore 5
 627              		.cfi_restore 4
ARM GAS  /tmp/cccrq7ad.s 			page 12


 628              		.cfi_def_cfa_offset 0
 629              	.LVL44:
 630              	.LBB63:
 631              		.loc 1 315 0 discriminator 3
 632 0040 FFF7FEBF 		b	_port_switch
 633              	.LVL45:
 634              	.L52:
 635              		.align	2
 636              	.L51:
 637 0044 00000000 		.word	.LANCHOR0
 638 0048 14000000 		.word	.LC1
 639              	.LBE63:
 640              		.cfi_endproc
 641              	.LFE14:
 642              		.size	chSchDoRescheduleBehind, .-chSchDoRescheduleBehind
 643              		.section	.text.chSchDoRescheduleAhead,"ax",%progbits
 644              		.align	2
 645              		.p2align 4,,15
 646              		.global	chSchDoRescheduleAhead
 647              		.thumb
 648              		.thumb_func
 649              		.type	chSchDoRescheduleAhead, %function
 650              	chSchDoRescheduleAhead:
 651              	.LFB15:
 652              		.loc 1 329 0
 653              		.cfi_startproc
 654              		@ args = 0, pretend = 0, frame = 0
 655              		@ frame_needed = 0, uses_anonymous_args = 0
 656 0000 70B5     		push	{r4, r5, r6, lr}
 657              		.cfi_def_cfa_offset 16
 658              		.cfi_offset 4, -16
 659              		.cfi_offset 5, -12
 660              		.cfi_offset 6, -8
 661              		.cfi_offset 14, -4
 662              		.loc 1 332 0
 663 0002 154D     		ldr	r5, .L59
 664              	.LBB64:
 665              	.LBB65:
 666              		.loc 2 60 0
 667 0004 2A68     		ldr	r2, [r5]
 668              	.LBE65:
 669              	.LBE64:
 670              		.loc 1 332 0
 671 0006 AC69     		ldr	r4, [r5, #24]
 672              	.LVL46:
 673              	.LBB68:
 674              	.LBB66:
 675              		.loc 2 62 0
 676 0008 1368     		ldr	r3, [r2]
 677 000a A068     		ldr	r0, [r4, #8]
 678 000c 2B60     		str	r3, [r5]
 679              	.LBE66:
 680              	.LBE68:
 681              		.loc 1 335 0
 682 000e 0126     		movs	r6, #1
 683              		.loc 1 337 0
 684 0010 0021     		movs	r1, #0
ARM GAS  /tmp/cccrq7ad.s 			page 13


 685              	.LBB69:
 686              	.LBB67:
 687              		.loc 2 62 0
 688 0012 5D60     		str	r5, [r3, #4]
 689              	.LBE67:
 690              	.LBE69:
 691              		.loc 1 335 0
 692 0014 82F82060 		strb	r6, [r2, #32]
 693              		.loc 1 337 0
 694 0018 1346     		mov	r3, r2
 695              		.loc 1 334 0
 696 001a AA61     		str	r2, [r5, #24]
 697              		.loc 1 337 0
 698 001c 84F82010 		strb	r1, [r4, #32]
 699              	.LVL47:
 700 0020 00E0     		b	.L55
 701              	.LVL48:
 702              	.L58:
 703 0022 1B68     		ldr	r3, [r3]
 704              	.LVL49:
 705              	.L55:
 706              		.loc 1 341 0 discriminator 1
 707 0024 9A68     		ldr	r2, [r3, #8]
 708 0026 8242     		cmp	r2, r0
 709 0028 FBD8     		bhi	.L58
 710              		.loc 1 344 0
 711 002a 5A68     		ldr	r2, [r3, #4]
 712 002c 6260     		str	r2, [r4, #4]
 713              		.loc 1 343 0
 714 002e 2360     		str	r3, [r4]
 715              		.loc 1 347 0
 716 0030 2046     		mov	r0, r4
 717              		.loc 1 345 0
 718 0032 5C60     		str	r4, [r3, #4]
 719 0034 1460     		str	r4, [r2]
 720              		.loc 1 347 0
 721 0036 FFF7FEFF 		bl	dbg_trace
 722              	.LVL50:
 723              	.LBB70:
 724 003a E269     		ldr	r2, [r4, #28]
 725 003c ADF12403 		sub	r3, sp, #36
 726 0040 9A42     		cmp	r2, r3
 727 0042 02D9     		bls	.L56
 728              		.loc 1 347 0 is_stmt 0 discriminator 1
 729 0044 0548     		ldr	r0, .L59+4
 730 0046 FFF7FEFF 		bl	chDbgPanic
 731              	.LVL51:
 732              	.L56:
 733              		.loc 1 347 0 discriminator 3
 734 004a A869     		ldr	r0, [r5, #24]
 735 004c 2146     		mov	r1, r4
 736              	.LBE70:
 737              		.loc 1 348 0 is_stmt 1 discriminator 3
 738 004e BDE87040 		pop	{r4, r5, r6, lr}
 739              		.cfi_restore 14
 740              		.cfi_restore 6
 741              		.cfi_restore 5
ARM GAS  /tmp/cccrq7ad.s 			page 14


 742              		.cfi_restore 4
 743              		.cfi_def_cfa_offset 0
 744              	.LVL52:
 745              	.LBB71:
 746              		.loc 1 347 0 discriminator 3
 747 0052 FFF7FEBF 		b	_port_switch
 748              	.LVL53:
 749              	.L60:
 750 0056 00BF     		.align	2
 751              	.L59:
 752 0058 00000000 		.word	.LANCHOR0
 753 005c 14000000 		.word	.LC1
 754              	.LBE71:
 755              		.cfi_endproc
 756              	.LFE15:
 757              		.size	chSchDoRescheduleAhead, .-chSchDoRescheduleAhead
 758              		.section	.text.chSchRescheduleS,"ax",%progbits
 759              		.align	2
 760              		.p2align 4,,15
 761              		.global	chSchRescheduleS
 762              		.thumb
 763              		.thumb_func
 764              		.type	chSchRescheduleS, %function
 765              	chSchRescheduleS:
 766              	.LFB13:
 767              		.loc 1 253 0
 768              		.cfi_startproc
 769              		@ args = 0, pretend = 0, frame = 0
 770              		@ frame_needed = 0, uses_anonymous_args = 0
 771 0000 08B5     		push	{r3, lr}
 772              		.cfi_def_cfa_offset 8
 773              		.cfi_offset 3, -8
 774              		.cfi_offset 14, -4
 775              		.loc 1 255 0
 776 0002 FFF7FEFF 		bl	chDbgCheckClassS
 777              	.LVL54:
 778              		.loc 1 257 0
 779 0006 064B     		ldr	r3, .L65
 780 0008 1A68     		ldr	r2, [r3]
 781 000a 9B69     		ldr	r3, [r3, #24]
 782 000c 9268     		ldr	r2, [r2, #8]
 783 000e 9B68     		ldr	r3, [r3, #8]
 784 0010 9A42     		cmp	r2, r3
 785 0012 00D8     		bhi	.L64
 786 0014 08BD     		pop	{r3, pc}
 787              	.L64:
 788              		.loc 1 259 0
 789 0016 BDE80840 		pop	{r3, lr}
 790              		.cfi_restore 14
 791              		.cfi_restore 3
 792              		.cfi_def_cfa_offset 0
 793              		.loc 1 258 0
 794 001a FFF7FEBF 		b	chSchDoRescheduleAhead
 795              	.LVL55:
 796              	.L66:
 797 001e 00BF     		.align	2
 798              	.L65:
ARM GAS  /tmp/cccrq7ad.s 			page 15


 799 0020 00000000 		.word	.LANCHOR0
 800              		.cfi_endproc
 801              	.LFE13:
 802              		.size	chSchRescheduleS, .-chSchRescheduleS
 803              		.section	.text.chSchDoReschedule,"ax",%progbits
 804              		.align	2
 805              		.p2align 4,,15
 806              		.global	chSchDoReschedule
 807              		.thumb
 808              		.thumb_func
 809              		.type	chSchDoReschedule, %function
 810              	chSchDoReschedule:
 811              	.LFB16:
 812              		.loc 1 362 0
 813              		.cfi_startproc
 814              		@ args = 0, pretend = 0, frame = 0
 815              		@ frame_needed = 0, uses_anonymous_args = 0
 816              		@ link register save eliminated.
 817              		.loc 1 367 0
 818 0000 044B     		ldr	r3, .L70
 819 0002 9B69     		ldr	r3, [r3, #24]
 820 0004 93F82330 		ldrb	r3, [r3, #35]	@ zero_extendqisi2
 821 0008 0BB1     		cbz	r3, .L69
 822              		.loc 1 375 0
 823 000a FFF7FEBF 		b	chSchDoRescheduleAhead
 824              	.LVL56:
 825              	.L69:
 826              		.loc 1 370 0
 827 000e FFF7FEBF 		b	chSchDoRescheduleBehind
 828              	.LVL57:
 829              	.L71:
 830 0012 00BF     		.align	2
 831              	.L70:
 832 0014 00000000 		.word	.LANCHOR0
 833              		.cfi_endproc
 834              	.LFE16:
 835              		.size	chSchDoReschedule, .-chSchDoReschedule
 836              		.global	rlist
 837              		.section	.rodata.str1.4,"aMS",%progbits,1
 838              		.align	2
 839              	.LC0:
 840 0000 63685363 		.ascii	"chSchReadyI(), #1\000"
 840      68526561 
 840      64794928 
 840      292C2023 
 840      3100
 841 0012 0000     		.space	2
 842              	.LC1:
 843 0014 73746163 		.ascii	"stack overflow\000"
 843      6B206F76 
 843      6572666C 
 843      6F7700
 844              		.section	.bss.rlist,"aw",%nobits
 845              		.align	2
 846              		.set	.LANCHOR0,. + 0
 847              		.type	rlist, %object
 848              		.size	rlist, 28
ARM GAS  /tmp/cccrq7ad.s 			page 16


 849              	rlist:
 850 0000 00000000 		.space	28
 850      00000000 
 850      00000000 
 850      00000000 
 850      00000000 
 851              		.text
 852              	.Letext0:
 853              		.file 3 "/usr/include/newlib/machine/_default_types.h"
 854              		.file 4 "/usr/include/newlib/sys/_stdint.h"
 855              		.file 5 "../../ChibiOS_2.6.5/os/ports/GCC/ARMCMx/chtypes.h"
 856              		.file 6 "../../ChibiOS_2.6.5/os/kernel/include/chlists.h"
 857              		.file 7 "../../ChibiOS_2.6.5/os/kernel/include/chthreads.h"
 858              		.file 8 "../../ChibiOS_2.6.5/os/ports/GCC/ARMCMx/chcore_v7m.h"
 859              		.file 9 "../../ChibiOS_2.6.5/os/kernel/include/chvt.h"
 860              		.file 10 "../../ChibiOS_2.6.5/os/kernel/include/chschd.h"
 861              		.file 11 "../../ChibiOS_2.6.5/os/kernel/include/chsem.h"
 862              		.file 12 "../../ChibiOS_2.6.5/os/kernel/include/chmtx.h"
 863              		.file 13 "../../ChibiOS_2.6.5/os/kernel/include/chdebug.h"