ARM GAS  /tmp/ccAZvDw4.s 			page 1


   1              		.syntax unified
   2              		.cpu cortex-m4
   3              		.fpu softvfp
   4              		.eabi_attribute 20, 1
   5              		.eabi_attribute 21, 1
   6              		.eabi_attribute 23, 3
   7              		.eabi_attribute 24, 1
   8              		.eabi_attribute 25, 1
   9              		.eabi_attribute 26, 1
  10              		.eabi_attribute 30, 2
  11              		.eabi_attribute 34, 1
  12              		.eabi_attribute 18, 4
  13              		.thumb
  14              		.file	"chsys.c"
  15              		.text
  16              	.Ltext0:
  17              		.cfi_sections	.debug_frame
  18              		.section	.text._idle_thread,"ax",%progbits
  19              		.align	2
  20              		.p2align 4,,15
  21              		.global	_idle_thread
  22              		.thumb
  23              		.thumb_func
  24              		.type	_idle_thread, %function
  25              	_idle_thread:
  26              	.LFB7:
  27              		.file 1 "../../ChibiOS_2.6.5/os/kernel/src/chsys.c"
  28              		.loc 1 61 0
  29              		.cfi_startproc
  30              		@ Volatile: function does not return.
  31              		@ args = 0, pretend = 0, frame = 0
  32              		@ frame_needed = 0, uses_anonymous_args = 0
  33              		@ link register save eliminated.
  34              	.LVL0:
  35              		.loc 1 64 0
  36 0000 024B     		ldr	r3, .L4
  37 0002 034A     		ldr	r2, .L4+4
  38 0004 9B69     		ldr	r3, [r3, #24]
  39 0006 9A61     		str	r2, [r3, #24]
  40              	.L2:
  41              		.loc 1 68 0 discriminator 1
  42 0008 FEE7     		b	.L2
  43              	.L5:
  44 000a 00BF     		.align	2
  45              	.L4:
  46 000c 00000000 		.word	rlist
  47 0010 00000000 		.word	.LC0
  48              		.cfi_endproc
  49              	.LFE7:
  50              		.size	_idle_thread, .-_idle_thread
  51              		.section	.text.chSysInit,"ax",%progbits
  52              		.align	2
  53              		.p2align 4,,15
  54              		.global	chSysInit
  55              		.thumb
  56              		.thumb_func
  57              		.type	chSysInit, %function
ARM GAS  /tmp/ccAZvDw4.s 			page 2


  58              	chSysInit:
  59              	.LFB8:
  60              		.loc 1 84 0
  61              		.cfi_startproc
  62              		@ args = 0, pretend = 0, frame = 0
  63              		@ frame_needed = 0, uses_anonymous_args = 0
  64 0000 30B5     		push	{r4, r5, lr}
  65              		.cfi_def_cfa_offset 12
  66              		.cfi_offset 4, -12
  67              		.cfi_offset 5, -8
  68              		.cfi_offset 14, -4
  69 0002 83B0     		sub	sp, sp, #12
  70              		.cfi_def_cfa_offset 24
  71              		.loc 1 90 0
  72 0004 FFF7FEFF 		bl	_port_init
  73              	.LVL1:
  74              		.loc 1 91 0
  75 0008 FFF7FEFF 		bl	_scheduler_init
  76              	.LVL2:
  77              		.loc 1 92 0
  78 000c FFF7FEFF 		bl	_vt_init
  79              	.LVL3:
  80              		.loc 1 94 0
  81 0010 FFF7FEFF 		bl	_core_init
  82              	.LVL4:
  83              		.loc 1 97 0
  84 0014 FFF7FEFF 		bl	_heap_init
  85              	.LVL5:
  86              		.loc 1 100 0
  87 0018 FFF7FEFF 		bl	_trace_init
  88              	.LVL6:
  89              		.loc 1 104 0
  90 001c 4021     		movs	r1, #64
  91 001e 0E48     		ldr	r0, .L8
  92 0020 0E4D     		ldr	r5, .L8+4
  93 0022 FFF7FEFF 		bl	_thread_init
  94              	.LVL7:
  95              		.loc 1 105 0
  96 0026 0124     		movs	r4, #1
  97              		.loc 1 109 0
  98 0028 0D4B     		ldr	r3, .L8+8
  99 002a C361     		str	r3, [r0, #28]
 100              		.loc 1 105 0
 101 002c 80F82040 		strb	r4, [r0, #32]
 102              		.loc 1 104 0
 103 0030 A861     		str	r0, [r5, #24]
 104              		.loc 1 111 0
 105 0032 FFF7FEFF 		bl	dbg_check_enable
 106              	.LVL8:
 107              	.LBB2:
 108 0036 0023     		movs	r3, #0
 109              	@ 111 "../../ChibiOS_2.6.5/os/kernel/src/chsys.c" 1
 110 0038 83F31188 		msr     BASEPRI, r3                    
 111 003c 62B6     		cpsie   i
 112              	@ 0 "" 2
 113              		.thumb
 114              	.LBE2:
ARM GAS  /tmp/ccAZvDw4.s 			page 3


 115              		.loc 1 115 0
 116 003e AA69     		ldr	r2, [r5, #24]
 117 0040 0849     		ldr	r1, .L8+12
 118 0042 9161     		str	r1, [r2, #24]
 119              		.loc 1 121 0
 120 0044 0848     		ldr	r0, .L8+16
 121 0046 0093     		str	r3, [sp]
 122 0048 2246     		mov	r2, r4
 123 004a 084B     		ldr	r3, .L8+20
 124 004c E021     		movs	r1, #224
 125 004e FFF7FEFF 		bl	chThdCreateStatic
 126              	.LVL9:
 127              		.loc 1 124 0
 128 0052 03B0     		add	sp, sp, #12
 129              		.cfi_def_cfa_offset 12
 130              		@ sp needed
 131 0054 30BD     		pop	{r4, r5, pc}
 132              	.L9:
 133 0056 00BF     		.align	2
 134              	.L8:
 135 0058 00000000 		.word	.LANCHOR0
 136 005c 00000000 		.word	rlist
 137 0060 00000000 		.word	__main_thread_stack_base__
 138 0064 00000000 		.word	ch_debug
 139 0068 00000000 		.word	.LANCHOR1
 140 006c 00000000 		.word	_idle_thread
 141              		.cfi_endproc
 142              	.LFE8:
 143              		.size	chSysInit, .-chSysInit
 144              		.section	.text.chSysTimerHandlerI,"ax",%progbits
 145              		.align	2
 146              		.p2align 4,,15
 147              		.global	chSysTimerHandlerI
 148              		.thumb
 149              		.thumb_func
 150              		.type	chSysTimerHandlerI, %function
 151              	chSysTimerHandlerI:
 152              	.LFB9:
 153              		.loc 1 137 0
 154              		.cfi_startproc
 155              		@ args = 0, pretend = 0, frame = 0
 156              		@ frame_needed = 0, uses_anonymous_args = 0
 157 0000 F8B5     		push	{r3, r4, r5, r6, r7, lr}
 158              		.cfi_def_cfa_offset 24
 159              		.cfi_offset 3, -24
 160              		.cfi_offset 4, -20
 161              		.cfi_offset 5, -16
 162              		.cfi_offset 6, -12
 163              		.cfi_offset 7, -8
 164              		.cfi_offset 14, -4
 165              		.loc 1 139 0
 166 0002 FFF7FEFF 		bl	chDbgCheckClassI
 167              	.LVL10:
 168              		.loc 1 143 0
 169 0006 164B     		ldr	r3, .L21
 170 0008 9B69     		ldr	r3, [r3, #24]
 171 000a 93F82320 		ldrb	r2, [r3, #35]	@ zero_extendqisi2
ARM GAS  /tmp/ccAZvDw4.s 			page 4


 172 000e 12B1     		cbz	r2, .L11
 173              		.loc 1 145 0
 174 0010 013A     		subs	r2, r2, #1
 175 0012 83F82320 		strb	r2, [r3, #35]
 176              	.L11:
 177              		.loc 1 148 0
 178 0016 5A6A     		ldr	r2, [r3, #36]
 179              		.loc 1 150 0
 180 0018 124D     		ldr	r5, .L21+4
 181              		.loc 1 148 0
 182 001a 0132     		adds	r2, r2, #1
 183 001c 5A62     		str	r2, [r3, #36]
 184              		.loc 1 150 0
 185 001e EB68     		ldr	r3, [r5, #12]
 186 0020 2C68     		ldr	r4, [r5]
 187 0022 0133     		adds	r3, r3, #1
 188 0024 AC42     		cmp	r4, r5
 189 0026 EB60     		str	r3, [r5, #12]
 190 0028 18D0     		beq	.L10
 191              	.LBB3:
 192              		.loc 1 150 0 is_stmt 0 discriminator 1
 193 002a A768     		ldr	r7, [r4, #8]
 194 002c 013F     		subs	r7, r7, #1
 195 002e A760     		str	r7, [r4, #8]
 196              	.LVL11:
 197 0030 A7B9     		cbnz	r7, .L10
 198              	.L14:
 199              	.LBB4:
 200              		.loc 1 150 0 discriminator 4
 201 0032 2368     		ldr	r3, [r4]
 202 0034 E668     		ldr	r6, [r4, #12]
 203              	.LVL12:
 204 0036 E760     		str	r7, [r4, #12]
 205 0038 5D60     		str	r5, [r3, #4]
 206 003a 2B60     		str	r3, [r5]
 207 003c FFF7FEFF 		bl	dbg_check_unlock_from_isr
 208              	.LVL13:
 209              	.LBB5:
 210 0040 0023     		movs	r3, #0
 211              	@ 150 "../../ChibiOS_2.6.5/os/kernel/src/chsys.c" 1
 212 0042 83F31188 		msr     BASEPRI, r3
 213              	@ 0 "" 2
 214              		.thumb
 215              	.LBE5:
 216 0046 2069     		ldr	r0, [r4, #16]
 217 0048 B047     		blx	r6
 218              	.LVL14:
 219              	.LBB6:
 220 004a 2023     		movs	r3, #32
 221              	@ 150 "../../ChibiOS_2.6.5/os/kernel/src/chsys.c" 1
 222 004c 83F31188 		msr     BASEPRI, r3
 223              	@ 0 "" 2
 224              		.thumb
 225              	.LBE6:
 226 0050 FFF7FEFF 		bl	dbg_check_lock_from_isr
 227              	.LVL15:
 228              	.LBE4:
ARM GAS  /tmp/ccAZvDw4.s 			page 5


 229 0054 2C68     		ldr	r4, [r5]
 230              	.LVL16:
 231 0056 A368     		ldr	r3, [r4, #8]
 232 0058 002B     		cmp	r3, #0
 233 005a EAD0     		beq	.L14
 234              	.LVL17:
 235              	.L10:
 236 005c F8BD     		pop	{r3, r4, r5, r6, r7, pc}
 237              	.L22:
 238 005e 00BF     		.align	2
 239              	.L21:
 240 0060 00000000 		.word	rlist
 241 0064 00000000 		.word	vtlist
 242              	.LBE3:
 243              		.cfi_endproc
 244              	.LFE9:
 245              		.size	chSysTimerHandlerI, .-chSysTimerHandlerI
 246              		.global	_idle_thread_wa
 247              		.section	.rodata.str1.4,"aMS",%progbits,1
 248              		.align	2
 249              	.LC0:
 250 0000 69646C65 		.ascii	"idle\000"
 250      00
 251              		.section	.bss.mainthread.4860,"aw",%nobits
 252              		.align	2
 253              		.set	.LANCHOR0,. + 0
 254              		.type	mainthread.4860, %object
 255              		.size	mainthread.4860, 76
 256              	mainthread.4860:
 257 0000 00000000 		.space	76
 257      00000000 
 257      00000000 
 257      00000000 
 257      00000000 
 258              		.section	.bss._idle_thread_wa,"aw",%nobits
 259              		.align	3
 260              		.set	.LANCHOR1,. + 0
 261              		.type	_idle_thread_wa, %object
 262              		.size	_idle_thread_wa, 224
 263              	_idle_thread_wa:
 264 0000 00000000 		.space	224
 264      00000000 
 264      00000000 
 264      00000000 
 264      00000000 
 265              		.text
 266              	.Letext0:
 267              		.file 2 "/usr/lib/gcc/arm-none-eabi/4.9.3/include/stddef.h"
 268              		.file 3 "/usr/include/newlib/machine/_default_types.h"
 269              		.file 4 "/usr/include/newlib/sys/_stdint.h"
 270              		.file 5 "../../ChibiOS_2.6.5/os/ports/GCC/ARMCMx/chtypes.h"
 271              		.file 6 "../../ChibiOS_2.6.5/os/kernel/include/chlists.h"
 272              		.file 7 "../../ChibiOS_2.6.5/os/kernel/include/chthreads.h"
 273              		.file 8 "../../ChibiOS_2.6.5/os/ports/GCC/ARMCMx/chcore_v7m.h"
 274              		.file 9 "../../ChibiOS_2.6.5/os/kernel/include/chvt.h"
 275              		.file 10 "../../ChibiOS_2.6.5/os/kernel/include/chschd.h"
 276              		.file 11 "../../ChibiOS_2.6.5/os/kernel/include/chmtx.h"
ARM GAS  /tmp/ccAZvDw4.s 			page 6


 277              		.file 12 "../../ChibiOS_2.6.5/os/kernel/include/chregistry.h"
 278              		.file 13 "../../ChibiOS_2.6.5/os/kernel/include/chmemcore.h"
 279              		.file 14 "../../ChibiOS_2.6.5/os/kernel/include/chheap.h"
 280              		.file 15 "../../ChibiOS_2.6.5/os/kernel/include/chdebug.h"