ARM GAS  /tmp/cc8VlDZz.s 			page 1


   1              		.syntax unified
   2              		.cpu cortex-m4
   3              		.fpu softvfp
   4              		.eabi_attribute 20, 1
   5              		.eabi_attribute 21, 1
   6              		.eabi_attribute 23, 3
   7              		.eabi_attribute 24, 1
   8              		.eabi_attribute 25, 1
   9              		.eabi_attribute 26, 1
  10              		.eabi_attribute 30, 2
  11              		.eabi_attribute 34, 1
  12              		.eabi_attribute 18, 4
  13              		.thumb
  14              		.file	"main.c"
  15              		.text
  16              	.Ltext0:
  17              		.cfi_sections	.debug_frame
  18              		.section	.text.adccb,"ax",%progbits
  19              		.align	2
  20              		.p2align 4,,15
  21              		.thumb
  22              		.thumb_func
  23              		.type	adccb, %function
  24              	adccb:
  25              	.LFB119:
  26              		.file 1 "main.c"
  27              		.loc 1 56 0
  28              		.cfi_startproc
  29              		@ args = 0, pretend = 0, frame = 0
  30              		@ frame_needed = 0, uses_anonymous_args = 0
  31              		@ link register save eliminated.
  32              	.LVL0:
  33 0000 7047     		bx	lr
  34              		.cfi_endproc
  35              	.LFE119:
  36              		.size	adccb, .-adccb
  37 0002 00BF     		.section	.text.writeLedThread,"ax",%progbits
  38              		.align	2
  39              		.p2align 4,,15
  40              		.thumb
  41              		.thumb_func
  42              		.type	writeLedThread, %function
  43              	writeLedThread:
  44              	.LFB125:
  45              		.loc 1 199 0
  46              		.cfi_startproc
  47              		@ args = 0, pretend = 0, frame = 0
  48              		@ frame_needed = 0, uses_anonymous_args = 0
  49              	.LVL1:
  50              		.loc 1 201 0
  51 0000 0E4B     		ldr	r3, .L8
  52 0002 0F4A     		ldr	r2, .L8+4
  53 0004 9B69     		ldr	r3, [r3, #24]
  54              		.loc 1 199 0
  55 0006 2DE9F041 		push	{r4, r5, r6, r7, r8, lr}
  56              		.cfi_def_cfa_offset 24
  57              		.cfi_offset 4, -24
ARM GAS  /tmp/cc8VlDZz.s 			page 2


  58              		.cfi_offset 5, -20
  59              		.cfi_offset 6, -16
  60              		.cfi_offset 7, -12
  61              		.cfi_offset 8, -8
  62              		.cfi_offset 14, -4
  63 000a DFF83C80 		ldr	r8, .L8+12
  64              	.LBB2:
  65              		.loc 1 205 0
  66 000e 0D4D     		ldr	r5, .L8+8
  67              	.LBE2:
  68              		.loc 1 201 0
  69 0010 9A61     		str	r2, [r3, #24]
  70              	.LBB3:
  71              		.loc 1 205 0
  72 0012 4FF40047 		mov	r7, #32768
  73 0016 48F20006 		movw	r6, 32768	@ movhi
  74              	.LVL2:
  75              	.L4:
  76              		.loc 1 204 0
  77 001a 98F80030 		ldrb	r3, [r8]	@ zero_extendqisi2
  78              		.loc 1 205 0
  79 001e 6E83     		strh	r6, [r5, #26]	@ movhi
  80              		.loc 1 204 0
  81 0020 002B     		cmp	r3, #0
  82 0022 14BF     		ite	ne
  83 0024 4B24     		movne	r4, #75
  84 0026 4FF4FA74 		moveq	r4, #500
  85              		.loc 1 206 0
  86 002a 2046     		mov	r0, r4
  87 002c FFF7FEFF 		bl	chThdSleep
  88              	.LVL3:
  89              		.loc 1 208 0
  90 0030 2046     		mov	r0, r4
  91              		.loc 1 207 0
  92 0032 2F83     		strh	r7, [r5, #24]	@ movhi
  93              		.loc 1 208 0
  94 0034 FFF7FEFF 		bl	chThdSleep
  95              	.LVL4:
  96              	.LBE3:
  97              		.loc 1 209 0
  98 0038 EFE7     		b	.L4
  99              	.L9:
 100 003a 00BF     		.align	2
 101              	.L8:
 102 003c 00000000 		.word	rlist
 103 0040 00000000 		.word	.LC0
 104 0044 000C0240 		.word	1073875968
 105 0048 00000000 		.word	.LANCHOR0
 106              		.cfi_endproc
 107              	.LFE125:
 108              		.size	writeLedThread, .-writeLedThread
 109              		.section	.text.usbThread,"ax",%progbits
 110              		.align	2
 111              		.p2align 4,,15
 112              		.thumb
 113              		.thumb_func
 114              		.type	usbThread, %function
ARM GAS  /tmp/cc8VlDZz.s 			page 3


 115              	usbThread:
 116              	.LFB122:
 117              		.loc 1 105 0
 118              		.cfi_startproc
 119              		@ args = 0, pretend = 0, frame = 0
 120              		@ frame_needed = 0, uses_anonymous_args = 0
 121              	.LVL5:
 122              		.loc 1 107 0
 123 0000 0B4B     		ldr	r3, .L15
 124 0002 0C4A     		ldr	r2, .L15+4
 125 0004 9B69     		ldr	r3, [r3, #24]
 126              		.loc 1 105 0
 127 0006 70B5     		push	{r4, r5, r6, lr}
 128              		.cfi_def_cfa_offset 16
 129              		.cfi_offset 4, -16
 130              		.cfi_offset 5, -12
 131              		.cfi_offset 6, -8
 132              		.cfi_offset 14, -4
 133              	.LBB4:
 134              		.loc 1 114 0
 135 0008 0B4E     		ldr	r6, .L15+8
 136              	.LBE4:
 137              		.loc 1 107 0
 138 000a 9A61     		str	r2, [r3, #24]
 139              	.LBB5:
 140              		.loc 1 114 0
 141 000c 4FF40055 		mov	r5, #8192
 142              	.LVL6:
 143              	.L12:
 144              		.loc 1 110 0
 145 0010 FFF7FEFF 		bl	isUSBActive
 146              	.LVL7:
 147 0014 0028     		cmp	r0, #0
 148 0016 14BF     		ite	ne
 149 0018 7D24     		movne	r4, #125
 150 001a 4FF4FA74 		moveq	r4, #500
 151              		.loc 1 115 0
 152 001e 2046     		mov	r0, r4
 153              		.loc 1 114 0
 154 0020 7583     		strh	r5, [r6, #26]	@ movhi
 155              		.loc 1 115 0
 156 0022 FFF7FEFF 		bl	chThdSleep
 157              	.LVL8:
 158              		.loc 1 117 0
 159 0026 2046     		mov	r0, r4
 160              		.loc 1 116 0
 161 0028 3583     		strh	r5, [r6, #24]	@ movhi
 162              		.loc 1 117 0
 163 002a FFF7FEFF 		bl	chThdSleep
 164              	.LVL9:
 165              	.LBE5:
 166              		.loc 1 118 0
 167 002e EFE7     		b	.L12
 168              	.L16:
 169              		.align	2
 170              	.L15:
 171 0030 00000000 		.word	rlist
ARM GAS  /tmp/cc8VlDZz.s 			page 4


 172 0034 10000000 		.word	.LC1
 173 0038 000C0240 		.word	1073875968
 174              		.cfi_endproc
 175              	.LFE122:
 176              		.size	usbThread, .-usbThread
 177              		.section	.text.adcSampleThread,"ax",%progbits
 178              		.align	2
 179              		.p2align 4,,15
 180              		.thumb
 181              		.thumb_func
 182              		.type	adcSampleThread, %function
 183              	adcSampleThread:
 184              	.LFB126:
 185              		.loc 1 214 0
 186              		.cfi_startproc
 187              		@ Volatile: function does not return.
 188              		@ args = 0, pretend = 0, frame = 0
 189              		@ frame_needed = 0, uses_anonymous_args = 0
 190              	.LVL10:
 191 0000 08B5     		push	{r3, lr}
 192              		.cfi_def_cfa_offset 8
 193              		.cfi_offset 3, -8
 194              		.cfi_offset 14, -4
 195              		.loc 1 216 0
 196 0002 054B     		ldr	r3, .L20
 197 0004 054A     		ldr	r2, .L20+4
 198 0006 9B69     		ldr	r3, [r3, #24]
 199 0008 9A61     		str	r2, [r3, #24]
 200              	.LVL11:
 201              	.L18:
 202              		.loc 1 219 0 discriminator 1
 203 000a 0549     		ldr	r1, .L20+8
 204 000c 054A     		ldr	r2, .L20+12
 205 000e 0648     		ldr	r0, .L20+16
 206 0010 0423     		movs	r3, #4
 207 0012 FFF7FEFF 		bl	adcConvert
 208              	.LVL12:
 209              		.loc 1 225 0 discriminator 1
 210 0016 F8E7     		b	.L18
 211              	.L21:
 212              		.align	2
 213              	.L20:
 214 0018 00000000 		.word	rlist
 215 001c 14000000 		.word	.LC2
 216 0020 00000000 		.word	.LANCHOR1
 217 0024 00000000 		.word	.LANCHOR2
 218 0028 00000000 		.word	ADCD1
 219              		.cfi_endproc
 220              	.LFE126:
 221              		.size	adcSampleThread, .-adcSampleThread
 222              		.section	.text.writeThread,"ax",%progbits
 223              		.align	2
 224              		.p2align 4,,15
 225              		.thumb
 226              		.thumb_func
 227              		.type	writeThread, %function
 228              	writeThread:
ARM GAS  /tmp/cc8VlDZz.s 			page 5


 229              	.LFB124:
 230              		.loc 1 148 0
 231              		.cfi_startproc
 232              		@ args = 0, pretend = 0, frame = 16
 233              		@ frame_needed = 0, uses_anonymous_args = 0
 234              	.LVL13:
 235 0000 2DE9F04F 		push	{r4, r5, r6, r7, r8, r9, r10, fp, lr}
 236              		.cfi_def_cfa_offset 36
 237              		.cfi_offset 4, -36
 238              		.cfi_offset 5, -32
 239              		.cfi_offset 6, -28
 240              		.cfi_offset 7, -24
 241              		.cfi_offset 8, -20
 242              		.cfi_offset 9, -16
 243              		.cfi_offset 10, -12
 244              		.cfi_offset 11, -8
 245              		.cfi_offset 14, -4
 246              		.loc 1 151 0
 247 0004 234B     		ldr	r3, .L27
 248 0006 244E     		ldr	r6, .L27+4
 249 0008 9B69     		ldr	r3, [r3, #24]
 250 000a 244A     		ldr	r2, .L27+8
 251 000c DFF89880 		ldr	r8, .L27+20
 252 0010 DFF89890 		ldr	r9, .L27+24
 253 0014 224F     		ldr	r7, .L27+12
 254 0016 DFF898B0 		ldr	fp, .L27+28
 255 001a 9A61     		str	r2, [r3, #24]
 256              		.loc 1 148 0
 257 001c 85B0     		sub	sp, sp, #20
 258              		.cfi_def_cfa_offset 56
 259              	.LBB6:
 260              		.loc 1 185 0
 261 001e B246     		mov	r10, r6
 262              	.LVL14:
 263              	.L24:
 264              		.loc 1 162 0
 265 0020 B8F80610 		ldrh	r1, [r8, #6]
 266              	.LVL15:
 267 0024 B8F80200 		ldrh	r0, [r8, #2]
 268              	.LVL16:
 269 0028 B8F80A20 		ldrh	r2, [r8, #10]
 270 002c B8F80E30 		ldrh	r3, [r8, #14]
 271 0030 0844     		add	r0, r0, r1
 272              	.LVL17:
 273 0032 1044     		add	r0, r0, r2
 274 0034 1844     		add	r0, r0, r3
 275              		.loc 1 164 0
 276 0036 6946     		mov	r1, sp
 277              	.LVL18:
 278 0038 0A22     		movs	r2, #10
 279 003a 8008     		lsrs	r0, r0, #2
 280 003c FFF7FEFF 		bl	itoa
 281              	.LVL19:
 282              		.loc 1 175 0
 283 0040 99E80700 		ldmia	r9, {r0, r1, r2}
 284 0044 01AB     		add	r3, sp, #4
 285 0046 03C3     		stmia	r3!, {r0, r1}
ARM GAS  /tmp/cc8VlDZz.s 			page 6


 286              		.loc 1 176 0
 287 0048 9DF80050 		ldrb	r5, [sp]	@ zero_extendqisi2
 288              		.loc 1 177 0
 289 004c 9DF80140 		ldrb	r4, [sp, #1]	@ zero_extendqisi2
 290              		.loc 1 178 0
 291 0050 9DF80200 		ldrb	r0, [sp, #2]	@ zero_extendqisi2
 292              		.loc 1 179 0
 293 0054 9DF80310 		ldrb	r1, [sp, #3]	@ zero_extendqisi2
 294              		.loc 1 176 0
 295 0058 8DF80850 		strb	r5, [sp, #8]
 296              		.loc 1 177 0
 297 005c 8DF80940 		strb	r4, [sp, #9]
 298              		.loc 1 175 0
 299 0060 1A70     		strb	r2, [r3]
 300              		.loc 1 178 0
 301 0062 8DF80A00 		strb	r0, [sp, #10]
 302              		.loc 1 179 0
 303 0066 8DF80B10 		strb	r1, [sp, #11]
 304              	.LVL20:
 305              		.loc 1 182 0
 306 006a 0924     		movs	r4, #9
 307              		.loc 1 185 0
 308 006c 0125     		movs	r5, #1
 309              	.LVL21:
 310              	.L23:
 311              		.loc 1 186 0
 312 006e 0D48     		ldr	r0, .L27+16
 313 0070 3B68     		ldr	r3, [r7]
 314              		.loc 1 185 0
 315 0072 3570     		strb	r5, [r6]
 316              		.loc 1 186 0
 317 0074 01A9     		add	r1, sp, #4
 318 0076 0922     		movs	r2, #9
 319 0078 FFF7FEFF 		bl	chOQWriteTimeout
 320              	.LVL22:
 321              		.loc 1 187 0
 322 007c 241A     		subs	r4, r4, r0
 323              	.LVL23:
 324              		.loc 1 184 0
 325 007e 002C     		cmp	r4, #0
 326 0080 F5DC     		bgt	.L23
 327              		.loc 1 189 0
 328 0082 0023     		movs	r3, #0
 329              		.loc 1 193 0
 330 0084 0120     		movs	r0, #1
 331              	.LVL24:
 332              		.loc 1 189 0
 333 0086 8BF80030 		strb	r3, [fp]
 334              	.LVL25:
 335              		.loc 1 191 0
 336 008a 8AF80030 		strb	r3, [r10]
 337              		.loc 1 193 0
 338 008e FFF7FEFF 		bl	chThdSleep
 339              	.LVL26:
 340              	.LBE6:
 341              		.loc 1 194 0
 342 0092 C5E7     		b	.L24
ARM GAS  /tmp/cc8VlDZz.s 			page 7


 343              	.L28:
 344              		.align	2
 345              	.L27:
 346 0094 00000000 		.word	rlist
 347 0098 00000000 		.word	.LANCHOR0
 348 009c 20000000 		.word	.LC3
 349 00a0 00000000 		.word	.LANCHOR4
 350 00a4 30000000 		.word	SDU1+48
 351 00a8 00000000 		.word	.LANCHOR2
 352 00ac 00000000 		.word	.LANCHOR3
 353 00b0 00000000 		.word	.LANCHOR5
 354              		.cfi_endproc
 355              	.LFE124:
 356              		.size	writeThread, .-writeThread
 357              		.section	.text.sdGetLine,"ax",%progbits
 358              		.align	2
 359              		.p2align 4,,15
 360              		.global	sdGetLine
 361              		.thumb
 362              		.thumb_func
 363              		.type	sdGetLine, %function
 364              	sdGetLine:
 365              	.LFB120:
 366              		.loc 1 74 0
 367              		.cfi_startproc
 368              		@ args = 0, pretend = 0, frame = 0
 369              		@ frame_needed = 0, uses_anonymous_args = 0
 370              	.LVL27:
 371 0000 70B5     		push	{r4, r5, r6, lr}
 372              		.cfi_def_cfa_offset 16
 373              		.cfi_offset 4, -16
 374              		.cfi_offset 5, -12
 375              		.cfi_offset 6, -8
 376              		.cfi_offset 14, -4
 377              		.loc 1 74 0
 378 0002 0D46     		mov	r5, r1
 379 0004 00F10C06 		add	r6, r0, #12
 380 0008 0C46     		mov	r4, r1
 381 000a 00E0     		b	.L30
 382              	.LVL28:
 383              	.L31:
 384 000c 1C46     		mov	r4, r3
 385              	.LVL29:
 386              	.L30:
 387              		.loc 1 80 0 discriminator 1
 388 000e 3046     		mov	r0, r6
 389 0010 4FF0FF31 		mov	r1, #-1
 390 0014 FFF7FEFF 		bl	chIQGetTimeout
 391              	.LVL30:
 392              		.loc 1 81 0 discriminator 1
 393 0018 2346     		mov	r3, r4
 394              		.loc 1 80 0 discriminator 1
 395 001a C2B2     		uxtb	r2, r0
 396              	.LVL31:
 397              		.loc 1 81 0 discriminator 1
 398 001c 03F8012B 		strb	r2, [r3], #1
 399              		.loc 1 83 0 discriminator 1
ARM GAS  /tmp/cc8VlDZz.s 			page 8


 400 0020 0A2A     		cmp	r2, #10
 401 0022 A3EB0500 		sub	r0, r3, r5
 402              	.LVL32:
 403 0026 F1D1     		bne	.L31
 404              		.loc 1 84 0
 405 0028 0023     		movs	r3, #0
 406 002a 6370     		strb	r3, [r4, #1]
 407              		.loc 1 86 0
 408 002c 70BD     		pop	{r4, r5, r6, pc}
 409              		.cfi_endproc
 410              	.LFE120:
 411              		.size	sdGetLine, .-sdGetLine
 412 002e 00BF     		.section	.text.readThread,"ax",%progbits
 413              		.align	2
 414              		.p2align 4,,15
 415              		.thumb
 416              		.thumb_func
 417              		.type	readThread, %function
 418              	readThread:
 419              	.LFB123:
 420              		.loc 1 125 0
 421              		.cfi_startproc
 422              		@ args = 0, pretend = 0, frame = 0
 423              		@ frame_needed = 0, uses_anonymous_args = 0
 424              	.LVL33:
 425              		.loc 1 126 0
 426 0000 0D4B     		ldr	r3, .L38
 427 0002 0E4A     		ldr	r2, .L38+4
 428 0004 9B69     		ldr	r3, [r3, #24]
 429              		.loc 1 125 0
 430 0006 70B5     		push	{r4, r5, r6, lr}
 431              		.cfi_def_cfa_offset 16
 432              		.cfi_offset 4, -16
 433              		.cfi_offset 5, -12
 434              		.cfi_offset 6, -8
 435              		.cfi_offset 14, -4
 436 0008 0D4E     		ldr	r6, .L38+8
 437              	.LBB7:
 438              		.loc 1 141 0
 439 000a 0E4D     		ldr	r5, .L38+12
 440              	.LBE7:
 441              		.loc 1 126 0
 442 000c 9A61     		str	r2, [r3, #24]
 443              	.LVL34:
 444              	.L34:
 445              	.LBB8:
 446              		.loc 1 132 0
 447 000e 0E49     		ldr	r1, .L38+16
 448 0010 0E48     		ldr	r0, .L38+20
 449 0012 FFF7FEFF 		bl	sdGetLine
 450              	.LVL35:
 451 0016 0446     		mov	r4, r0
 452              	.LVL36:
 453              		.loc 1 133 0
 454 0018 0120     		movs	r0, #1
 455              	.LVL37:
 456 001a FFF7FEFF 		bl	chThdSleep
ARM GAS  /tmp/cc8VlDZz.s 			page 9


 457              	.LVL38:
 458              		.loc 1 136 0
 459 001e 002C     		cmp	r4, #0
 460              		.loc 1 135 0
 461 0020 4FF00103 		mov	r3, #1
 462 0024 3370     		strb	r3, [r6]
 463              		.loc 1 138 0
 464 0026 4FF48053 		mov	r3, #4096
 465              		.loc 1 141 0
 466 002a D6BF     		itet	le
 467 002c 4FF48053 		movle	r3, #4096
 468              		.loc 1 138 0
 469 0030 2B83     		strhgt	r3, [r5, #24]	@ movhi
 470              		.loc 1 141 0
 471 0032 6B83     		strhle	r3, [r5, #26]	@ movhi
 472 0034 EBE7     		b	.L34
 473              	.L39:
 474 0036 00BF     		.align	2
 475              	.L38:
 476 0038 00000000 		.word	rlist
 477 003c 30000000 		.word	.LC5
 478 0040 00000000 		.word	.LANCHOR5
 479 0044 000C0240 		.word	1073875968
 480 0048 00000000 		.word	.LANCHOR6
 481 004c 00000000 		.word	SDU1
 482              	.LBE8:
 483              		.cfi_endproc
 484              	.LFE123:
 485              		.size	readThread, .-readThread
 486              		.section	.text.sdPutLine,"ax",%progbits
 487              		.align	2
 488              		.p2align 4,,15
 489              		.global	sdPutLine
 490              		.thumb
 491              		.thumb_func
 492              		.type	sdPutLine, %function
 493              	sdPutLine:
 494              	.LFB121:
 495              		.loc 1 89 0
 496              		.cfi_startproc
 497              		@ args = 0, pretend = 0, frame = 0
 498              		@ frame_needed = 0, uses_anonymous_args = 0
 499              	.LVL39:
 500 0000 F8B5     		push	{r3, r4, r5, r6, r7, lr}
 501              		.cfi_def_cfa_offset 24
 502              		.cfi_offset 3, -24
 503              		.cfi_offset 4, -20
 504              		.cfi_offset 5, -16
 505              		.cfi_offset 6, -12
 506              		.cfi_offset 7, -8
 507              		.cfi_offset 14, -4
 508              		.loc 1 91 0
 509 0002 CEB2     		uxtb	r6, r1
 510              	.LVL40:
 511              		.loc 1 89 0
 512 0004 0F46     		mov	r7, r1
 513 0006 00F13005 		add	r5, r0, #48
ARM GAS  /tmp/cc8VlDZz.s 			page 10


 514              		.loc 1 91 0
 515 000a 3446     		mov	r4, r6
 516              	.LVL41:
 517              	.L41:
 518              		.loc 1 95 0 discriminator 1
 519 000c 2146     		mov	r1, r4
 520              		.loc 1 96 0 discriminator 1
 521 000e 0134     		adds	r4, r4, #1
 522              	.LVL42:
 523              		.loc 1 95 0 discriminator 1
 524 0010 2846     		mov	r0, r5
 525 0012 0122     		movs	r2, #1
 526 0014 4FF0FF33 		mov	r3, #-1
 527              		.loc 1 96 0 discriminator 1
 528 0018 E4B2     		uxtb	r4, r4
 529              		.loc 1 95 0 discriminator 1
 530 001a FFF7FEFF 		bl	chOQWriteTimeout
 531              	.LVL43:
 532              		.loc 1 98 0 discriminator 1
 533 001e 0A2C     		cmp	r4, #10
 534 0020 F4D1     		bne	.L41
 535 0022 C6F10900 		rsb	r0, r6, #9
 536              		.loc 1 99 0
 537 0026 0023     		movs	r3, #0
 538 0028 C0B2     		uxtb	r0, r0
 539 002a 3B70     		strb	r3, [r7]
 540              		.loc 1 101 0
 541 002c 0130     		adds	r0, r0, #1
 542 002e F8BD     		pop	{r3, r4, r5, r6, r7, pc}
 543              		.cfi_endproc
 544              	.LFE121:
 545              		.size	sdPutLine, .-sdPutLine
 546              		.section	.text.startup.main,"ax",%progbits
 547              		.align	2
 548              		.p2align 4,,15
 549              		.global	main
 550              		.thumb
 551              		.thumb_func
 552              		.type	main, %function
 553              	main:
 554              	.LFB127:
 555              		.loc 1 230 0
 556              		.cfi_startproc
 557              		@ args = 0, pretend = 0, frame = 0
 558              		@ frame_needed = 0, uses_anonymous_args = 0
 559              	.LVL44:
 560 0000 70B5     		push	{r4, r5, r6, lr}
 561              		.cfi_def_cfa_offset 16
 562              		.cfi_offset 4, -16
 563              		.cfi_offset 5, -12
 564              		.cfi_offset 6, -8
 565              		.cfi_offset 14, -4
 566 0002 82B0     		sub	sp, sp, #8
 567              		.cfi_def_cfa_offset 24
 568              		.loc 1 233 0
 569 0004 FFF7FEFF 		bl	halInit
 570              	.LVL45:
ARM GAS  /tmp/cc8VlDZz.s 			page 11


 571              		.loc 1 234 0
 572 0008 FFF7FEFF 		bl	chSysInit
 573              	.LVL46:
 574              		.loc 1 236 0
 575 000c FFF7FEFF 		bl	initializeUSB
 576              	.LVL47:
 577              		.loc 1 241 0
 578 0010 2348     		ldr	r0, .L49
 579              	.LBB9:
 580              		.loc 1 272 0
 581 0012 244E     		ldr	r6, .L49+4
 582              	.LBE9:
 583              		.loc 1 241 0
 584 0014 0021     		movs	r1, #0
 585 0016 FFF7FEFF 		bl	adcStart
 586              	.LVL48:
 587              		.loc 1 251 0
 588 001a 0024     		movs	r4, #0
 589              		.loc 1 242 0
 590 001c FFF7FEFF 		bl	adcSTM32EnableTSVREFE
 591              	.LVL49:
 592              		.loc 1 243 0
 593 0020 2148     		ldr	r0, .L49+8
 594 0022 0221     		movs	r1, #2
 595 0024 0322     		movs	r2, #3
 596 0026 FFF7FEFF 		bl	_pal_lld_setgroupmode
 597              	.LVL50:
 598              		.loc 1 251 0
 599 002a 204B     		ldr	r3, .L49+12
 600 002c 0094     		str	r4, [sp]
 601 002e 4FF4A871 		mov	r1, #336
 602 0032 0222     		movs	r2, #2
 603 0034 1E48     		ldr	r0, .L49+16
 604 0036 FFF7FEFF 		bl	chThdCreateStatic
 605              	.LVL51:
 606              		.loc 1 253 0
 607 003a 1E4B     		ldr	r3, .L49+20
 608 003c 0094     		str	r4, [sp]
 609 003e 4FF4A871 		mov	r1, #336
 610 0042 7F22     		movs	r2, #127
 611 0044 1C48     		ldr	r0, .L49+24
 612 0046 FFF7FEFF 		bl	chThdCreateStatic
 613              	.LVL52:
 614              		.loc 1 254 0
 615 004a 1C4B     		ldr	r3, .L49+28
 616 004c 0094     		str	r4, [sp]
 617 004e 4FF4A871 		mov	r1, #336
 618 0052 0222     		movs	r2, #2
 619 0054 1A48     		ldr	r0, .L49+32
 620 0056 FFF7FEFF 		bl	chThdCreateStatic
 621              	.LVL53:
 622              		.loc 1 256 0
 623 005a 1A4B     		ldr	r3, .L49+36
 624 005c 0094     		str	r4, [sp]
 625 005e 4FF4A871 		mov	r1, #336
 626 0062 7F22     		movs	r2, #127
 627 0064 1848     		ldr	r0, .L49+40
ARM GAS  /tmp/cc8VlDZz.s 			page 12


 628 0066 FFF7FEFF 		bl	chThdCreateStatic
 629              	.LVL54:
 630              		.loc 1 258 0
 631 006a 0094     		str	r4, [sp]
 632 006c 1748     		ldr	r0, .L49+44
 633 006e 184B     		ldr	r3, .L49+48
 634 0070 4FF48871 		mov	r1, #272
 635 0074 0222     		movs	r2, #2
 636 0076 FFF7FEFF 		bl	chThdCreateStatic
 637              	.LVL55:
 638              	.LBB10:
 639              		.loc 1 272 0
 640 007a 4FF40055 		mov	r5, #8192
 641              	.L46:
 642              		.loc 1 268 0
 643 007e FFF7FEFF 		bl	isUSBActive
 644              	.LVL56:
 645 0082 0028     		cmp	r0, #0
 646 0084 14BF     		ite	ne
 647 0086 7D24     		movne	r4, #125
 648 0088 4FF4FA74 		moveq	r4, #500
 649              		.loc 1 273 0
 650 008c 2046     		mov	r0, r4
 651              		.loc 1 272 0
 652 008e 7583     		strh	r5, [r6, #26]	@ movhi
 653              		.loc 1 273 0
 654 0090 FFF7FEFF 		bl	chThdSleep
 655              	.LVL57:
 656              		.loc 1 275 0
 657 0094 2046     		mov	r0, r4
 658              		.loc 1 274 0
 659 0096 3583     		strh	r5, [r6, #24]	@ movhi
 660              		.loc 1 275 0
 661 0098 FFF7FEFF 		bl	chThdSleep
 662              	.LVL58:
 663              	.LBE10:
 664              		.loc 1 276 0
 665 009c EFE7     		b	.L46
 666              	.L50:
 667 009e 00BF     		.align	2
 668              	.L49:
 669 00a0 00000000 		.word	ADCD1
 670 00a4 000C0240 		.word	1073875968
 671 00a8 00080240 		.word	1073874944
 672 00ac 00000000 		.word	usbThread
 673 00b0 00000000 		.word	.LANCHOR7
 674 00b4 00000000 		.word	writeThread
 675 00b8 00000000 		.word	.LANCHOR8
 676 00bc 00000000 		.word	writeLedThread
 677 00c0 00000000 		.word	.LANCHOR9
 678 00c4 00000000 		.word	readThread
 679 00c8 00000000 		.word	.LANCHOR10
 680 00cc 00000000 		.word	.LANCHOR11
 681 00d0 00000000 		.word	adcSampleThread
 682              		.cfi_endproc
 683              	.LFE127:
 684              		.size	main, .-main
ARM GAS  /tmp/cc8VlDZz.s 			page 13


 685              		.global	blinkLedBlue
 686              		.global	readOK
 687              		.global	bufferRead
 688              		.global	timeOut
 689              		.section	.rodata
 690              		.align	2
 691              		.set	.LANCHOR3,. + 0
 692              	.LC4:
 693 0000 612E312E 		.ascii	"a.1.1234\012\000"
 693      31323334 
 693      0A00
 694              		.section	.bss.blinkLedBlue,"aw",%nobits
 695              		.set	.LANCHOR0,. + 0
 696              		.type	blinkLedBlue, %object
 697              		.size	blinkLedBlue, 1
 698              	blinkLedBlue:
 699 0000 00       		.space	1
 700              		.section	.bss.readThreadWA,"aw",%nobits
 701              		.align	3
 702              		.set	.LANCHOR10,. + 0
 703              		.type	readThreadWA, %object
 704              		.size	readThreadWA, 336
 705              	readThreadWA:
 706 0000 00000000 		.space	336
 706      00000000 
 706      00000000 
 706      00000000 
 706      00000000 
 707              		.section	.data.timeOut,"aw",%progbits
 708              		.align	2
 709              		.set	.LANCHOR4,. + 0
 710              		.type	timeOut, %object
 711              		.size	timeOut, 4
 712              	timeOut:
 713 0000 0A000000 		.word	10
 714              		.section	.bss.adcSampleThreadWA,"aw",%nobits
 715              		.align	3
 716              		.set	.LANCHOR11,. + 0
 717              		.type	adcSampleThreadWA, %object
 718              		.size	adcSampleThreadWA, 272
 719              	adcSampleThreadWA:
 720 0000 00000000 		.space	272
 720      00000000 
 720      00000000 
 720      00000000 
 720      00000000 
 721              		.section	.bss.writeLedThreadWA,"aw",%nobits
 722              		.align	3
 723              		.set	.LANCHOR9,. + 0
 724              		.type	writeLedThreadWA, %object
 725              		.size	writeLedThreadWA, 336
 726              	writeLedThreadWA:
 727 0000 00000000 		.space	336
 727      00000000 
 727      00000000 
 727      00000000 
 727      00000000 
ARM GAS  /tmp/cc8VlDZz.s 			page 14


 728              		.section	.bss.usbThreadWA,"aw",%nobits
 729              		.align	3
 730              		.set	.LANCHOR7,. + 0
 731              		.type	usbThreadWA, %object
 732              		.size	usbThreadWA, 336
 733              	usbThreadWA:
 734 0000 00000000 		.space	336
 734      00000000 
 734      00000000 
 734      00000000 
 734      00000000 
 735              		.section	.rodata.str1.4,"aMS",%progbits,1
 736              		.align	2
 737              	.LC0:
 738 0000 77726974 		.ascii	"write led blue\000"
 738      65206C65 
 738      6420626C 
 738      756500
 739 000f 00       		.space	1
 740              	.LC1:
 741 0010 75736200 		.ascii	"usb\000"
 742              	.LC2:
 743 0014 53616D70 		.ascii	"Sample ADC\000"
 743      6C652041 
 743      444300
 744 001f 00       		.space	1
 745              	.LC3:
 746 0020 77726974 		.ascii	"write thread\000"
 746      65207468 
 746      72656164 
 746      00
 747 002d 000000   		.space	3
 748              	.LC5:
 749 0030 72656164 		.ascii	"read thread\000"
 749      20746872 
 749      65616400 
 750              		.section	.rodata.adcgrpcfg,"a",%progbits
 751              		.align	2
 752              		.set	.LANCHOR1,. + 0
 753              		.type	adcgrpcfg, %object
 754              		.size	adcgrpcfg, 40
 755              	adcgrpcfg:
 756 0000 00       		.byte	0
 757 0001 00       		.space	1
 758 0002 0200     		.short	2
 759 0004 00000000 		.word	adccb
 760 0008 00000000 		.word	0
 761 000c 00000000 		.word	0
 762 0010 00000040 		.word	1073741824
 763 0014 18000C00 		.word	786456
 764 0018 00000000 		.word	0
 765 001c 00001000 		.word	1048576
 766 0020 00000000 		.word	0
 767 0024 70010000 		.word	368
 768              		.section	.bss.samples,"aw",%nobits
 769              		.align	2
 770              		.set	.LANCHOR2,. + 0
ARM GAS  /tmp/cc8VlDZz.s 			page 15


 771              		.type	samples, %object
 772              		.size	samples, 16
 773              	samples:
 774 0000 00000000 		.space	16
 774      00000000 
 774      00000000 
 774      00000000 
 775              		.section	.bss.readOK,"aw",%nobits
 776              		.set	.LANCHOR5,. + 0
 777              		.type	readOK, %object
 778              		.size	readOK, 1
 779              	readOK:
 780 0000 00       		.space	1
 781              		.section	.bss.writeThreadArea,"aw",%nobits
 782              		.align	3
 783              		.set	.LANCHOR8,. + 0
 784              		.type	writeThreadArea, %object
 785              		.size	writeThreadArea, 336
 786              	writeThreadArea:
 787 0000 00000000 		.space	336
 787      00000000 
 787      00000000 
 787      00000000 
 787      00000000 
 788              		.section	.bss.bufferRead,"aw",%nobits
 789              		.align	2
 790              		.set	.LANCHOR6,. + 0
 791              		.type	bufferRead, %object
 792              		.size	bufferRead, 64
 793              	bufferRead:
 794 0000 00000000 		.space	64
 794      00000000 
 794      00000000 
 794      00000000 
 794      00000000 
 795              		.text
 796              	.Letext0:
 797              		.file 2 "/usr/include/newlib/machine/_default_types.h"
 798              		.file 3 "/usr/lib/gcc/arm-none-eabi/4.9.3/include/stddef.h"
 799              		.file 4 "/usr/include/newlib/sys/_stdint.h"
 800              		.file 5 "../../ChibiOS_2.6.5/os/ports/GCC/ARMCMx/chtypes.h"
 801              		.file 6 "../../ChibiOS_2.6.5/os/kernel/include/chlists.h"
 802              		.file 7 "../../ChibiOS_2.6.5/os/kernel/include/chthreads.h"
 803              		.file 8 "../../ChibiOS_2.6.5/os/ports/GCC/ARMCMx/chcore_v7m.h"
 804              		.file 9 "../../ChibiOS_2.6.5/os/kernel/include/chschd.h"
 805              		.file 10 "../../ChibiOS_2.6.5/os/kernel/include/chmtx.h"
 806              		.file 11 "../../ChibiOS_2.6.5/os/kernel/include/chevents.h"
 807              		.file 12 "../../ChibiOS_2.6.5/os/kernel/include/chqueues.h"
 808              		.file 13 "../../ChibiOS_2.6.5/os/hal/platforms/STM32F4xx/stm32f4xx.h"
 809              		.file 14 "../../ChibiOS_2.6.5/os/hal/platforms/STM32F4xx/stm32_dma.h"
 810              		.file 15 "../../ChibiOS_2.6.5/os/hal/platforms/STM32/GPIOv2/pal_lld.h"
 811              		.file 16 "../../ChibiOS_2.6.5/os/hal/include/adc.h"
 812              		.file 17 "../../ChibiOS_2.6.5/os/hal/platforms/STM32F4xx/adc_lld.h"
 813              		.file 18 "../../ChibiOS_2.6.5/os/hal/include/serial.h"
 814              		.file 19 "../../ChibiOS_2.6.5/os/hal/include/usb.h"
 815              		.file 20 "../../ChibiOS_2.6.5/os/hal/platforms/STM32/OTGv1/usb_lld.h"
 816              		.file 21 "../../ChibiOS_2.6.5/os/hal/platforms/STM32/OTGv1/stm32_otg.h"
ARM GAS  /tmp/cc8VlDZz.s 			page 16


 817              		.file 22 "../../ChibiOS_2.6.5/os/hal/include/serial_usb.h"
 818              		.file 23 "../../ChibiOS_2.6.5/os/ports/common/ARMCMx/CMSIS/include/core_cm4.h"
 819              		.file 24 "USB/USB.h"
 820              		.file 25 "../../ChibiOS_2.6.5/os/hal/include/hal.h"
 821              		.file 26 "../../ChibiOS_2.6.5/os/kernel/include/chsys.h"