ARM GAS  /tmp/ccIk5Pzb.s 			page 1


   1              		.syntax unified
   2              		.cpu cortex-m4
   3              		.fpu softvfp
   4              		.eabi_attribute 20, 1
   5              		.eabi_attribute 21, 1
   6              		.eabi_attribute 23, 3
   7              		.eabi_attribute 24, 1
   8              		.eabi_attribute 25, 1
   9              		.eabi_attribute 26, 1
  10              		.eabi_attribute 30, 2
  11              		.eabi_attribute 34, 1
  12              		.eabi_attribute 18, 4
  13              		.thumb
  14              		.file	"serial_usb.c"
  15              		.text
  16              	.Ltext0:
  17              		.cfi_sections	.debug_frame
  18              		.section	.text.onotify,"ax",%progbits
  19              		.align	2
  20              		.p2align 4,,15
  21              		.thumb
  22              		.thumb_func
  23              		.type	onotify, %function
  24              	onotify:
  25              	.LFB127:
  26              		.file 1 "../../ChibiOS_2.6.5/os/hal/src/serial_usb.c"
  27              		.loc 1 150 0
  28              		.cfi_startproc
  29              		@ args = 0, pretend = 0, frame = 0
  30              		@ frame_needed = 0, uses_anonymous_args = 0
  31              	.LVL0:
  32 0000 70B5     		push	{r4, r5, r6, lr}
  33              		.cfi_def_cfa_offset 16
  34              		.cfi_offset 4, -16
  35              		.cfi_offset 5, -12
  36              		.cfi_offset 6, -8
  37              		.cfi_offset 14, -4
  38              		.loc 1 152 0
  39 0002 046A     		ldr	r4, [r0, #32]
  40              	.LVL1:
  41              		.loc 1 156 0
  42 0004 D4F85422 		ldr	r2, [r4, #596]
  43 0008 1368     		ldr	r3, [r2]
  44 000a 1978     		ldrb	r1, [r3]	@ zero_extendqisi2
  45 000c 0429     		cmp	r1, #4
  46 000e 00D0     		beq	.L8
  47              	.L1:
  48 0010 70BD     		pop	{r4, r5, r6, pc}
  49              	.LVL2:
  50              	.L8:
  51              		.loc 1 156 0 is_stmt 0 discriminator 1
  52 0012 217A     		ldrb	r1, [r4, #8]	@ zero_extendqisi2
  53 0014 0229     		cmp	r1, #2
  54 0016 FBD1     		bne	.L1
  55              		.loc 1 162 0 is_stmt 1
  56 0018 1B89     		ldrh	r3, [r3, #8]
  57 001a 1279     		ldrb	r2, [r2, #4]	@ zero_extendqisi2
ARM GAS  /tmp/ccIk5Pzb.s 			page 2


  58 001c 1341     		asrs	r3, r3, r2
  59 001e 13F00105 		ands	r5, r3, #1
  60 0022 F5D1     		bne	.L1
  61              		.loc 1 163 0 discriminator 1
  62 0024 226C     		ldr	r2, [r4, #64]
  63 0026 E36B     		ldr	r3, [r4, #60]
  64 0028 A66B     		ldr	r6, [r4, #56]
  65 002a D31A     		subs	r3, r2, r3
  66              	.LVL3:
  67              		.loc 1 162 0 discriminator 1
  68 002c 9E1B     		subs	r6, r3, r6
  69              	.LVL4:
  70 002e EFD0     		beq	.L1
  71              		.loc 1 164 0
  72 0030 FFF7FEFF 		bl	dbg_check_unlock
  73              	.LVL5:
  74              	.LBB2:
  75 0034 2B46     		mov	r3, r5
  76              	@ 164 "../../ChibiOS_2.6.5/os/hal/src/serial_usb.c" 1
  77 0036 83F31188 		msr     BASEPRI, r3
  78              	@ 0 "" 2
  79              		.thumb
  80              	.LBE2:
  81              		.loc 1 166 0
  82 003a D4F85422 		ldr	r2, [r4, #596]
  83 003e 3346     		mov	r3, r6
  84 0040 1068     		ldr	r0, [r2]
  85 0042 1179     		ldrb	r1, [r2, #4]	@ zero_extendqisi2
  86 0044 04F13002 		add	r2, r4, #48
  87 0048 FFF7FEFF 		bl	usbPrepareQueuedTransmit
  88              	.LVL6:
  89              	.LBB3:
  90              		.loc 1 170 0
  91 004c 2023     		movs	r3, #32
  92              	@ 170 "../../ChibiOS_2.6.5/os/hal/src/serial_usb.c" 1
  93 004e 83F31188 		msr     BASEPRI, r3
  94              	@ 0 "" 2
  95              		.thumb
  96              	.LBE3:
  97 0052 FFF7FEFF 		bl	dbg_check_lock
  98              	.LVL7:
  99              		.loc 1 171 0
 100 0056 D4F85432 		ldr	r3, [r4, #596]
 101              		.loc 1 173 0
 102 005a BDE87040 		pop	{r4, r5, r6, lr}
 103              		.cfi_restore 14
 104              		.cfi_restore 6
 105              		.cfi_restore 5
 106              		.cfi_restore 4
 107              		.cfi_def_cfa_offset 0
 108              	.LVL8:
 109              		.loc 1 171 0
 110 005e 1868     		ldr	r0, [r3]
 111 0060 1979     		ldrb	r1, [r3, #4]	@ zero_extendqisi2
 112 0062 FFF7FEBF 		b	usbStartTransmitI
 113              	.LVL9:
 114              		.cfi_endproc
ARM GAS  /tmp/ccIk5Pzb.s 			page 3


 115              	.LFE127:
 116              		.size	onotify, .-onotify
 117 0066 00BF     		.section	.text.inotify,"ax",%progbits
 118              		.align	2
 119              		.p2align 4,,15
 120              		.thumb
 121              		.thumb_func
 122              		.type	inotify, %function
 123              	inotify:
 124              	.LFB126:
 125              		.loc 1 119 0
 126              		.cfi_startproc
 127              		@ args = 0, pretend = 0, frame = 0
 128              		@ frame_needed = 0, uses_anonymous_args = 0
 129              	.LVL10:
 130 0000 F8B5     		push	{r3, r4, r5, r6, r7, lr}
 131              		.cfi_def_cfa_offset 24
 132              		.cfi_offset 3, -24
 133              		.cfi_offset 4, -20
 134              		.cfi_offset 5, -16
 135              		.cfi_offset 6, -12
 136              		.cfi_offset 7, -8
 137              		.cfi_offset 14, -4
 138              		.loc 1 121 0
 139 0002 046A     		ldr	r4, [r0, #32]
 140              	.LVL11:
 141              		.loc 1 125 0
 142 0004 D4F85432 		ldr	r3, [r4, #596]
 143 0008 1A68     		ldr	r2, [r3]
 144 000a 1178     		ldrb	r1, [r2]	@ zero_extendqisi2
 145 000c 0429     		cmp	r1, #4
 146 000e 00D0     		beq	.L12
 147              	.L9:
 148 0010 F8BD     		pop	{r3, r4, r5, r6, r7, pc}
 149              	.LVL12:
 150              	.L12:
 151              		.loc 1 125 0 is_stmt 0 discriminator 1
 152 0012 217A     		ldrb	r1, [r4, #8]	@ zero_extendqisi2
 153 0014 0229     		cmp	r1, #2
 154 0016 FBD1     		bne	.L9
 155              		.loc 1 132 0 is_stmt 1
 156 0018 5979     		ldrb	r1, [r3, #5]	@ zero_extendqisi2
 157              		.loc 1 133 0
 158 001a 5389     		ldrh	r3, [r2, #10]
 159              		.loc 1 132 0
 160 001c 02EB8102 		add	r2, r2, r1, lsl #2
 161              		.loc 1 133 0
 162 0020 0B41     		asrs	r3, r3, r1
 163              		.loc 1 132 0
 164 0022 D268     		ldr	r2, [r2, #12]
 165              		.loc 1 133 0
 166 0024 13F00105 		ands	r5, r3, #1
 167              		.loc 1 132 0
 168 0028 578A     		ldrh	r7, [r2, #18]
 169              	.LVL13:
 170              		.loc 1 133 0
 171 002a F1D1     		bne	.L9
ARM GAS  /tmp/ccIk5Pzb.s 			page 4


 172              		.loc 1 134 0 discriminator 1
 173 002c A669     		ldr	r6, [r4, #24]
 174 002e E269     		ldr	r2, [r4, #28]
 175 0030 6369     		ldr	r3, [r4, #20]
 176 0032 921B     		subs	r2, r2, r6
 177 0034 D61A     		subs	r6, r2, r3
 178              	.LVL14:
 179              		.loc 1 133 0 discriminator 1
 180 0036 B742     		cmp	r7, r6
 181 0038 EAD8     		bhi	.L9
 182              		.loc 1 135 0
 183 003a FFF7FEFF 		bl	dbg_check_unlock
 184              	.LVL15:
 185              	.LBB4:
 186 003e 2B46     		mov	r3, r5
 187              	@ 135 "../../ChibiOS_2.6.5/os/hal/src/serial_usb.c" 1
 188 0040 83F31188 		msr     BASEPRI, r3
 189              	@ 0 "" 2
 190              		.thumb
 191              	.LBE4:
 192              		.loc 1 138 0
 193 0044 D4F85422 		ldr	r2, [r4, #596]
 194              		.loc 1 137 0
 195 0048 B6FBF7F3 		udiv	r3, r6, r7
 196              	.LVL16:
 197              		.loc 1 138 0
 198 004c 1068     		ldr	r0, [r2]
 199 004e 5179     		ldrb	r1, [r2, #5]	@ zero_extendqisi2
 200 0050 07FB03F3 		mul	r3, r7, r3
 201              	.LVL17:
 202 0054 04F10C02 		add	r2, r4, #12
 203 0058 FFF7FEFF 		bl	usbPrepareQueuedReceive
 204              	.LVL18:
 205              	.LBB5:
 206              		.loc 1 142 0
 207 005c 2023     		movs	r3, #32
 208              	@ 142 "../../ChibiOS_2.6.5/os/hal/src/serial_usb.c" 1
 209 005e 83F31188 		msr     BASEPRI, r3
 210              	@ 0 "" 2
 211              		.thumb
 212              	.LBE5:
 213 0062 FFF7FEFF 		bl	dbg_check_lock
 214              	.LVL19:
 215              		.loc 1 143 0
 216 0066 D4F85432 		ldr	r3, [r4, #596]
 217 006a 1868     		ldr	r0, [r3]
 218 006c 5979     		ldrb	r1, [r3, #5]	@ zero_extendqisi2
 219              		.loc 1 145 0
 220 006e BDE8F840 		pop	{r3, r4, r5, r6, r7, lr}
 221              		.cfi_restore 14
 222              		.cfi_restore 7
 223              		.cfi_restore 6
 224              		.cfi_restore 5
 225              		.cfi_restore 4
 226              		.cfi_restore 3
 227              		.cfi_def_cfa_offset 0
 228              	.LVL20:
ARM GAS  /tmp/ccIk5Pzb.s 			page 5


 229              		.loc 1 143 0
 230 0072 FFF7FEBF 		b	usbStartReceiveI
 231              	.LVL21:
 232              		.cfi_endproc
 233              	.LFE126:
 234              		.size	inotify, .-inotify
 235 0076 00BF     		.section	.text.readt,"ax",%progbits
 236              		.align	2
 237              		.p2align 4,,15
 238              		.thumb
 239              		.thumb_func
 240              		.type	readt, %function
 241              	readt:
 242              	.LFB125:
 243              		.loc 1 106 0
 244              		.cfi_startproc
 245              		@ args = 0, pretend = 0, frame = 0
 246              		@ frame_needed = 0, uses_anonymous_args = 0
 247              		@ link register save eliminated.
 248              	.LVL22:
 249              		.loc 1 108 0
 250 0000 0C30     		adds	r0, r0, #12
 251              	.LVL23:
 252 0002 FFF7FEBF 		b	chIQReadTimeout
 253              	.LVL24:
 254              		.cfi_endproc
 255              	.LFE125:
 256              		.size	readt, .-readt
 257 0006 00BF     		.section	.text.read,"ax",%progbits
 258              		.align	2
 259              		.p2align 4,,15
 260              		.thumb
 261              		.thumb_func
 262              		.type	read, %function
 263              	read:
 264              	.LFB119:
 265              		.loc 1 75 0
 266              		.cfi_startproc
 267              		@ args = 0, pretend = 0, frame = 0
 268              		@ frame_needed = 0, uses_anonymous_args = 0
 269              		@ link register save eliminated.
 270              	.LVL25:
 271              		.loc 1 77 0
 272 0000 0C30     		adds	r0, r0, #12
 273              	.LVL26:
 274 0002 4FF0FF33 		mov	r3, #-1
 275 0006 FFF7FEBF 		b	chIQReadTimeout
 276              	.LVL27:
 277              		.cfi_endproc
 278              	.LFE119:
 279              		.size	read, .-read
 280 000a 00BF     		.section	.text.writet,"ax",%progbits
 281              		.align	2
 282              		.p2align 4,,15
 283              		.thumb
 284              		.thumb_func
 285              		.type	writet, %function
ARM GAS  /tmp/ccIk5Pzb.s 			page 6


 286              	writet:
 287              	.LFB124:
 288              		.loc 1 101 0
 289              		.cfi_startproc
 290              		@ args = 0, pretend = 0, frame = 0
 291              		@ frame_needed = 0, uses_anonymous_args = 0
 292              		@ link register save eliminated.
 293              	.LVL28:
 294              		.loc 1 103 0
 295 0000 3030     		adds	r0, r0, #48
 296              	.LVL29:
 297 0002 FFF7FEBF 		b	chOQWriteTimeout
 298              	.LVL30:
 299              		.cfi_endproc
 300              	.LFE124:
 301              		.size	writet, .-writet
 302 0006 00BF     		.section	.text.write,"ax",%progbits
 303              		.align	2
 304              		.p2align 4,,15
 305              		.thumb
 306              		.thumb_func
 307              		.type	write, %function
 308              	write:
 309              	.LFB118:
 310              		.loc 1 69 0
 311              		.cfi_startproc
 312              		@ args = 0, pretend = 0, frame = 0
 313              		@ frame_needed = 0, uses_anonymous_args = 0
 314              		@ link register save eliminated.
 315              	.LVL31:
 316              		.loc 1 71 0
 317 0000 3030     		adds	r0, r0, #48
 318              	.LVL32:
 319 0002 4FF0FF33 		mov	r3, #-1
 320 0006 FFF7FEBF 		b	chOQWriteTimeout
 321              	.LVL33:
 322              		.cfi_endproc
 323              	.LFE118:
 324              		.size	write, .-write
 325 000a 00BF     		.section	.text.gett,"ax",%progbits
 326              		.align	2
 327              		.p2align 4,,15
 328              		.thumb
 329              		.thumb_func
 330              		.type	gett, %function
 331              	gett:
 332              	.LFB123:
 333              		.loc 1 96 0
 334              		.cfi_startproc
 335              		@ args = 0, pretend = 0, frame = 0
 336              		@ frame_needed = 0, uses_anonymous_args = 0
 337              		@ link register save eliminated.
 338              	.LVL34:
 339              		.loc 1 98 0
 340 0000 0C30     		adds	r0, r0, #12
 341              	.LVL35:
 342 0002 FFF7FEBF 		b	chIQGetTimeout
ARM GAS  /tmp/ccIk5Pzb.s 			page 7


 343              	.LVL36:
 344              		.cfi_endproc
 345              	.LFE123:
 346              		.size	gett, .-gett
 347 0006 00BF     		.section	.text.get,"ax",%progbits
 348              		.align	2
 349              		.p2align 4,,15
 350              		.thumb
 351              		.thumb_func
 352              		.type	get, %function
 353              	get:
 354              	.LFB121:
 355              		.loc 1 86 0
 356              		.cfi_startproc
 357              		@ args = 0, pretend = 0, frame = 0
 358              		@ frame_needed = 0, uses_anonymous_args = 0
 359              		@ link register save eliminated.
 360              	.LVL37:
 361              		.loc 1 88 0
 362 0000 0C30     		adds	r0, r0, #12
 363              	.LVL38:
 364 0002 4FF0FF31 		mov	r1, #-1
 365 0006 FFF7FEBF 		b	chIQGetTimeout
 366              	.LVL39:
 367              		.cfi_endproc
 368              	.LFE121:
 369              		.size	get, .-get
 370 000a 00BF     		.section	.text.putt,"ax",%progbits
 371              		.align	2
 372              		.p2align 4,,15
 373              		.thumb
 374              		.thumb_func
 375              		.type	putt, %function
 376              	putt:
 377              	.LFB122:
 378              		.loc 1 91 0
 379              		.cfi_startproc
 380              		@ args = 0, pretend = 0, frame = 0
 381              		@ frame_needed = 0, uses_anonymous_args = 0
 382              		@ link register save eliminated.
 383              	.LVL40:
 384              		.loc 1 93 0
 385 0000 3030     		adds	r0, r0, #48
 386              	.LVL41:
 387 0002 FFF7FEBF 		b	chOQPutTimeout
 388              	.LVL42:
 389              		.cfi_endproc
 390              	.LFE122:
 391              		.size	putt, .-putt
 392 0006 00BF     		.section	.text.put,"ax",%progbits
 393              		.align	2
 394              		.p2align 4,,15
 395              		.thumb
 396              		.thumb_func
 397              		.type	put, %function
 398              	put:
 399              	.LFB120:
ARM GAS  /tmp/ccIk5Pzb.s 			page 8


 400              		.loc 1 81 0
 401              		.cfi_startproc
 402              		@ args = 0, pretend = 0, frame = 0
 403              		@ frame_needed = 0, uses_anonymous_args = 0
 404              		@ link register save eliminated.
 405              	.LVL43:
 406              		.loc 1 83 0
 407 0000 3030     		adds	r0, r0, #48
 408              	.LVL44:
 409 0002 4FF0FF32 		mov	r2, #-1
 410 0006 FFF7FEBF 		b	chOQPutTimeout
 411              	.LVL45:
 412              		.cfi_endproc
 413              	.LFE120:
 414              		.size	put, .-put
 415 000a 00BF     		.section	.text.sduInit,"ax",%progbits
 416              		.align	2
 417              		.p2align 4,,15
 418              		.global	sduInit
 419              		.thumb
 420              		.thumb_func
 421              		.type	sduInit, %function
 422              	sduInit:
 423              	.LFB128:
 424              		.loc 1 186 0
 425              		.cfi_startproc
 426              		@ args = 0, pretend = 0, frame = 0
 427              		@ frame_needed = 0, uses_anonymous_args = 0
 428              		@ link register save eliminated.
 429 0000 7047     		bx	lr
 430              		.cfi_endproc
 431              	.LFE128:
 432              		.size	sduInit, .-sduInit
 433 0002 00BF     		.section	.text.sduObjectInit,"ax",%progbits
 434              		.align	2
 435              		.p2align 4,,15
 436              		.global	sduObjectInit
 437              		.thumb
 438              		.thumb_func
 439              		.type	sduObjectInit, %function
 440              	sduObjectInit:
 441              	.LFB129:
 442              		.loc 1 198 0
 443              		.cfi_startproc
 444              		@ args = 0, pretend = 0, frame = 0
 445              		@ frame_needed = 0, uses_anonymous_args = 0
 446              	.LVL46:
 447              		.loc 1 198 0
 448 0000 10B5     		push	{r4, lr}
 449              		.cfi_def_cfa_offset 8
 450              		.cfi_offset 4, -8
 451              		.cfi_offset 14, -4
 452              		.loc 1 200 0
 453 0002 0346     		mov	r3, r0
 454 0004 0E4A     		ldr	r2, .L24
 455 0006 43F8042B 		str	r2, [r3], #4
 456              		.loc 1 198 0
ARM GAS  /tmp/ccIk5Pzb.s 			page 9


 457 000a 82B0     		sub	sp, sp, #8
 458              		.cfi_def_cfa_offset 16
 459              		.loc 1 198 0
 460 000c 0446     		mov	r4, r0
 461              		.loc 1 202 0
 462 000e 0122     		movs	r2, #1
 463              		.loc 1 203 0
 464 0010 0090     		str	r0, [sp]
 465 0012 04F15401 		add	r1, r4, #84
 466              		.loc 1 201 0
 467 0016 4360     		str	r3, [r0, #4]
 468              		.loc 1 202 0
 469 0018 0272     		strb	r2, [r0, #8]
 470              		.loc 1 203 0
 471 001a 0A4B     		ldr	r3, .L24+4
 472 001c 0C30     		adds	r0, r0, #12
 473              	.LVL47:
 474 001e 4FF48072 		mov	r2, #256
 475 0022 FFF7FEFF 		bl	chIQInit
 476              	.LVL48:
 477              		.loc 1 204 0
 478 0026 0094     		str	r4, [sp]
 479 0028 04F13000 		add	r0, r4, #48
 480 002c 04F5AA71 		add	r1, r4, #340
 481 0030 4FF48072 		mov	r2, #256
 482 0034 044B     		ldr	r3, .L24+8
 483 0036 FFF7FEFF 		bl	chOQInit
 484              	.LVL49:
 485              		.loc 1 205 0
 486 003a 02B0     		add	sp, sp, #8
 487              		.cfi_def_cfa_offset 8
 488              		@ sp needed
 489 003c 10BD     		pop	{r4, pc}
 490              	.LVL50:
 491              	.L25:
 492 003e 00BF     		.align	2
 493              	.L24:
 494 0040 00000000 		.word	.LANCHOR0
 495 0044 00000000 		.word	inotify
 496 0048 00000000 		.word	onotify
 497              		.cfi_endproc
 498              	.LFE129:
 499              		.size	sduObjectInit, .-sduObjectInit
 500              		.section	.text.sduStart,"ax",%progbits
 501              		.align	2
 502              		.p2align 4,,15
 503              		.global	sduStart
 504              		.thumb
 505              		.thumb_func
 506              		.type	sduStart, %function
 507              	sduStart:
 508              	.LFB130:
 509              		.loc 1 215 0
 510              		.cfi_startproc
 511              		@ args = 0, pretend = 0, frame = 0
 512              		@ frame_needed = 0, uses_anonymous_args = 0
 513              	.LVL51:
ARM GAS  /tmp/ccIk5Pzb.s 			page 10


 514 0000 70B5     		push	{r4, r5, r6, lr}
 515              		.cfi_def_cfa_offset 16
 516              		.cfi_offset 4, -16
 517              		.cfi_offset 5, -12
 518              		.cfi_offset 6, -8
 519              		.cfi_offset 14, -4
 520              		.loc 1 215 0
 521 0002 0D46     		mov	r5, r1
 522              		.loc 1 218 0
 523 0004 0446     		mov	r4, r0
 524              		.loc 1 216 0
 525 0006 0E68     		ldr	r6, [r1]
 526              	.LVL52:
 527              		.loc 1 218 0
 528 0008 08B3     		cbz	r0, .L30
 529              	.LVL53:
 530              	.L27:
 531              	.LBB6:
 532              		.loc 1 220 0
 533 000a 2023     		movs	r3, #32
 534              	@ 220 "../../ChibiOS_2.6.5/os/hal/src/serial_usb.c" 1
 535 000c 83F31188 		msr     BASEPRI, r3
 536              	@ 0 "" 2
 537              		.thumb
 538              	.LBE6:
 539 0010 FFF7FEFF 		bl	dbg_check_lock
 540              	.LVL54:
 541              		.loc 1 221 0
 542 0014 237A     		ldrb	r3, [r4, #8]	@ zero_extendqisi2
 543 0016 013B     		subs	r3, r3, #1
 544 0018 012B     		cmp	r3, #1
 545 001a 02D9     		bls	.L28
 546              		.loc 1 221 0 is_stmt 0 discriminator 1
 547 001c 0E48     		ldr	r0, .L31
 548 001e FFF7FEFF 		bl	chDbgPanic
 549              	.LVL55:
 550              	.L28:
 551              		.loc 1 224 0 is_stmt 1
 552 0022 2B79     		ldrb	r3, [r5, #4]	@ zero_extendqisi2
 553 0024 06EB8303 		add	r3, r6, r3, lsl #2
 554              		.loc 1 228 0
 555 0028 0222     		movs	r2, #2
 556              		.loc 1 224 0
 557 002a 9C61     		str	r4, [r3, #24]
 558              		.loc 1 225 0
 559 002c 6B79     		ldrb	r3, [r5, #5]	@ zero_extendqisi2
 560 002e 0933     		adds	r3, r3, #9
 561 0030 46F82340 		str	r4, [r6, r3, lsl #2]
 562              		.loc 1 226 0
 563 0034 AB79     		ldrb	r3, [r5, #6]	@ zero_extendqisi2
 564 0036 06EB8306 		add	r6, r6, r3, lsl #2
 565              	.LVL56:
 566 003a B461     		str	r4, [r6, #24]
 567              		.loc 1 227 0
 568 003c C4F85452 		str	r5, [r4, #596]
 569              		.loc 1 228 0
 570 0040 2272     		strb	r2, [r4, #8]
ARM GAS  /tmp/ccIk5Pzb.s 			page 11


 571              		.loc 1 229 0
 572 0042 FFF7FEFF 		bl	dbg_check_unlock
 573              	.LVL57:
 574              	.LBB7:
 575 0046 0023     		movs	r3, #0
 576              	@ 229 "../../ChibiOS_2.6.5/os/hal/src/serial_usb.c" 1
 577 0048 83F31188 		msr     BASEPRI, r3
 578              	@ 0 "" 2
 579              		.thumb
 580 004c 70BD     		pop	{r4, r5, r6, pc}
 581              	.LVL58:
 582              	.L30:
 583              	.LBE7:
 584              		.loc 1 218 0 discriminator 1
 585 004e 0348     		ldr	r0, .L31+4
 586              	.LVL59:
 587 0050 FFF7FEFF 		bl	chDbgPanic
 588              	.LVL60:
 589 0054 D9E7     		b	.L27
 590              	.L32:
 591 0056 00BF     		.align	2
 592              	.L31:
 593 0058 10000000 		.word	.LC1
 594 005c 00000000 		.word	.LC0
 595              		.cfi_endproc
 596              	.LFE130:
 597              		.size	sduStart, .-sduStart
 598              		.section	.text.sduStop,"ax",%progbits
 599              		.align	2
 600              		.p2align 4,,15
 601              		.global	sduStop
 602              		.thumb
 603              		.thumb_func
 604              		.type	sduStop, %function
 605              	sduStop:
 606              	.LFB131:
 607              		.loc 1 241 0
 608              		.cfi_startproc
 609              		@ args = 0, pretend = 0, frame = 0
 610              		@ frame_needed = 0, uses_anonymous_args = 0
 611              	.LVL61:
 612              		.loc 1 242 0
 613 0000 D0F85422 		ldr	r2, [r0, #596]
 614              		.loc 1 241 0
 615 0004 F8B5     		push	{r3, r4, r5, r6, r7, lr}
 616              		.cfi_def_cfa_offset 24
 617              		.cfi_offset 3, -24
 618              		.cfi_offset 4, -20
 619              		.cfi_offset 5, -16
 620              		.cfi_offset 6, -12
 621              		.cfi_offset 7, -8
 622              		.cfi_offset 14, -4
 623              		.loc 1 241 0
 624 0006 0446     		mov	r4, r0
 625              	.LBB8:
 626              		.loc 1 246 0
 627 0008 2023     		movs	r3, #32
ARM GAS  /tmp/ccIk5Pzb.s 			page 12


 628              	.LBE8:
 629              		.loc 1 242 0
 630 000a 1568     		ldr	r5, [r2]
 631              	.LVL62:
 632              	.LBB9:
 633              		.loc 1 246 0
 634              	@ 246 "../../ChibiOS_2.6.5/os/hal/src/serial_usb.c" 1
 635 000c 83F31188 		msr     BASEPRI, r3
 636              	@ 0 "" 2
 637              		.thumb
 638              	.LBE9:
 639 0010 FFF7FEFF 		bl	dbg_check_lock
 640              	.LVL63:
 641              		.loc 1 248 0
 642 0014 237A     		ldrb	r3, [r4, #8]	@ zero_extendqisi2
 643 0016 013B     		subs	r3, r3, #1
 644 0018 012B     		cmp	r3, #1
 645 001a 02D9     		bls	.L34
 646              		.loc 1 248 0 is_stmt 0 discriminator 1
 647 001c 1448     		ldr	r0, .L36
 648 001e FFF7FEFF 		bl	chDbgPanic
 649              	.LVL64:
 650              	.L34:
 651              		.loc 1 253 0 is_stmt 1
 652 0022 D4F85432 		ldr	r3, [r4, #596]
 653 0026 1A79     		ldrb	r2, [r3, #4]	@ zero_extendqisi2
 654 0028 0532     		adds	r2, r2, #5
 655 002a 05EB8202 		add	r2, r5, r2, lsl #2
 656 002e 0026     		movs	r6, #0
 657 0030 5660     		str	r6, [r2, #4]
 658              		.loc 1 254 0
 659 0032 5A79     		ldrb	r2, [r3, #5]	@ zero_extendqisi2
 660 0034 0932     		adds	r2, r2, #9
 661              		.loc 1 256 0
 662 0036 0127     		movs	r7, #1
 663              		.loc 1 254 0
 664 0038 45F82260 		str	r6, [r5, r2, lsl #2]
 665              		.loc 1 255 0
 666 003c 9B79     		ldrb	r3, [r3, #6]	@ zero_extendqisi2
 667 003e 0533     		adds	r3, r3, #5
 668 0040 05EB8305 		add	r5, r5, r3, lsl #2
 669              	.LVL65:
 670              		.loc 1 259 0
 671 0044 0221     		movs	r1, #2
 672 0046 201D     		adds	r0, r4, #4
 673              		.loc 1 255 0
 674 0048 6E60     		str	r6, [r5, #4]
 675              		.loc 1 256 0
 676 004a 2772     		strb	r7, [r4, #8]
 677              		.loc 1 259 0
 678 004c FFF7FEFF 		bl	chEvtBroadcastFlagsI
 679              	.LVL66:
 680              		.loc 1 260 0
 681 0050 04F10C00 		add	r0, r4, #12
 682 0054 FFF7FEFF 		bl	chIQResetI
 683              	.LVL67:
 684              		.loc 1 261 0
ARM GAS  /tmp/ccIk5Pzb.s 			page 13


 685 0058 04F13000 		add	r0, r4, #48
 686 005c FFF7FEFF 		bl	chOQResetI
 687              	.LVL68:
 688              		.loc 1 262 0
 689 0060 FFF7FEFF 		bl	chSchRescheduleS
 690              	.LVL69:
 691              		.loc 1 264 0
 692 0064 FFF7FEFF 		bl	dbg_check_unlock
 693              	.LVL70:
 694              	.LBB10:
 695 0068 3346     		mov	r3, r6
 696              	@ 264 "../../ChibiOS_2.6.5/os/hal/src/serial_usb.c" 1
 697 006a 83F31188 		msr     BASEPRI, r3
 698              	@ 0 "" 2
 699              		.thumb
 700 006e F8BD     		pop	{r3, r4, r5, r6, r7, pc}
 701              	.LVL71:
 702              	.L37:
 703              		.align	2
 704              	.L36:
 705 0070 20000000 		.word	.LC2
 706              	.LBE10:
 707              		.cfi_endproc
 708              	.LFE131:
 709              		.size	sduStop, .-sduStop
 710              		.section	.text.sduConfigureHookI,"ax",%progbits
 711              		.align	2
 712              		.p2align 4,,15
 713              		.global	sduConfigureHookI
 714              		.thumb
 715              		.thumb_func
 716              		.type	sduConfigureHookI, %function
 717              	sduConfigureHookI:
 718              	.LFB132:
 719              		.loc 1 274 0
 720              		.cfi_startproc
 721              		@ args = 0, pretend = 0, frame = 0
 722              		@ frame_needed = 0, uses_anonymous_args = 0
 723              	.LVL72:
 724 0000 70B5     		push	{r4, r5, r6, lr}
 725              		.cfi_def_cfa_offset 16
 726              		.cfi_offset 4, -16
 727              		.cfi_offset 5, -12
 728              		.cfi_offset 6, -8
 729              		.cfi_offset 14, -4
 730              		.loc 1 275 0
 731 0002 D0F85432 		ldr	r3, [r0, #596]
 732              		.loc 1 277 0
 733 0006 00F10C06 		add	r6, r0, #12
 734              		.loc 1 274 0
 735 000a 0446     		mov	r4, r0
 736              		.loc 1 277 0
 737 000c 3046     		mov	r0, r6
 738              	.LVL73:
 739              		.loc 1 275 0
 740 000e 1D68     		ldr	r5, [r3]
 741              	.LVL74:
ARM GAS  /tmp/ccIk5Pzb.s 			page 14


 742              		.loc 1 277 0
 743 0010 FFF7FEFF 		bl	chIQResetI
 744              	.LVL75:
 745              		.loc 1 278 0
 746 0014 04F13000 		add	r0, r4, #48
 747 0018 FFF7FEFF 		bl	chOQResetI
 748              	.LVL76:
 749              		.loc 1 279 0
 750 001c 201D     		adds	r0, r4, #4
 751 001e 0121     		movs	r1, #1
 752 0020 FFF7FEFF 		bl	chEvtBroadcastFlagsI
 753              	.LVL77:
 754              		.loc 1 283 0
 755 0024 D4F85432 		ldr	r3, [r4, #596]
 756 0028 5979     		ldrb	r1, [r3, #5]	@ zero_extendqisi2
 757 002a 05EB8103 		add	r3, r5, r1, lsl #2
 758              		.loc 1 282 0
 759 002e 2846     		mov	r0, r5
 760              		.loc 1 283 0
 761 0030 DB68     		ldr	r3, [r3, #12]
 762              		.loc 1 282 0
 763 0032 3246     		mov	r2, r6
 764 0034 5B8A     		ldrh	r3, [r3, #18]
 765 0036 FFF7FEFF 		bl	usbPrepareQueuedReceive
 766              	.LVL78:
 767              		.loc 1 284 0
 768 003a D4F85432 		ldr	r3, [r4, #596]
 769 003e 2846     		mov	r0, r5
 770 0040 5979     		ldrb	r1, [r3, #5]	@ zero_extendqisi2
 771              		.loc 1 285 0
 772 0042 BDE87040 		pop	{r4, r5, r6, lr}
 773              		.cfi_restore 14
 774              		.cfi_restore 6
 775              		.cfi_restore 5
 776              		.cfi_restore 4
 777              		.cfi_def_cfa_offset 0
 778              	.LVL79:
 779              		.loc 1 284 0
 780 0046 FFF7FEBF 		b	usbStartReceiveI
 781              	.LVL80:
 782              		.cfi_endproc
 783              	.LFE132:
 784              		.size	sduConfigureHookI, .-sduConfigureHookI
 785 004a 00BF     		.section	.text.sduRequestsHook,"ax",%progbits
 786              		.align	2
 787              		.p2align 4,,15
 788              		.global	sduRequestsHook
 789              		.thumb
 790              		.thumb_func
 791              		.type	sduRequestsHook, %function
 792              	sduRequestsHook:
 793              	.LFB133:
 794              		.loc 1 302 0
 795              		.cfi_startproc
 796              		@ args = 0, pretend = 0, frame = 0
 797              		@ frame_needed = 0, uses_anonymous_args = 0
 798              		@ link register save eliminated.
ARM GAS  /tmp/ccIk5Pzb.s 			page 15


 799              	.LVL81:
 800              		.loc 1 304 0
 801 0000 90F84430 		ldrb	r3, [r0, #68]	@ zero_extendqisi2
 802 0004 03F06003 		and	r3, r3, #96
 803 0008 202B     		cmp	r3, #32
 804 000a 01D0     		beq	.L48
 805              	.L47:
 806              		.loc 1 317 0
 807 000c 0020     		movs	r0, #0
 808              	.LVL82:
 809              		.loc 1 321 0
 810 000e 7047     		bx	lr
 811              	.LVL83:
 812              	.L48:
 813              		.loc 1 305 0
 814 0010 90F84530 		ldrb	r3, [r0, #69]	@ zero_extendqisi2
 815 0014 212B     		cmp	r3, #33
 816 0016 03D0     		beq	.L44
 817 0018 222B     		cmp	r3, #34
 818 001a 09D0     		beq	.L43
 819 001c 202B     		cmp	r3, #32
 820 001e F5D1     		bne	.L47
 821              	.L44:
 822              		.loc 1 310 0
 823 0020 064B     		ldr	r3, .L49
 824 0022 8363     		str	r3, [r0, #56]
 825 0024 0722     		movs	r2, #7
 826 0026 0023     		movs	r3, #0
 827 0028 C263     		str	r2, [r0, #60]
 828 002a 0364     		str	r3, [r0, #64]
 829              		.loc 1 311 0
 830 002c 0120     		movs	r0, #1
 831              	.LVL84:
 832 002e 7047     		bx	lr
 833              	.LVL85:
 834              	.L43:
 835              		.loc 1 314 0
 836 0030 0023     		movs	r3, #0
 837 0032 8363     		str	r3, [r0, #56]
 838 0034 C363     		str	r3, [r0, #60]
 839 0036 0364     		str	r3, [r0, #64]
 840              		.loc 1 315 0
 841 0038 0120     		movs	r0, #1
 842              	.LVL86:
 843 003a 7047     		bx	lr
 844              	.L50:
 845              		.align	2
 846              	.L49:
 847 003c 00000000 		.word	.LANCHOR1
 848              		.cfi_endproc
 849              	.LFE133:
 850              		.size	sduRequestsHook, .-sduRequestsHook
 851              		.section	.text.sduDataTransmitted,"ax",%progbits
 852              		.align	2
 853              		.p2align 4,,15
 854              		.global	sduDataTransmitted
 855              		.thumb
ARM GAS  /tmp/ccIk5Pzb.s 			page 16


 856              		.thumb_func
 857              		.type	sduDataTransmitted, %function
 858              	sduDataTransmitted:
 859              	.LFB134:
 860              		.loc 1 331 0
 861              		.cfi_startproc
 862              		@ args = 0, pretend = 0, frame = 0
 863              		@ frame_needed = 0, uses_anonymous_args = 0
 864              	.LVL87:
 865 0000 2DE9F041 		push	{r4, r5, r6, r7, r8, lr}
 866              		.cfi_def_cfa_offset 24
 867              		.cfi_offset 4, -24
 868              		.cfi_offset 5, -20
 869              		.cfi_offset 6, -16
 870              		.cfi_offset 7, -12
 871              		.cfi_offset 8, -8
 872              		.cfi_offset 14, -4
 873 0004 00EB8108 		add	r8, r0, r1, lsl #2
 874              		.loc 1 333 0
 875 0008 D8F81840 		ldr	r4, [r8, #24]
 876              	.LVL88:
 877              		.loc 1 335 0
 878 000c D4B1     		cbz	r4, .L51
 879 000e 0F46     		mov	r7, r1
 880 0010 0646     		mov	r6, r0
 881              	.LBB11:
 882              		.loc 1 338 0
 883 0012 2023     		movs	r3, #32
 884              	@ 338 "../../ChibiOS_2.6.5/os/hal/src/serial_usb.c" 1
 885 0014 83F31188 		msr     BASEPRI, r3
 886              	@ 0 "" 2
 887              		.thumb
 888              	.LBE11:
 889 0018 FFF7FEFF 		bl	dbg_check_lock_from_isr
 890              	.LVL89:
 891              		.loc 1 339 0
 892 001c 201D     		adds	r0, r4, #4
 893 001e 0821     		movs	r1, #8
 894 0020 FFF7FEFF 		bl	chEvtBroadcastFlagsI
 895              	.LVL90:
 896              		.loc 1 341 0
 897 0024 226C     		ldr	r2, [r4, #64]
 898 0026 E36B     		ldr	r3, [r4, #60]
 899 0028 A56B     		ldr	r5, [r4, #56]
 900 002a D31A     		subs	r3, r2, r3
 901              	.LVL91:
 902 002c 5D1B     		subs	r5, r3, r5
 903              	.LVL92:
 904 002e 17D1     		bne	.L63
 905              		.loc 1 351 0
 906 0030 D8F80C30 		ldr	r3, [r8, #12]
 907 0034 5A69     		ldr	r2, [r3, #20]
 908 0036 5568     		ldr	r5, [r2, #4]
 909              	.LVL93:
 910 0038 35B9     		cbnz	r5, .L64
 911              	.LVL94:
 912              	.L54:
ARM GAS  /tmp/ccIk5Pzb.s 			page 17


 913              		.loc 1 366 0
 914 003a FFF7FEFF 		bl	dbg_check_unlock_from_isr
 915              	.LVL95:
 916              	.LBB12:
 917 003e 0023     		movs	r3, #0
 918              	@ 366 "../../ChibiOS_2.6.5/os/hal/src/serial_usb.c" 1
 919 0040 83F31188 		msr     BASEPRI, r3
 920              	@ 0 "" 2
 921              	.LVL96:
 922              		.thumb
 923              	.L51:
 924 0044 BDE8F081 		pop	{r4, r5, r6, r7, r8, pc}
 925              	.LVL97:
 926              	.L64:
 927              	.LBE12:
 928              		.loc 1 353 0 discriminator 1
 929 0048 1B8A     		ldrh	r3, [r3, #16]
 930 004a 013B     		subs	r3, r3, #1
 931              		.loc 1 351 0 discriminator 1
 932 004c 1D40     		ands	r5, r3, r5
 933 004e F4D1     		bne	.L54
 934              		.loc 1 358 0
 935 0050 FFF7FEFF 		bl	dbg_check_unlock_from_isr
 936              	.LVL98:
 937              	.LBB13:
 938 0054 2B46     		mov	r3, r5
 939              	@ 358 "../../ChibiOS_2.6.5/os/hal/src/serial_usb.c" 1
 940 0056 83F31188 		msr     BASEPRI, r3
 941              	@ 0 "" 2
 942              		.thumb
 943              	.LBE13:
 944              		.loc 1 360 0
 945 005a 04F13002 		add	r2, r4, #48
 946 005e 07E0     		b	.L62
 947              	.LVL99:
 948              	.L63:
 949              		.loc 1 344 0
 950 0060 FFF7FEFF 		bl	dbg_check_unlock_from_isr
 951              	.LVL100:
 952              	.LBB14:
 953 0064 0023     		movs	r3, #0
 954              	@ 344 "../../ChibiOS_2.6.5/os/hal/src/serial_usb.c" 1
 955 0066 83F31188 		msr     BASEPRI, r3
 956              	@ 0 "" 2
 957              		.thumb
 958              	.LBE14:
 959              		.loc 1 346 0
 960 006a 04F13002 		add	r2, r4, #48
 961 006e 2B46     		mov	r3, r5
 962              	.LVL101:
 963              	.L62:
 964              		.loc 1 360 0
 965 0070 3046     		mov	r0, r6
 966 0072 3946     		mov	r1, r7
 967 0074 FFF7FEFF 		bl	usbPrepareQueuedTransmit
 968              	.LVL102:
 969              	.LBB15:
ARM GAS  /tmp/ccIk5Pzb.s 			page 18


 970              		.loc 1 362 0
 971 0078 2023     		movs	r3, #32
 972              	@ 362 "../../ChibiOS_2.6.5/os/hal/src/serial_usb.c" 1
 973 007a 83F31188 		msr     BASEPRI, r3
 974              	@ 0 "" 2
 975              		.thumb
 976              	.LBE15:
 977 007e FFF7FEFF 		bl	dbg_check_lock_from_isr
 978              	.LVL103:
 979              		.loc 1 363 0
 980 0082 3046     		mov	r0, r6
 981 0084 3946     		mov	r1, r7
 982 0086 FFF7FEFF 		bl	usbStartTransmitI
 983              	.LVL104:
 984 008a D6E7     		b	.L54
 985              		.cfi_endproc
 986              	.LFE134:
 987              		.size	sduDataTransmitted, .-sduDataTransmitted
 988              		.section	.text.sduDataReceived,"ax",%progbits
 989              		.align	2
 990              		.p2align 4,,15
 991              		.global	sduDataReceived
 992              		.thumb
 993              		.thumb_func
 994              		.type	sduDataReceived, %function
 995              	sduDataReceived:
 996              	.LFB135:
 997              		.loc 1 377 0
 998              		.cfi_startproc
 999              		@ args = 0, pretend = 0, frame = 0
 1000              		@ frame_needed = 0, uses_anonymous_args = 0
 1001              	.LVL105:
 1002 0000 2DE9F843 		push	{r3, r4, r5, r6, r7, r8, r9, lr}
 1003              		.cfi_def_cfa_offset 32
 1004              		.cfi_offset 3, -32
 1005              		.cfi_offset 4, -28
 1006              		.cfi_offset 5, -24
 1007              		.cfi_offset 6, -20
 1008              		.cfi_offset 7, -16
 1009              		.cfi_offset 8, -12
 1010              		.cfi_offset 9, -8
 1011              		.cfi_offset 14, -4
 1012 0004 00EB8104 		add	r4, r0, r1, lsl #2
 1013              		.loc 1 379 0
 1014 0008 666A     		ldr	r6, [r4, #36]
 1015              	.LVL106:
 1016              		.loc 1 381 0
 1017 000a CEB1     		cbz	r6, .L65
 1018 000c 0F46     		mov	r7, r1
 1019 000e 8046     		mov	r8, r0
 1020              	.LBB16:
 1021              		.loc 1 384 0
 1022 0010 2023     		movs	r3, #32
 1023              	@ 384 "../../ChibiOS_2.6.5/os/hal/src/serial_usb.c" 1
 1024 0012 83F31188 		msr     BASEPRI, r3
 1025              	@ 0 "" 2
 1026              		.thumb
ARM GAS  /tmp/ccIk5Pzb.s 			page 19


 1027              	.LBE16:
 1028 0016 FFF7FEFF 		bl	dbg_check_lock_from_isr
 1029              	.LVL107:
 1030              		.loc 1 385 0
 1031 001a 301D     		adds	r0, r6, #4
 1032 001c 0421     		movs	r1, #4
 1033 001e FFF7FEFF 		bl	chEvtBroadcastFlagsI
 1034              	.LVL108:
 1035              		.loc 1 390 0
 1036 0022 06F11403 		add	r3, r6, #20
 1037              		.loc 1 389 0
 1038 0026 E268     		ldr	r2, [r4, #12]
 1039              		.loc 1 390 0
 1040 0028 38CB     		ldmia	r3, {r3, r4, r5}
 1041              		.loc 1 389 0
 1042 002a B2F81290 		ldrh	r9, [r2, #18]
 1043              	.LVL109:
 1044              		.loc 1 390 0
 1045 002e 2D1B     		subs	r5, r5, r4
 1046 0030 EC1A     		subs	r4, r5, r3
 1047              	.LVL110:
 1048 0032 A145     		cmp	r9, r4
 1049 0034 06D9     		bls	.L72
 1050              	.LVL111:
 1051              	.L67:
 1052              		.loc 1 402 0
 1053 0036 FFF7FEFF 		bl	dbg_check_unlock_from_isr
 1054              	.LVL112:
 1055              	.LBB17:
 1056 003a 0023     		movs	r3, #0
 1057              	@ 402 "../../ChibiOS_2.6.5/os/hal/src/serial_usb.c" 1
 1058 003c 83F31188 		msr     BASEPRI, r3
 1059              	@ 0 "" 2
 1060              	.LVL113:
 1061              		.thumb
 1062              	.L65:
 1063 0040 BDE8F883 		pop	{r3, r4, r5, r6, r7, r8, r9, pc}
 1064              	.LVL114:
 1065              	.L72:
 1066              	.LBE17:
 1067              		.loc 1 393 0
 1068 0044 FFF7FEFF 		bl	dbg_check_unlock_from_isr
 1069              	.LVL115:
 1070              	.LBB18:
 1071 0048 0023     		movs	r3, #0
 1072              	@ 393 "../../ChibiOS_2.6.5/os/hal/src/serial_usb.c" 1
 1073 004a 83F31188 		msr     BASEPRI, r3
 1074              	@ 0 "" 2
 1075              		.thumb
 1076              	.LBE18:
 1077              		.loc 1 395 0
 1078 004e B4FBF9F3 		udiv	r3, r4, r9
 1079              	.LVL116:
 1080              		.loc 1 396 0
 1081 0052 06F10C02 		add	r2, r6, #12
 1082 0056 09FB03F3 		mul	r3, r9, r3
 1083              	.LVL117:
ARM GAS  /tmp/ccIk5Pzb.s 			page 20


 1084 005a 4046     		mov	r0, r8
 1085 005c 3946     		mov	r1, r7
 1086 005e FFF7FEFF 		bl	usbPrepareQueuedReceive
 1087              	.LVL118:
 1088              	.LBB19:
 1089              		.loc 1 398 0
 1090 0062 2023     		movs	r3, #32
 1091              	@ 398 "../../ChibiOS_2.6.5/os/hal/src/serial_usb.c" 1
 1092 0064 83F31188 		msr     BASEPRI, r3
 1093              	@ 0 "" 2
 1094              		.thumb
 1095              	.LBE19:
 1096 0068 FFF7FEFF 		bl	dbg_check_lock_from_isr
 1097              	.LVL119:
 1098              		.loc 1 399 0
 1099 006c 4046     		mov	r0, r8
 1100 006e 3946     		mov	r1, r7
 1101 0070 FFF7FEFF 		bl	usbStartReceiveI
 1102              	.LVL120:
 1103 0074 DFE7     		b	.L67
 1104              		.cfi_endproc
 1105              	.LFE135:
 1106              		.size	sduDataReceived, .-sduDataReceived
 1107 0076 00BF     		.section	.text.sduInterruptTransmitted,"ax",%progbits
 1108              		.align	2
 1109              		.p2align 4,,15
 1110              		.global	sduInterruptTransmitted
 1111              		.thumb
 1112              		.thumb_func
 1113              		.type	sduInterruptTransmitted, %function
 1114              	sduInterruptTransmitted:
 1115              	.LFB136:
 1116              		.loc 1 413 0
 1117              		.cfi_startproc
 1118              		@ args = 0, pretend = 0, frame = 0
 1119              		@ frame_needed = 0, uses_anonymous_args = 0
 1120              		@ link register save eliminated.
 1121              	.LVL121:
 1122 0000 7047     		bx	lr
 1123              		.cfi_endproc
 1124              	.LFE136:
 1125              		.size	sduInterruptTransmitted, .-sduInterruptTransmitted
 1126 0002 00BF     		.section	.rodata.str1.4,"aMS",%progbits,1
 1127              		.align	2
 1128              	.LC0:
 1129 0000 22736475 		.ascii	"\"sduStart\"()\000"
 1129      53746172 
 1129      74222829 
 1129      00
 1130 000d 000000   		.space	3
 1131              	.LC1:
 1132 0010 73647553 		.ascii	"sduStart(), #1\000"
 1132      74617274 
 1132      28292C20 
 1132      233100
 1133 001f 00       		.space	1
 1134              	.LC2:
ARM GAS  /tmp/ccIk5Pzb.s 			page 21


 1135 0020 73647553 		.ascii	"sduStop(), #1\000"
 1135      746F7028 
 1135      292C2023 
 1135      3100
 1136              		.section	.rodata.vmt,"a",%progbits
 1137              		.align	2
 1138              		.set	.LANCHOR0,. + 0
 1139              		.type	vmt, %object
 1140              		.size	vmt, 32
 1141              	vmt:
 1142 0000 00000000 		.word	write
 1143 0004 00000000 		.word	read
 1144 0008 00000000 		.word	put
 1145 000c 00000000 		.word	get
 1146 0010 00000000 		.word	putt
 1147 0014 00000000 		.word	gett
 1148 0018 00000000 		.word	writet
 1149 001c 00000000 		.word	readt
 1150              		.section	.data.linecoding,"aw",%progbits
 1151              		.align	2
 1152              		.set	.LANCHOR1,. + 0
 1153              		.type	linecoding, %object
 1154              		.size	linecoding, 7
 1155              	linecoding:
 1156 0000 00       		.byte	0
 1157 0001 96       		.byte	-106
 1158 0002 00       		.byte	0
 1159 0003 00       		.byte	0
 1160 0004 00       		.byte	0
 1161 0005 00       		.byte	0
 1162 0006 08       		.byte	8
 1163              		.text
 1164              	.Letext0:
 1165              		.file 2 "/usr/lib/gcc/arm-none-eabi/4.9.3/include/stddef.h"
 1166              		.file 3 "/usr/include/newlib/machine/_default_types.h"
 1167              		.file 4 "/usr/include/newlib/sys/_stdint.h"
 1168              		.file 5 "../../ChibiOS_2.6.5/os/ports/GCC/ARMCMx/chtypes.h"
 1169              		.file 6 "../../ChibiOS_2.6.5/os/kernel/include/chlists.h"
 1170              		.file 7 "../../ChibiOS_2.6.5/os/kernel/include/chthreads.h"
 1171              		.file 8 "../../ChibiOS_2.6.5/os/ports/GCC/ARMCMx/chcore_v7m.h"
 1172              		.file 9 "../../ChibiOS_2.6.5/os/kernel/include/chmtx.h"
 1173              		.file 10 "../../ChibiOS_2.6.5/os/kernel/include/chevents.h"
 1174              		.file 11 "../../ChibiOS_2.6.5/os/kernel/include/chqueues.h"
 1175              		.file 12 "../../ChibiOS_2.6.5/os/hal/include/usb.h"
 1176              		.file 13 "../../ChibiOS_2.6.5/os/hal/platforms/STM32/OTGv1/usb_lld.h"
 1177              		.file 14 "../../ChibiOS_2.6.5/os/hal/platforms/STM32/OTGv1/stm32_otg.h"
 1178              		.file 15 "../../ChibiOS_2.6.5/os/hal/include/serial_usb.h"
 1179              		.file 16 "../../ChibiOS_2.6.5/os/kernel/include/chdebug.h"
 1180              		.file 17 "../../ChibiOS_2.6.5/os/kernel/include/chschd.h"
 1181              		.file 18 "../../ChibiOS_2.6.5/os/ports/common/ARMCMx/CMSIS/include/core_cm4.h"