ARM GAS  /tmp/ccgcGkhZ.s 			page 1


   1              		.syntax unified
   2              		.cpu cortex-m4
   3              		.fpu softvfp
   4              		.eabi_attribute 20, 1
   5              		.eabi_attribute 21, 1
   6              		.eabi_attribute 23, 3
   7              		.eabi_attribute 24, 1
   8              		.eabi_attribute 25, 1
   9              		.eabi_attribute 26, 1
  10              		.eabi_attribute 30, 2
  11              		.eabi_attribute 34, 1
  12              		.eabi_attribute 18, 4
  13              		.thumb
  14              		.file	"shell.c"
  15              		.text
  16              	.Ltext0:
  17              		.cfi_sections	.debug_frame
  18              		.section	.text.chprintf,"ax",%progbits
  19              		.align	2
  20              		.p2align 4,,15
  21              		.thumb
  22              		.thumb_func
  23              		.type	chprintf, %function
  24              	chprintf:
  25              	.LFB118:
  26              		.file 1 "../../ChibiOS_2.6.5/os/various/chprintf.h"
  27              		.loc 1 69 0
  28              		.cfi_startproc
  29              		@ args = 4, pretend = 12, frame = 8
  30              		@ frame_needed = 0, uses_anonymous_args = 1
  31              	.LVL0:
  32 0000 0EB4     		push	{r1, r2, r3}
  33              		.cfi_def_cfa_offset 12
  34              		.cfi_offset 1, -12
  35              		.cfi_offset 2, -8
  36              		.cfi_offset 3, -4
  37 0002 00B5     		push	{lr}
  38              		.cfi_def_cfa_offset 16
  39              		.cfi_offset 14, -16
  40 0004 82B0     		sub	sp, sp, #8
  41              		.cfi_def_cfa_offset 24
  42              		.loc 1 69 0
  43 0006 03AA     		add	r2, sp, #12
  44 0008 52F8041B 		ldr	r1, [r2], #4
  45              		.loc 1 72 0
  46 000c 0192     		str	r2, [sp, #4]
  47              		.loc 1 73 0
  48 000e FFF7FEFF 		bl	chvprintf
  49              	.LVL1:
  50              		.loc 1 75 0
  51 0012 02B0     		add	sp, sp, #8
  52              		.cfi_def_cfa_offset 16
  53              		@ sp needed
  54 0014 5DF804EB 		ldr	lr, [sp], #4
  55              		.cfi_restore 14
  56              		.cfi_def_cfa_offset 12
  57 0018 03B0     		add	sp, sp, #12
ARM GAS  /tmp/ccgcGkhZ.s 			page 2


  58              		.cfi_restore 3
  59              		.cfi_restore 2
  60              		.cfi_restore 1
  61              		.cfi_def_cfa_offset 0
  62 001a 7047     		bx	lr
  63              		.cfi_endproc
  64              	.LFE118:
  65              		.size	chprintf, .-chprintf
  66              		.section	.text.cmd_systime,"ax",%progbits
  67              		.align	2
  68              		.p2align 4,,15
  69              		.thumb
  70              		.thumb_func
  71              		.type	cmd_systime, %function
  72              	cmd_systime:
  73              	.LFB123:
  74              		.file 2 "../../ChibiOS_2.6.5/os/various/shell.c"
  75              		.loc 2 99 0
  76              		.cfi_startproc
  77              		@ args = 0, pretend = 0, frame = 0
  78              		@ frame_needed = 0, uses_anonymous_args = 0
  79              		@ link register save eliminated.
  80              	.LVL2:
  81              		.loc 2 102 0
  82 0000 0029     		cmp	r1, #0
  83 0002 03DD     		ble	.L4
  84              	.LVL3:
  85              	.LBB24:
  86              	.LBB25:
  87              		.loc 2 56 0
  88 0004 0449     		ldr	r1, .L6
  89              	.LVL4:
  90 0006 054A     		ldr	r2, .L6+4
  91              	.LVL5:
  92 0008 FFF7FEBF 		b	chprintf
  93              	.LVL6:
  94              	.L4:
  95              	.LBE25:
  96              	.LBE24:
  97              	.LBB26:
  98              	.LBB27:
  99              		.loc 2 106 0
 100 000c 044B     		ldr	r3, .L6+8
 101 000e 0549     		ldr	r1, .L6+12
 102              	.LVL7:
 103 0010 DA68     		ldr	r2, [r3, #12]
 104              	.LVL8:
 105 0012 FFF7FEBF 		b	chprintf
 106              	.LVL9:
 107              	.L7:
 108 0016 00BF     		.align	2
 109              	.L6:
 110 0018 00000000 		.word	.LC0
 111 001c 0C000000 		.word	.LC1
 112 0020 00000000 		.word	vtlist
 113 0024 14000000 		.word	.LC2
 114              	.LBE27:
ARM GAS  /tmp/ccgcGkhZ.s 			page 3


 115              	.LBE26:
 116              		.cfi_endproc
 117              	.LFE123:
 118              		.size	cmd_systime, .-cmd_systime
 119              		.section	.text.cmd_info,"ax",%progbits
 120              		.align	2
 121              		.p2align 4,,15
 122              		.thumb
 123              		.thumb_func
 124              		.type	cmd_info, %function
 125              	cmd_info:
 126              	.LFB122:
 127              		.loc 2 67 0
 128              		.cfi_startproc
 129              		@ args = 0, pretend = 0, frame = 0
 130              		@ frame_needed = 0, uses_anonymous_args = 0
 131              	.LVL10:
 132              		.loc 2 70 0
 133 0000 0029     		cmp	r1, #0
 134 0002 03DD     		ble	.L9
 135              	.LVL11:
 136              	.LBB34:
 137              	.LBB35:
 138              		.loc 2 56 0
 139 0004 1949     		ldr	r1, .L11
 140              	.LVL12:
 141 0006 1A4A     		ldr	r2, .L11+4
 142              	.LVL13:
 143 0008 FFF7FEBF 		b	chprintf
 144              	.LVL14:
 145              	.L9:
 146              	.LBE35:
 147              	.LBE34:
 148              		.loc 2 67 0
 149 000c 10B5     		push	{r4, lr}
 150              		.cfi_def_cfa_offset 8
 151              		.cfi_offset 4, -8
 152              		.cfi_offset 14, -4
 153              	.LBB36:
 154              	.LBB37:
 155              		.loc 2 75 0
 156 000e 1949     		ldr	r1, .L11+8
 157              	.LVL15:
 158 0010 194A     		ldr	r2, .L11+12
 159              	.LVL16:
 160              	.LBE37:
 161              	.LBE36:
 162              		.loc 2 67 0
 163 0012 82B0     		sub	sp, sp, #8
 164              		.cfi_def_cfa_offset 16
 165 0014 0446     		mov	r4, r0
 166              	.LVL17:
 167              	.LBB39:
 168              	.LBB38:
 169              		.loc 2 75 0
 170 0016 FFF7FEFF 		bl	chprintf
 171              	.LVL18:
ARM GAS  /tmp/ccgcGkhZ.s 			page 4


 172              		.loc 2 77 0
 173 001a 2046     		mov	r0, r4
 174 001c 1749     		ldr	r1, .L11+16
 175 001e 184A     		ldr	r2, .L11+20
 176 0020 FFF7FEFF 		bl	chprintf
 177              	.LVL19:
 178              		.loc 2 79 0
 179 0024 2046     		mov	r0, r4
 180 0026 1749     		ldr	r1, .L11+24
 181 0028 174A     		ldr	r2, .L11+28
 182 002a FFF7FEFF 		bl	chprintf
 183              	.LVL20:
 184              		.loc 2 81 0
 185 002e 2046     		mov	r0, r4
 186 0030 1649     		ldr	r1, .L11+32
 187 0032 174A     		ldr	r2, .L11+36
 188 0034 FFF7FEFF 		bl	chprintf
 189              	.LVL21:
 190              		.loc 2 84 0
 191 0038 2046     		mov	r0, r4
 192 003a 1649     		ldr	r1, .L11+40
 193 003c 164A     		ldr	r2, .L11+44
 194 003e FFF7FEFF 		bl	chprintf
 195              	.LVL22:
 196              		.loc 2 87 0
 197 0042 2046     		mov	r0, r4
 198 0044 1549     		ldr	r1, .L11+48
 199 0046 164A     		ldr	r2, .L11+52
 200 0048 FFF7FEFF 		bl	chprintf
 201              	.LVL23:
 202              		.loc 2 90 0
 203 004c 2046     		mov	r0, r4
 204 004e 1549     		ldr	r1, .L11+56
 205 0050 154A     		ldr	r2, .L11+60
 206 0052 FFF7FEFF 		bl	chprintf
 207              	.LVL24:
 208              		.loc 2 94 0
 209 0056 154B     		ldr	r3, .L11+64
 210 0058 0093     		str	r3, [sp]
 211 005a 2046     		mov	r0, r4
 212 005c 1449     		ldr	r1, .L11+68
 213 005e 154A     		ldr	r2, .L11+72
 214 0060 154B     		ldr	r3, .L11+76
 215 0062 FFF7FEFF 		bl	chprintf
 216              	.LVL25:
 217              	.LBE38:
 218              	.LBE39:
 219              		.loc 2 97 0
 220 0066 02B0     		add	sp, sp, #8
 221              		.cfi_def_cfa_offset 8
 222              		@ sp needed
 223 0068 10BD     		pop	{r4, pc}
 224              	.LVL26:
 225              	.L12:
 226 006a 00BF     		.align	2
 227              	.L11:
 228 006c 00000000 		.word	.LC0
ARM GAS  /tmp/ccgcGkhZ.s 			page 5


 229 0070 1C000000 		.word	.LC3
 230 0074 24000000 		.word	.LC4
 231 0078 38000000 		.word	.LC5
 232 007c 40000000 		.word	.LC6
 233 0080 54000000 		.word	.LC7
 234 0084 74000000 		.word	.LC8
 235 0088 88000000 		.word	.LC9
 236 008c 94000000 		.word	.LC10
 237 0090 A8000000 		.word	.LC11
 238 0094 B4000000 		.word	.LC12
 239 0098 C8000000 		.word	.LC13
 240 009c E0000000 		.word	.LC14
 241 00a0 F4000000 		.word	.LC15
 242 00a4 28010000 		.word	.LC16
 243 00a8 3C010000 		.word	.LC17
 244 00ac 8C010000 		.word	.LC21
 245 00b0 64010000 		.word	.LC18
 246 00b4 7C010000 		.word	.LC19
 247 00b8 88010000 		.word	.LC20
 248              		.cfi_endproc
 249              	.LFE122:
 250              		.size	cmd_info, .-cmd_info
 251              		.section	.text._strtok.constprop.2,"ax",%progbits
 252              		.align	2
 253              		.p2align 4,,15
 254              		.thumb
 255              		.thumb_func
 256              		.type	_strtok.constprop.2, %function
 257              	_strtok.constprop.2:
 258              	.LFB133:
 259              		.loc 2 37 0
 260              		.cfi_startproc
 261              		@ args = 0, pretend = 0, frame = 0
 262              		@ frame_needed = 0, uses_anonymous_args = 0
 263              	.LVL27:
 264 0000 38B5     		push	{r3, r4, r5, lr}
 265              		.cfi_def_cfa_offset 16
 266              		.cfi_offset 3, -16
 267              		.cfi_offset 4, -12
 268              		.cfi_offset 5, -8
 269              		.cfi_offset 14, -4
 270              		.loc 2 37 0
 271 0002 0D46     		mov	r5, r1
 272              		.loc 2 39 0
 273 0004 0446     		mov	r4, r0
 274 0006 90B1     		cbz	r0, .L14
 275              		.loc 2 40 0
 276 0008 2860     		str	r0, [r5]
 277              	.LVL28:
 278              	.L15:
 279              		.loc 2 46 0
 280 000a 2046     		mov	r0, r4
 281              	.LVL29:
 282 000c 0B49     		ldr	r1, .L25
 283              	.LVL30:
 284 000e FFF7FEFF 		bl	strspn
 285              	.LVL31:
ARM GAS  /tmp/ccgcGkhZ.s 			page 6


 286 0012 0444     		add	r4, r4, r0
 287              	.LVL32:
 288              		.loc 2 47 0
 289 0014 2046     		mov	r0, r4
 290 0016 0949     		ldr	r1, .L25
 291 0018 FFF7FEFF 		bl	strpbrk
 292              	.LVL33:
 293              		.loc 2 48 0
 294 001c 60B1     		cbz	r0, .L24
 295              		.loc 2 49 0
 296 001e 421C     		adds	r2, r0, #1
 297 0020 0023     		movs	r3, #0
 298 0022 2A60     		str	r2, [r5]
 299 0024 0370     		strb	r3, [r0]
 300              	.L18:
 301              		.loc 2 51 0
 302 0026 2378     		ldrb	r3, [r4]	@ zero_extendqisi2
 303 0028 23B1     		cbz	r3, .L19
 304 002a 2046     		mov	r0, r4
 305              		.loc 2 52 0
 306 002c 38BD     		pop	{r3, r4, r5, pc}
 307              	.LVL34:
 308              	.L14:
 309              		.loc 2 41 0
 310 002e 0C68     		ldr	r4, [r1]
 311              	.LVL35:
 312              		.loc 2 43 0
 313 0030 002C     		cmp	r4, #0
 314 0032 EAD1     		bne	.L15
 315              	.LVL36:
 316              	.L19:
 317              		.loc 2 44 0
 318 0034 0020     		movs	r0, #0
 319 0036 38BD     		pop	{r3, r4, r5, pc}
 320              	.LVL37:
 321              	.L24:
 322              		.loc 2 47 0
 323 0038 2860     		str	r0, [r5]
 324 003a F4E7     		b	.L18
 325              	.L26:
 326              		.align	2
 327              	.L25:
 328 003c 98010000 		.word	.LC22
 329              		.cfi_endproc
 330              	.LFE133:
 331              		.size	_strtok.constprop.2, .-_strtok.constprop.2
 332              		.section	.text.shellInit,"ax",%progbits
 333              		.align	2
 334              		.p2align 4,,15
 335              		.global	shellInit
 336              		.thumb
 337              		.thumb_func
 338              		.type	shellInit, %function
 339              	shellInit:
 340              	.LFB126:
 341              		.loc 2 204 0
 342              		.cfi_startproc
ARM GAS  /tmp/ccgcGkhZ.s 			page 7


 343              		@ args = 0, pretend = 0, frame = 0
 344              		@ frame_needed = 0, uses_anonymous_args = 0
 345              		@ link register save eliminated.
 346              		.loc 2 206 0
 347 0000 014B     		ldr	r3, .L28
 348 0002 1B60     		str	r3, [r3]
 349 0004 7047     		bx	lr
 350              	.L29:
 351 0006 00BF     		.align	2
 352              	.L28:
 353 0008 00000000 		.word	.LANCHOR0
 354              		.cfi_endproc
 355              	.LFE126:
 356              		.size	shellInit, .-shellInit
 357              		.section	.text.shellExit,"ax",%progbits
 358              		.align	2
 359              		.p2align 4,,15
 360              		.global	shellExit
 361              		.thumb
 362              		.thumb_func
 363              		.type	shellExit, %function
 364              	shellExit:
 365              	.LFB127:
 366              		.loc 2 218 0
 367              		.cfi_startproc
 368              		@ args = 0, pretend = 0, frame = 0
 369              		@ frame_needed = 0, uses_anonymous_args = 0
 370              	.LVL38:
 371 0000 10B5     		push	{r4, lr}
 372              		.cfi_def_cfa_offset 8
 373              		.cfi_offset 4, -8
 374              		.cfi_offset 14, -4
 375              	.LBB40:
 376              		.loc 2 222 0
 377 0002 2023     		movs	r3, #32
 378              	.LBE40:
 379              		.loc 2 218 0
 380 0004 0446     		mov	r4, r0
 381              	.LBB41:
 382              		.loc 2 222 0
 383              	@ 222 "../../ChibiOS_2.6.5/os/various/shell.c" 1
 384 0006 83F31188 		msr     BASEPRI, r3
 385              	@ 0 "" 2
 386              		.thumb
 387              	.LBE41:
 388 000a FFF7FEFF 		bl	dbg_check_lock
 389              	.LVL39:
 390              		.loc 2 223 0
 391 000e 0448     		ldr	r0, .L32
 392 0010 0021     		movs	r1, #0
 393 0012 FFF7FEFF 		bl	chEvtBroadcastFlagsI
 394              	.LVL40:
 395              		.loc 2 224 0
 396 0016 2046     		mov	r0, r4
 397              		.loc 2 225 0
 398 0018 BDE81040 		pop	{r4, lr}
 399              		.cfi_restore 14
ARM GAS  /tmp/ccgcGkhZ.s 			page 8


 400              		.cfi_restore 4
 401              		.cfi_def_cfa_offset 0
 402              	.LVL41:
 403              		.loc 2 224 0
 404 001c FFF7FEBF 		b	chThdExitS
 405              	.LVL42:
 406              	.L33:
 407              		.align	2
 408              	.L32:
 409 0020 00000000 		.word	.LANCHOR0
 410              		.cfi_endproc
 411              	.LFE127:
 412              		.size	shellExit, .-shellExit
 413              		.section	.text.shellCreate,"ax",%progbits
 414              		.align	2
 415              		.p2align 4,,15
 416              		.global	shellCreate
 417              		.thumb
 418              		.thumb_func
 419              		.type	shellCreate, %function
 420              	shellCreate:
 421              	.LFB128:
 422              		.loc 2 240 0
 423              		.cfi_startproc
 424              		@ args = 0, pretend = 0, frame = 0
 425              		@ frame_needed = 0, uses_anonymous_args = 0
 426              	.LVL43:
 427 0000 00B5     		push	{lr}
 428              		.cfi_def_cfa_offset 4
 429              		.cfi_offset 14, -4
 430 0002 83B0     		sub	sp, sp, #12
 431              		.cfi_def_cfa_offset 16
 432              		.loc 2 242 0
 433 0004 034B     		ldr	r3, .L36
 434 0006 0090     		str	r0, [sp]
 435 0008 0020     		movs	r0, #0
 436              	.LVL44:
 437 000a FFF7FEFF 		bl	chThdCreateFromHeap
 438              	.LVL45:
 439              		.loc 2 243 0
 440 000e 03B0     		add	sp, sp, #12
 441              		.cfi_def_cfa_offset 4
 442              		@ sp needed
 443 0010 5DF804FB 		ldr	pc, [sp], #4
 444              	.L37:
 445              		.align	2
 446              	.L36:
 447 0014 00000000 		.word	shell_thread
 448              		.cfi_endproc
 449              	.LFE128:
 450              		.size	shellCreate, .-shellCreate
 451              		.section	.text.shellCreateStatic,"ax",%progbits
 452              		.align	2
 453              		.p2align 4,,15
 454              		.global	shellCreateStatic
 455              		.thumb
 456              		.thumb_func
ARM GAS  /tmp/ccgcGkhZ.s 			page 9


 457              		.type	shellCreateStatic, %function
 458              	shellCreateStatic:
 459              	.LFB129:
 460              		.loc 2 258 0
 461              		.cfi_startproc
 462              		@ args = 0, pretend = 0, frame = 0
 463              		@ frame_needed = 0, uses_anonymous_args = 0
 464              	.LVL46:
 465 0000 00B5     		push	{lr}
 466              		.cfi_def_cfa_offset 4
 467              		.cfi_offset 14, -4
 468 0002 83B0     		sub	sp, sp, #12
 469              		.cfi_def_cfa_offset 16
 470              		.loc 2 260 0
 471 0004 0090     		str	r0, [sp]
 472 0006 0846     		mov	r0, r1
 473              	.LVL47:
 474 0008 1146     		mov	r1, r2
 475              	.LVL48:
 476 000a 1A46     		mov	r2, r3
 477              	.LVL49:
 478 000c 024B     		ldr	r3, .L40
 479              	.LVL50:
 480 000e FFF7FEFF 		bl	chThdCreateStatic
 481              	.LVL51:
 482              		.loc 2 261 0
 483 0012 03B0     		add	sp, sp, #12
 484              		.cfi_def_cfa_offset 4
 485              		@ sp needed
 486 0014 5DF804FB 		ldr	pc, [sp], #4
 487              	.L41:
 488              		.align	2
 489              	.L40:
 490 0018 00000000 		.word	shell_thread
 491              		.cfi_endproc
 492              	.LFE129:
 493              		.size	shellCreateStatic, .-shellCreateStatic
 494              		.section	.text.shellGetLine,"ax",%progbits
 495              		.align	2
 496              		.p2align 4,,15
 497              		.global	shellGetLine
 498              		.thumb
 499              		.thumb_func
 500              		.type	shellGetLine, %function
 501              	shellGetLine:
 502              	.LFB130:
 503              		.loc 2 275 0
 504              		.cfi_startproc
 505              		@ args = 0, pretend = 0, frame = 8
 506              		@ frame_needed = 0, uses_anonymous_args = 0
 507              	.LVL52:
 508 0000 F0B5     		push	{r4, r5, r6, r7, lr}
 509              		.cfi_def_cfa_offset 20
 510              		.cfi_offset 4, -20
 511              		.cfi_offset 5, -16
 512              		.cfi_offset 6, -12
 513              		.cfi_offset 7, -8
ARM GAS  /tmp/ccgcGkhZ.s 			page 10


 514              		.cfi_offset 14, -4
 515              	.LBB42:
 516              		.loc 2 303 0
 517 0002 013A     		subs	r2, r2, #1
 518              	.LVL53:
 519              	.LBE42:
 520              		.loc 2 275 0
 521 0004 83B0     		sub	sp, sp, #12
 522              		.cfi_def_cfa_offset 32
 523              		.loc 2 275 0
 524 0006 0F46     		mov	r7, r1
 525              	.LVL54:
 526              	.LBB43:
 527              		.loc 2 303 0
 528 0008 8E18     		adds	r6, r1, r2
 529              	.LBE43:
 530              		.loc 2 275 0
 531 000a 0446     		mov	r4, r0
 532 000c 0D46     		mov	r5, r1
 533              	.LVL55:
 534              	.L43:
 535              	.LBB44:
 536              		.loc 2 281 0
 537 000e 2368     		ldr	r3, [r4]
 538 0010 2046     		mov	r0, r4
 539 0012 5B68     		ldr	r3, [r3, #4]
 540 0014 0DF10701 		add	r1, sp, #7
 541 0018 0122     		movs	r2, #1
 542 001a 9847     		blx	r3
 543              	.LVL56:
 544 001c 38B3     		cbz	r0, .L51
 545              		.loc 2 283 0
 546 001e 9DF80710 		ldrb	r1, [sp, #7]	@ zero_extendqisi2
 547 0022 0429     		cmp	r1, #4
 548 0024 26D0     		beq	.L55
 549              		.loc 2 287 0
 550 0026 0829     		cmp	r1, #8
 551 0028 0ED0     		beq	.L56
 552              		.loc 2 296 0
 553 002a 0D29     		cmp	r1, #13
 554 002c 29D0     		beq	.L57
 555              		.loc 2 301 0
 556 002e 1F29     		cmp	r1, #31
 557 0030 EDD9     		bls	.L43
 558              		.loc 2 303 0
 559 0032 B542     		cmp	r5, r6
 560 0034 EBD2     		bcs	.L43
 561              		.loc 2 304 0
 562 0036 2368     		ldr	r3, [r4]
 563 0038 2046     		mov	r0, r4
 564 003a 9B68     		ldr	r3, [r3, #8]
 565 003c 9847     		blx	r3
 566              	.LVL57:
 567              		.loc 2 305 0
 568 003e 9DF80730 		ldrb	r3, [sp, #7]	@ zero_extendqisi2
 569 0042 2B70     		strb	r3, [r5]
 570 0044 0135     		adds	r5, r5, #1
ARM GAS  /tmp/ccgcGkhZ.s 			page 11


 571              	.LVL58:
 572 0046 E2E7     		b	.L43
 573              	.L56:
 574              		.loc 2 288 0
 575 0048 BD42     		cmp	r5, r7
 576              		.loc 2 289 0
 577 004a 2046     		mov	r0, r4
 578              		.loc 2 288 0
 579 004c DFD0     		beq	.L43
 580              	.LVL59:
 581              		.loc 2 289 0
 582 004e 2368     		ldr	r3, [r4]
 583 0050 9B68     		ldr	r3, [r3, #8]
 584 0052 9847     		blx	r3
 585              	.LVL60:
 586              		.loc 2 290 0
 587 0054 2368     		ldr	r3, [r4]
 588 0056 2046     		mov	r0, r4
 589 0058 9B68     		ldr	r3, [r3, #8]
 590 005a 2021     		movs	r1, #32
 591 005c 9847     		blx	r3
 592              	.LVL61:
 593              		.loc 2 291 0
 594 005e 2368     		ldr	r3, [r4]
 595 0060 9DF80710 		ldrb	r1, [sp, #7]	@ zero_extendqisi2
 596 0064 9B68     		ldr	r3, [r3, #8]
 597 0066 2046     		mov	r0, r4
 598              		.loc 2 292 0
 599 0068 013D     		subs	r5, r5, #1
 600              	.LVL62:
 601              		.loc 2 291 0
 602 006a 9847     		blx	r3
 603              	.LVL63:
 604 006c CFE7     		b	.L43
 605              	.L51:
 606              		.loc 2 282 0
 607 006e 0120     		movs	r0, #1
 608              	.LBE44:
 609              		.loc 2 308 0
 610 0070 03B0     		add	sp, sp, #12
 611              		.cfi_remember_state
 612              		.cfi_def_cfa_offset 20
 613              		@ sp needed
 614 0072 F0BD     		pop	{r4, r5, r6, r7, pc}
 615              	.LVL64:
 616              	.L55:
 617              		.cfi_restore_state
 618              	.LBB45:
 619              		.loc 2 284 0
 620 0074 2046     		mov	r0, r4
 621 0076 0749     		ldr	r1, .L58
 622 0078 FFF7FEFF 		bl	chprintf
 623              	.LVL65:
 624              		.loc 2 285 0
 625 007c 0120     		movs	r0, #1
 626              	.LBE45:
 627              		.loc 2 308 0
ARM GAS  /tmp/ccgcGkhZ.s 			page 12


 628 007e 03B0     		add	sp, sp, #12
 629              		.cfi_remember_state
 630              		.cfi_def_cfa_offset 20
 631              		@ sp needed
 632 0080 F0BD     		pop	{r4, r5, r6, r7, pc}
 633              	.LVL66:
 634              	.L57:
 635              		.cfi_restore_state
 636              	.LBB46:
 637              		.loc 2 297 0
 638 0082 2046     		mov	r0, r4
 639 0084 0449     		ldr	r1, .L58+4
 640 0086 FFF7FEFF 		bl	chprintf
 641              	.LVL67:
 642              		.loc 2 298 0
 643 008a 0020     		movs	r0, #0
 644 008c 2870     		strb	r0, [r5]
 645              	.LBE46:
 646              		.loc 2 308 0
 647 008e 03B0     		add	sp, sp, #12
 648              		.cfi_def_cfa_offset 20
 649              		@ sp needed
 650 0090 F0BD     		pop	{r4, r5, r6, r7, pc}
 651              	.LVL68:
 652              	.L59:
 653 0092 00BF     		.align	2
 654              	.L58:
 655 0094 9C010000 		.word	.LC23
 656 0098 A0010000 		.word	.LC24
 657              		.cfi_endproc
 658              	.LFE130:
 659              		.size	shellGetLine, .-shellGetLine
 660              		.section	.text.shell_thread,"ax",%progbits
 661              		.align	2
 662              		.p2align 4,,15
 663              		.thumb
 664              		.thumb_func
 665              		.type	shell_thread, %function
 666              	shell_thread:
 667              	.LFB125:
 668              		.loc 2 141 0
 669              		.cfi_startproc
 670              		@ args = 0, pretend = 0, frame = 88
 671              		@ frame_needed = 0, uses_anonymous_args = 0
 672              	.LVL69:
 673 0000 2DE9F041 		push	{r4, r5, r6, r7, r8, lr}
 674              		.cfi_def_cfa_offset 24
 675              		.cfi_offset 4, -24
 676              		.cfi_offset 5, -20
 677              		.cfi_offset 6, -16
 678              		.cfi_offset 7, -12
 679              		.cfi_offset 8, -8
 680              		.cfi_offset 14, -4
 681              		.loc 2 148 0
 682 0004 564B     		ldr	r3, .L113
 683              		.loc 2 143 0
 684 0006 0668     		ldr	r6, [r0]
ARM GAS  /tmp/ccgcGkhZ.s 			page 13


 685              	.LVL70:
 686              		.loc 2 148 0
 687 0008 9B69     		ldr	r3, [r3, #24]
 688 000a 564A     		ldr	r2, .L113+4
 689              		.loc 2 144 0
 690 000c D0F80480 		ldr	r8, [r0, #4]
 691              	.LVL71:
 692              		.loc 2 149 0
 693 0010 5549     		ldr	r1, .L113+8
 694              		.loc 2 148 0
 695 0012 9A61     		str	r2, [r3, #24]
 696              		.loc 2 141 0
 697 0014 96B0     		sub	sp, sp, #88
 698              		.cfi_def_cfa_offset 112
 699              		.loc 2 149 0
 700 0016 3046     		mov	r0, r6
 701              	.LVL72:
 702 0018 FFF7FEFF 		bl	chprintf
 703              	.LVL73:
 704              	.L62:
 705              		.loc 2 151 0
 706 001c 3046     		mov	r0, r6
 707 001e 5349     		ldr	r1, .L113+12
 708 0020 FFF7FEFF 		bl	chprintf
 709              	.LVL74:
 710              		.loc 2 152 0
 711 0024 3046     		mov	r0, r6
 712 0026 06A9     		add	r1, sp, #24
 713 0028 4022     		movs	r2, #64
 714 002a FFF7FEFF 		bl	shellGetLine
 715              	.LVL75:
 716 002e 0446     		mov	r4, r0
 717 0030 78BB     		cbnz	r0, .L108
 718              		.loc 2 156 0
 719 0032 6946     		mov	r1, sp
 720 0034 06A8     		add	r0, sp, #24
 721 0036 FFF7FEFF 		bl	_strtok.constprop.2
 722              	.LVL76:
 723              		.loc 2 159 0
 724 003a 6946     		mov	r1, sp
 725              		.loc 2 156 0
 726 003c 0746     		mov	r7, r0
 727              	.LVL77:
 728              		.loc 2 159 0
 729 003e 0020     		movs	r0, #0
 730              	.LVL78:
 731 0040 01AD     		add	r5, sp, #4
 732 0042 FFF7FEFF 		bl	_strtok.constprop.2
 733              	.LVL79:
 734 0046 50B1     		cbz	r0, .L109
 735              	.L68:
 736              		.loc 2 160 0
 737 0048 042C     		cmp	r4, #4
 738 004a 1BD0     		beq	.L110
 739              		.loc 2 165 0
 740 004c 45F8040B 		str	r0, [r5], #4
 741              		.loc 2 159 0
ARM GAS  /tmp/ccgcGkhZ.s 			page 14


 742 0050 6946     		mov	r1, sp
 743 0052 0020     		movs	r0, #0
 744              	.LVL80:
 745              		.loc 2 165 0
 746 0054 0134     		adds	r4, r4, #1
 747              	.LVL81:
 748              		.loc 2 159 0
 749 0056 FFF7FEFF 		bl	_strtok.constprop.2
 750              	.LVL82:
 751 005a 0028     		cmp	r0, #0
 752 005c F4D1     		bne	.L68
 753              	.L109:
 754              		.loc 2 167 0
 755 005e 16AB     		add	r3, sp, #88
 756 0060 03EB8403 		add	r3, r3, r4, lsl #2
 757 0064 43F8540C 		str	r0, [r3, #-84]
 758              		.loc 2 168 0
 759 0068 002F     		cmp	r7, #0
 760 006a D7D0     		beq	.L62
 761              		.loc 2 169 0
 762 006c 3846     		mov	r0, r7
 763              	.LVL83:
 764 006e 4049     		ldr	r1, .L113+16
 765 0070 FFF7FEFF 		bl	strcasecmp
 766              	.LVL84:
 767 0074 C0B9     		cbnz	r0, .L69
 768              		.loc 2 170 0
 769 0076 84B1     		cbz	r4, .L64
 770              	.LVL85:
 771              	.LBB59:
 772              	.LBB60:
 773              		.loc 2 56 0
 774 0078 3046     		mov	r0, r6
 775 007a 3E49     		ldr	r1, .L113+20
 776 007c 3C4A     		ldr	r2, .L113+16
 777 007e FFF7FEFF 		bl	chprintf
 778              	.LVL86:
 779              	.LBE60:
 780              	.LBE59:
 781              		.loc 2 172 0
 782 0082 CBE7     		b	.L62
 783              	.LVL87:
 784              	.L110:
 785              		.loc 2 161 0
 786 0084 3046     		mov	r0, r6
 787              	.LVL88:
 788 0086 3C49     		ldr	r1, .L113+24
 789 0088 FFF7FEFF 		bl	chprintf
 790              	.LVL89:
 791              		.loc 2 167 0
 792 008c 0023     		movs	r3, #0
 793 008e 0593     		str	r3, [sp, #20]
 794 0090 C4E7     		b	.L62
 795              	.LVL90:
 796              	.L108:
 797              		.loc 2 153 0
 798 0092 3046     		mov	r0, r6
ARM GAS  /tmp/ccgcGkhZ.s 			page 15


 799 0094 3949     		ldr	r1, .L113+28
 800 0096 FFF7FEFF 		bl	chprintf
 801              	.LVL91:
 802              	.L64:
 803              		.loc 2 194 0
 804 009a 0020     		movs	r0, #0
 805 009c FFF7FEFF 		bl	shellExit
 806              	.LVL92:
 807              		.loc 2 197 0
 808 00a0 0020     		movs	r0, #0
 809 00a2 16B0     		add	sp, sp, #88
 810              		.cfi_remember_state
 811              		.cfi_def_cfa_offset 24
 812              		@ sp needed
 813 00a4 BDE8F081 		pop	{r4, r5, r6, r7, r8, pc}
 814              	.LVL93:
 815              	.L69:
 816              		.cfi_restore_state
 817              		.loc 2 176 0
 818 00a8 3846     		mov	r0, r7
 819 00aa 3549     		ldr	r1, .L113+32
 820 00ac FFF7FEFF 		bl	strcasecmp
 821              	.LVL94:
 822 00b0 30B9     		cbnz	r0, .L111
 823              	.LBB61:
 824              	.LBB62:
 825              		.loc 2 56 0
 826 00b2 3046     		mov	r0, r6
 827              	.LBE62:
 828              	.LBE61:
 829              		.loc 2 177 0
 830 00b4 B4B1     		cbz	r4, .L74
 831              	.LVL95:
 832              	.LBB64:
 833              	.LBB63:
 834              		.loc 2 56 0
 835 00b6 2F49     		ldr	r1, .L113+20
 836 00b8 314A     		ldr	r2, .L113+32
 837 00ba FFF7FEFF 		bl	chprintf
 838              	.LVL96:
 839              	.LBE63:
 840              	.LBE64:
 841              		.loc 2 179 0
 842 00be ADE7     		b	.L62
 843              	.LVL97:
 844              	.L111:
 845              	.LBB65:
 846              	.LBB66:
 847              		.loc 2 121 0
 848 00c0 304D     		ldr	r5, .L113+36
 849 00c2 2868     		ldr	r0, [r5]
 850 00c4 18B9     		cbnz	r0, .L82
 851 00c6 30E0     		b	.L73
 852              	.LVL98:
 853              	.L112:
 854 00c8 55F8080F 		ldr	r0, [r5, #8]!
 855              	.LVL99:
ARM GAS  /tmp/ccgcGkhZ.s 			page 16


 856 00cc 68B3     		cbz	r0, .L73
 857              	.LVL100:
 858              	.L82:
 859              		.loc 2 122 0
 860 00ce 3946     		mov	r1, r7
 861 00d0 FFF7FEFF 		bl	strcasecmp
 862              	.LVL101:
 863 00d4 0028     		cmp	r0, #0
 864 00d6 F7D1     		bne	.L112
 865              	.LVL102:
 866              	.L107:
 867              	.LBE66:
 868              	.LBE65:
 869              	.LBB67:
 870              	.LBB68:
 871              		.loc 2 123 0
 872 00d8 6B68     		ldr	r3, [r5, #4]
 873 00da 2146     		mov	r1, r4
 874 00dc 3046     		mov	r0, r6
 875 00de 01AA     		add	r2, sp, #4
 876 00e0 9847     		blx	r3
 877              	.LVL103:
 878 00e2 9BE7     		b	.L62
 879              	.LVL104:
 880              	.L74:
 881              	.LBE68:
 882              	.LBE67:
 883              	.LBB70:
 884              	.LBB71:
 885              		.loc 2 61 0
 886 00e4 274D     		ldr	r5, .L113+36
 887              	.LBE71:
 888              	.LBE70:
 889              		.loc 2 181 0
 890 00e6 2849     		ldr	r1, .L113+40
 891 00e8 FFF7FEFF 		bl	chprintf
 892              	.LVL105:
 893              	.LBB73:
 894              	.LBB72:
 895              		.loc 2 61 0
 896 00ec 2A68     		ldr	r2, [r5]
 897 00ee 2C46     		mov	r4, r5
 898              	.LVL106:
 899 00f0 3AB1     		cbz	r2, .L79
 900              	.LVL107:
 901              	.L78:
 902              		.loc 2 62 0
 903 00f2 3046     		mov	r0, r6
 904 00f4 2549     		ldr	r1, .L113+44
 905 00f6 FFF7FEFF 		bl	chprintf
 906              	.LVL108:
 907              		.loc 2 61 0
 908 00fa 54F8082F 		ldr	r2, [r4, #8]!
 909              	.LVL109:
 910 00fe 002A     		cmp	r2, #0
 911 0100 F7D1     		bne	.L78
 912              	.LVL110:
ARM GAS  /tmp/ccgcGkhZ.s 			page 17


 913              	.L79:
 914              	.LBE72:
 915              	.LBE73:
 916              		.loc 2 183 0
 917 0102 B8F1000F 		cmp	r8, #0
 918 0106 0BD0     		beq	.L77
 919              	.LVL111:
 920              	.LBB74:
 921              	.LBB75:
 922              		.loc 2 61 0
 923 0108 D8F80020 		ldr	r2, [r8]
 924 010c 42B1     		cbz	r2, .L77
 925 010e 4446     		mov	r4, r8
 926              	.LVL112:
 927              	.L80:
 928              		.loc 2 62 0
 929 0110 3046     		mov	r0, r6
 930 0112 1E49     		ldr	r1, .L113+44
 931 0114 FFF7FEFF 		bl	chprintf
 932              	.LVL113:
 933              		.loc 2 61 0
 934 0118 54F8082F 		ldr	r2, [r4, #8]!
 935              	.LVL114:
 936 011c 002A     		cmp	r2, #0
 937 011e F7D1     		bne	.L80
 938              	.LVL115:
 939              	.L77:
 940              	.LBE75:
 941              	.LBE74:
 942              		.loc 2 185 0
 943 0120 3046     		mov	r0, r6
 944 0122 1B49     		ldr	r1, .L113+48
 945 0124 FFF7FEFF 		bl	chprintf
 946              	.LVL116:
 947 0128 78E7     		b	.L62
 948              	.LVL117:
 949              	.L73:
 950              		.loc 2 187 0
 951 012a B8F1000F 		cmp	r8, #0
 952 012e 0DD0     		beq	.L85
 953              	.LVL118:
 954              	.LBB76:
 955              	.LBB69:
 956              		.loc 2 121 0
 957 0130 D8F80000 		ldr	r0, [r8]
 958 0134 50B1     		cbz	r0, .L85
 959 0136 4546     		mov	r5, r8
 960 0138 02E0     		b	.L84
 961              	.LVL119:
 962              	.L83:
 963 013a 55F8080F 		ldr	r0, [r5, #8]!
 964              	.LVL120:
 965 013e 28B1     		cbz	r0, .L85
 966              	.LVL121:
 967              	.L84:
 968              		.loc 2 122 0
 969 0140 3946     		mov	r1, r7
ARM GAS  /tmp/ccgcGkhZ.s 			page 18


 970 0142 FFF7FEFF 		bl	strcasecmp
 971              	.LVL122:
 972 0146 0028     		cmp	r0, #0
 973 0148 F7D1     		bne	.L83
 974 014a C5E7     		b	.L107
 975              	.LVL123:
 976              	.L85:
 977              	.LBE69:
 978              	.LBE76:
 979              		.loc 2 189 0
 980 014c 3046     		mov	r0, r6
 981 014e 3A46     		mov	r2, r7
 982 0150 1049     		ldr	r1, .L113+52
 983 0152 FFF7FEFF 		bl	chprintf
 984              	.LVL124:
 985              		.loc 2 190 0
 986 0156 3046     		mov	r0, r6
 987 0158 0F49     		ldr	r1, .L113+56
 988 015a FFF7FEFF 		bl	chprintf
 989              	.LVL125:
 990 015e 5DE7     		b	.L62
 991              	.L114:
 992              		.align	2
 993              	.L113:
 994 0160 00000000 		.word	rlist
 995 0164 A4010000 		.word	.LC25
 996 0168 AC010000 		.word	.LC26
 997 016c C4010000 		.word	.LC27
 998 0170 F0010000 		.word	.LC30
 999 0174 00000000 		.word	.LC0
 1000 0178 D8010000 		.word	.LC29
 1001 017c CC010000 		.word	.LC28
 1002 0180 F8010000 		.word	.LC31
 1003 0184 00000000 		.word	.LANCHOR1
 1004 0188 00020000 		.word	.LC32
 1005 018c 18020000 		.word	.LC33
 1006 0190 A0010000 		.word	.LC24
 1007 0194 1C020000 		.word	.LC34
 1008 0198 20020000 		.word	.LC35
 1009              		.cfi_endproc
 1010              	.LFE125:
 1011              		.size	shell_thread, .-shell_thread
 1012              		.global	shell_terminated
 1013              		.section	.data.local_commands,"aw",%progbits
 1014              		.align	2
 1015              		.set	.LANCHOR1,. + 0
 1016              		.type	local_commands, %object
 1017              		.size	local_commands, 24
 1018              	local_commands:
 1019 0000 1C000000 		.word	.LC3
 1020 0004 00000000 		.word	cmd_info
 1021 0008 0C000000 		.word	.LC1
 1022 000c 00000000 		.word	cmd_systime
 1023 0010 00000000 		.word	0
 1024 0014 00000000 		.word	0
 1025              		.section	.rodata.str1.4,"aMS",%progbits,1
 1026              		.align	2
ARM GAS  /tmp/ccgcGkhZ.s 			page 19


 1027              	.LC0:
 1028 0000 55736167 		.ascii	"Usage: %s\015\012\000"
 1028      653A2025 
 1028      730D0A00 
 1029              	.LC1:
 1030 000c 73797374 		.ascii	"systime\000"
 1030      696D6500 
 1031              	.LC2:
 1032 0014 256C750D 		.ascii	"%lu\015\012\000"
 1032      0A00
 1033 001a 0000     		.space	2
 1034              	.LC3:
 1035 001c 696E666F 		.ascii	"info\000"
 1035      00
 1036 0021 000000   		.space	3
 1037              	.LC4:
 1038 0024 4B65726E 		.ascii	"Kernel:       %s\015\012\000"
 1038      656C3A20 
 1038      20202020 
 1038      20202573 
 1038      0D0A00
 1039 0037 00       		.space	1
 1040              	.LC5:
 1041 0038 322E362E 		.ascii	"2.6.5\000"
 1041      3500
 1042 003e 0000     		.space	2
 1043              	.LC6:
 1044 0040 436F6D70 		.ascii	"Compiler:     %s\015\012\000"
 1044      696C6572 
 1044      3A202020 
 1044      20202573 
 1044      0D0A00
 1045 0053 00       		.space	1
 1046              	.LC7:
 1047 0054 47434320 		.ascii	"GCC 4.9.3 20150529 (prerelease)\000"
 1047      342E392E 
 1047      33203230 
 1047      31353035 
 1047      32392028 
 1048              	.LC8:
 1049 0074 41726368 		.ascii	"Architecture: %s\015\012\000"
 1049      69746563 
 1049      74757265 
 1049      3A202573 
 1049      0D0A00
 1050 0087 00       		.space	1
 1051              	.LC9:
 1052 0088 41524D76 		.ascii	"ARMv7-ME\000"
 1052      372D4D45 
 1052      00
 1053 0091 000000   		.space	3
 1054              	.LC10:
 1055 0094 436F7265 		.ascii	"Core Variant: %s\015\012\000"
 1055      20566172 
 1055      69616E74 
 1055      3A202573 
 1055      0D0A00
ARM GAS  /tmp/ccgcGkhZ.s 			page 20


 1056 00a7 00       		.space	1
 1057              	.LC11:
 1058 00a8 436F7274 		.ascii	"Cortex-M4\000"
 1058      65782D4D 
 1058      3400
 1059 00b2 0000     		.space	2
 1060              	.LC12:
 1061 00b4 506F7274 		.ascii	"Port Info:    %s\015\012\000"
 1061      20496E66 
 1061      6F3A2020 
 1061      20202573 
 1061      0D0A00
 1062 00c7 00       		.space	1
 1063              	.LC13:
 1064 00c8 41647661 		.ascii	"Advanced kernel mode\000"
 1064      6E636564 
 1064      206B6572 
 1064      6E656C20 
 1064      6D6F6465 
 1065 00dd 000000   		.space	3
 1066              	.LC14:
 1067 00e0 506C6174 		.ascii	"Platform:     %s\015\012\000"
 1067      666F726D 
 1067      3A202020 
 1067      20202573 
 1067      0D0A00
 1068 00f3 00       		.space	1
 1069              	.LC15:
 1070 00f4 53544D33 		.ascii	"STM32F407/F417 High Performance with DSP and FPU\000"
 1070      32463430 
 1070      372F4634 
 1070      31372048 
 1070      69676820 
 1071 0125 000000   		.space	3
 1072              	.LC16:
 1073 0128 426F6172 		.ascii	"Board:        %s\015\012\000"
 1073      643A2020 
 1073      20202020 
 1073      20202573 
 1073      0D0A00
 1074 013b 00       		.space	1
 1075              	.LC17:
 1076 013c 53544D69 		.ascii	"STMicroelectronics STM32F4-Discovery\000"
 1076      63726F65 
 1076      6C656374 
 1076      726F6E69 
 1076      63732053 
 1077 0161 000000   		.space	3
 1078              	.LC18:
 1079 0164 4275696C 		.ascii	"Build time:   %s%s%s\015\012\000"
 1079      64207469 
 1079      6D653A20 
 1079      20202573 
 1079      25732573 
 1080 017b 00       		.space	1
 1081              	.LC19:
 1082 017c 44656320 		.ascii	"Dec  9 2018\000"
ARM GAS  /tmp/ccgcGkhZ.s 			page 21


 1082      20392032 
 1082      30313800 
 1083              	.LC20:
 1084 0188 202D2000 		.ascii	" - \000"
 1085              	.LC21:
 1086 018c 31313A35 		.ascii	"11:55:05\000"
 1086      353A3035 
 1086      00
 1087 0195 000000   		.space	3
 1088              	.LC22:
 1089 0198 200900   		.ascii	" \011\000"
 1090 019b 00       		.space	1
 1091              	.LC23:
 1092 019c 5E4400   		.ascii	"^D\000"
 1093 019f 00       		.space	1
 1094              	.LC24:
 1095 01a0 0D0A00   		.ascii	"\015\012\000"
 1096 01a3 00       		.space	1
 1097              	.LC25:
 1098 01a4 7368656C 		.ascii	"shell\000"
 1098      6C00
 1099 01aa 0000     		.space	2
 1100              	.LC26:
 1101 01ac 0D0A4368 		.ascii	"\015\012ChibiOS/RT Shell\015\012\000"
 1101      6962694F 
 1101      532F5254 
 1101      20536865 
 1101      6C6C0D0A 
 1102 01c1 000000   		.space	3
 1103              	.LC27:
 1104 01c4 63683E20 		.ascii	"ch> \000"
 1104      00
 1105 01c9 000000   		.space	3
 1106              	.LC28:
 1107 01cc 0D0A6C6F 		.ascii	"\015\012logout\000"
 1107      676F7574 
 1107      00
 1108 01d5 000000   		.space	3
 1109              	.LC29:
 1110 01d8 746F6F20 		.ascii	"too many arguments\015\012\000"
 1110      6D616E79 
 1110      20617267 
 1110      756D656E 
 1110      74730D0A 
 1111 01ed 000000   		.space	3
 1112              	.LC30:
 1113 01f0 65786974 		.ascii	"exit\000"
 1113      00
 1114 01f5 000000   		.space	3
 1115              	.LC31:
 1116 01f8 68656C70 		.ascii	"help\000"
 1116      00
 1117 01fd 000000   		.space	3
 1118              	.LC32:
 1119 0200 436F6D6D 		.ascii	"Commands: help exit \000"
 1119      616E6473 
 1119      3A206865 
ARM GAS  /tmp/ccgcGkhZ.s 			page 22


 1119      6C702065 
 1119      78697420 
 1120 0215 000000   		.space	3
 1121              	.LC33:
 1122 0218 25732000 		.ascii	"%s \000"
 1123              	.LC34:
 1124 021c 257300   		.ascii	"%s\000"
 1125 021f 00       		.space	1
 1126              	.LC35:
 1127 0220 203F0D0A 		.ascii	" ?\015\012\000"
 1127      00
 1128              		.section	.bss.shell_terminated,"aw",%nobits
 1129              		.align	2
 1130              		.set	.LANCHOR0,. + 0
 1131              		.type	shell_terminated, %object
 1132              		.size	shell_terminated, 4
 1133              	shell_terminated:
 1134 0000 00000000 		.space	4
 1135              		.text
 1136              	.Letext0:
 1137              		.file 3 "/usr/lib/gcc/arm-none-eabi/4.9.3/include/stddef.h"
 1138              		.file 4 "/usr/include/newlib/machine/_default_types.h"
 1139              		.file 5 "/usr/include/newlib/sys/_stdint.h"
 1140              		.file 6 "../../ChibiOS_2.6.5/os/ports/GCC/ARMCMx/chtypes.h"
 1141              		.file 7 "../../ChibiOS_2.6.5/os/kernel/include/chlists.h"
 1142              		.file 8 "../../ChibiOS_2.6.5/os/kernel/include/chthreads.h"
 1143              		.file 9 "../../ChibiOS_2.6.5/os/ports/GCC/ARMCMx/chcore_v7m.h"
 1144              		.file 10 "../../ChibiOS_2.6.5/os/kernel/include/chvt.h"
 1145              		.file 11 "../../ChibiOS_2.6.5/os/kernel/include/chschd.h"
 1146              		.file 12 "../../ChibiOS_2.6.5/os/kernel/include/chmtx.h"
 1147              		.file 13 "../../ChibiOS_2.6.5/os/kernel/include/chevents.h"
 1148              		.file 14 "../../ChibiOS_2.6.5/os/kernel/include/chmemcore.h"
 1149              		.file 15 "../../ChibiOS_2.6.5/os/kernel/include/chheap.h"
 1150              		.file 16 "../../ChibiOS_2.6.5/os/kernel/include/chstreams.h"
 1151              		.file 17 "../../ChibiOS_2.6.5/os/various/shell.h"
 1152              		.file 18 "/usr/lib/gcc/arm-none-eabi/4.9.3/include/stdarg.h"
 1153              		.file 19 "<built-in>"
 1154              		.file 20 "../../ChibiOS_2.6.5/os/ports/common/ARMCMx/CMSIS/include/core_cm4.h"
 1155              		.file 21 "/usr/include/newlib/string.h"
 1156              		.file 22 "../../ChibiOS_2.6.5/os/kernel/include/chdynamic.h"
 1157              		.file 23 "../../ChibiOS_2.6.5/os/kernel/include/chdebug.h"