ARM GAS  /tmp/cctgppix.s 			page 1


   1              		.syntax unified
   2              		.cpu cortex-m4
   3              		.fpu softvfp
   4              		.eabi_attribute 20, 1
   5              		.eabi_attribute 21, 1
   6              		.eabi_attribute 23, 3
   7              		.eabi_attribute 24, 1
   8              		.eabi_attribute 25, 1
   9              		.eabi_attribute 26, 1
  10              		.eabi_attribute 30, 2
  11              		.eabi_attribute 34, 1
  12              		.eabi_attribute 18, 4
  13              		.thumb
  14              		.file	"stm32_dma.c"
  15              		.text
  16              	.Ltext0:
  17              		.cfi_sections	.debug_frame
  18              		.section	.text.Vector6C,"ax",%progbits
  19              		.align	2
  20              		.p2align 4,,15
  21              		.global	Vector6C
  22              		.thumb
  23              		.thumb_func
  24              		.type	Vector6C, %function
  25              	Vector6C:
  26              	.LFB118:
  27              		.file 1 "../../ChibiOS_2.6.5/os/hal/platforms/STM32F4xx/stm32_dma.c"
  28              		.loc 1 128 0
  29              		.cfi_startproc
  30              		@ args = 0, pretend = 0, frame = 0
  31              		@ frame_needed = 0, uses_anonymous_args = 0
  32 0000 08B5     		push	{r3, lr}
  33              		.cfi_def_cfa_offset 8
  34              		.cfi_offset 3, -8
  35              		.cfi_offset 14, -4
  36              		.loc 1 131 0
  37 0002 FFF7FEFF 		bl	dbg_check_enter_isr
  38              	.LVL0:
  39              		.loc 1 133 0
  40 0006 084B     		ldr	r3, .L8
  41              		.loc 1 135 0
  42 0008 084A     		ldr	r2, .L8+4
  43              		.loc 1 133 0
  44 000a 1968     		ldr	r1, [r3]
  45 000c 01F03D01 		and	r1, r1, #61
  46              	.LVL1:
  47              		.loc 1 134 0
  48 0010 9960     		str	r1, [r3, #8]
  49              		.loc 1 135 0
  50 0012 1368     		ldr	r3, [r2]
  51 0014 0BB1     		cbz	r3, .L2
  52              		.loc 1 136 0
  53 0016 5068     		ldr	r0, [r2, #4]
  54 0018 9847     		blx	r3
  55              	.LVL2:
  56              	.L2:
  57              		.loc 1 138 0
ARM GAS  /tmp/cctgppix.s 			page 2


  58 001a FFF7FEFF 		bl	dbg_check_leave_isr
  59              	.LVL3:
  60              		.loc 1 139 0
  61 001e BDE80840 		pop	{r3, lr}
  62              		.cfi_restore 14
  63              		.cfi_restore 3
  64              		.cfi_def_cfa_offset 0
  65              		.loc 1 138 0
  66 0022 FFF7FEBF 		b	_port_irq_epilogue
  67              	.LVL4:
  68              	.L9:
  69 0026 00BF     		.align	2
  70              	.L8:
  71 0028 00600240 		.word	1073897472
  72 002c 00000000 		.word	.LANCHOR0
  73              		.cfi_endproc
  74              	.LFE118:
  75              		.size	Vector6C, .-Vector6C
  76              		.section	.text.Vector70,"ax",%progbits
  77              		.align	2
  78              		.p2align 4,,15
  79              		.global	Vector70
  80              		.thumb
  81              		.thumb_func
  82              		.type	Vector70, %function
  83              	Vector70:
  84              	.LFB119:
  85              		.loc 1 146 0
  86              		.cfi_startproc
  87              		@ args = 0, pretend = 0, frame = 0
  88              		@ frame_needed = 0, uses_anonymous_args = 0
  89 0000 10B5     		push	{r4, lr}
  90              		.cfi_def_cfa_offset 8
  91              		.cfi_offset 4, -8
  92              		.cfi_offset 14, -4
  93              		.loc 1 149 0
  94 0002 FFF7FEFF 		bl	dbg_check_enter_isr
  95              	.LVL5:
  96              		.loc 1 151 0
  97 0006 094B     		ldr	r3, .L16
  98              		.loc 1 153 0
  99 0008 0948     		ldr	r0, .L16+4
 100              		.loc 1 151 0
 101 000a 1968     		ldr	r1, [r3]
 102              		.loc 1 153 0
 103 000c 8268     		ldr	r2, [r0, #8]
 104              		.loc 1 151 0
 105 000e 8909     		lsrs	r1, r1, #6
 106 0010 01F03D01 		and	r1, r1, #61
 107              	.LVL6:
 108              		.loc 1 152 0
 109 0014 8C01     		lsls	r4, r1, #6
 110 0016 9C60     		str	r4, [r3, #8]
 111              		.loc 1 153 0
 112 0018 0AB1     		cbz	r2, .L11
 113              		.loc 1 154 0
 114 001a C068     		ldr	r0, [r0, #12]
ARM GAS  /tmp/cctgppix.s 			page 3


 115 001c 9047     		blx	r2
 116              	.LVL7:
 117              	.L11:
 118              		.loc 1 156 0
 119 001e FFF7FEFF 		bl	dbg_check_leave_isr
 120              	.LVL8:
 121              		.loc 1 157 0
 122 0022 BDE81040 		pop	{r4, lr}
 123              		.cfi_restore 14
 124              		.cfi_restore 4
 125              		.cfi_def_cfa_offset 0
 126              		.loc 1 156 0
 127 0026 FFF7FEBF 		b	_port_irq_epilogue
 128              	.LVL9:
 129              	.L17:
 130 002a 00BF     		.align	2
 131              	.L16:
 132 002c 00600240 		.word	1073897472
 133 0030 00000000 		.word	.LANCHOR0
 134              		.cfi_endproc
 135              	.LFE119:
 136              		.size	Vector70, .-Vector70
 137              		.section	.text.Vector74,"ax",%progbits
 138              		.align	2
 139              		.p2align 4,,15
 140              		.global	Vector74
 141              		.thumb
 142              		.thumb_func
 143              		.type	Vector74, %function
 144              	Vector74:
 145              	.LFB120:
 146              		.loc 1 164 0
 147              		.cfi_startproc
 148              		@ args = 0, pretend = 0, frame = 0
 149              		@ frame_needed = 0, uses_anonymous_args = 0
 150 0000 10B5     		push	{r4, lr}
 151              		.cfi_def_cfa_offset 8
 152              		.cfi_offset 4, -8
 153              		.cfi_offset 14, -4
 154              		.loc 1 167 0
 155 0002 FFF7FEFF 		bl	dbg_check_enter_isr
 156              	.LVL10:
 157              		.loc 1 169 0
 158 0006 094B     		ldr	r3, .L24
 159              		.loc 1 171 0
 160 0008 0948     		ldr	r0, .L24+4
 161              		.loc 1 169 0
 162 000a 1968     		ldr	r1, [r3]
 163              		.loc 1 171 0
 164 000c 0269     		ldr	r2, [r0, #16]
 165              		.loc 1 169 0
 166 000e 090C     		lsrs	r1, r1, #16
 167 0010 01F03D01 		and	r1, r1, #61
 168              	.LVL11:
 169              		.loc 1 170 0
 170 0014 0C04     		lsls	r4, r1, #16
 171 0016 9C60     		str	r4, [r3, #8]
ARM GAS  /tmp/cctgppix.s 			page 4


 172              		.loc 1 171 0
 173 0018 0AB1     		cbz	r2, .L19
 174              		.loc 1 172 0
 175 001a 4069     		ldr	r0, [r0, #20]
 176 001c 9047     		blx	r2
 177              	.LVL12:
 178              	.L19:
 179              		.loc 1 174 0
 180 001e FFF7FEFF 		bl	dbg_check_leave_isr
 181              	.LVL13:
 182              		.loc 1 175 0
 183 0022 BDE81040 		pop	{r4, lr}
 184              		.cfi_restore 14
 185              		.cfi_restore 4
 186              		.cfi_def_cfa_offset 0
 187              		.loc 1 174 0
 188 0026 FFF7FEBF 		b	_port_irq_epilogue
 189              	.LVL14:
 190              	.L25:
 191 002a 00BF     		.align	2
 192              	.L24:
 193 002c 00600240 		.word	1073897472
 194 0030 00000000 		.word	.LANCHOR0
 195              		.cfi_endproc
 196              	.LFE120:
 197              		.size	Vector74, .-Vector74
 198              		.section	.text.Vector78,"ax",%progbits
 199              		.align	2
 200              		.p2align 4,,15
 201              		.global	Vector78
 202              		.thumb
 203              		.thumb_func
 204              		.type	Vector78, %function
 205              	Vector78:
 206              	.LFB121:
 207              		.loc 1 182 0
 208              		.cfi_startproc
 209              		@ args = 0, pretend = 0, frame = 0
 210              		@ frame_needed = 0, uses_anonymous_args = 0
 211 0000 10B5     		push	{r4, lr}
 212              		.cfi_def_cfa_offset 8
 213              		.cfi_offset 4, -8
 214              		.cfi_offset 14, -4
 215              		.loc 1 185 0
 216 0002 FFF7FEFF 		bl	dbg_check_enter_isr
 217              	.LVL15:
 218              		.loc 1 187 0
 219 0006 094B     		ldr	r3, .L32
 220              		.loc 1 189 0
 221 0008 0948     		ldr	r0, .L32+4
 222              		.loc 1 187 0
 223 000a 1968     		ldr	r1, [r3]
 224              		.loc 1 189 0
 225 000c 8269     		ldr	r2, [r0, #24]
 226              		.loc 1 187 0
 227 000e 890D     		lsrs	r1, r1, #22
 228 0010 01F03D01 		and	r1, r1, #61
ARM GAS  /tmp/cctgppix.s 			page 5


 229              	.LVL16:
 230              		.loc 1 188 0
 231 0014 8C05     		lsls	r4, r1, #22
 232 0016 9C60     		str	r4, [r3, #8]
 233              		.loc 1 189 0
 234 0018 0AB1     		cbz	r2, .L27
 235              		.loc 1 190 0
 236 001a C069     		ldr	r0, [r0, #28]
 237 001c 9047     		blx	r2
 238              	.LVL17:
 239              	.L27:
 240              		.loc 1 192 0
 241 001e FFF7FEFF 		bl	dbg_check_leave_isr
 242              	.LVL18:
 243              		.loc 1 193 0
 244 0022 BDE81040 		pop	{r4, lr}
 245              		.cfi_restore 14
 246              		.cfi_restore 4
 247              		.cfi_def_cfa_offset 0
 248              		.loc 1 192 0
 249 0026 FFF7FEBF 		b	_port_irq_epilogue
 250              	.LVL19:
 251              	.L33:
 252 002a 00BF     		.align	2
 253              	.L32:
 254 002c 00600240 		.word	1073897472
 255 0030 00000000 		.word	.LANCHOR0
 256              		.cfi_endproc
 257              	.LFE121:
 258              		.size	Vector78, .-Vector78
 259              		.section	.text.Vector7C,"ax",%progbits
 260              		.align	2
 261              		.p2align 4,,15
 262              		.global	Vector7C
 263              		.thumb
 264              		.thumb_func
 265              		.type	Vector7C, %function
 266              	Vector7C:
 267              	.LFB122:
 268              		.loc 1 200 0
 269              		.cfi_startproc
 270              		@ args = 0, pretend = 0, frame = 0
 271              		@ frame_needed = 0, uses_anonymous_args = 0
 272 0000 08B5     		push	{r3, lr}
 273              		.cfi_def_cfa_offset 8
 274              		.cfi_offset 3, -8
 275              		.cfi_offset 14, -4
 276              		.loc 1 203 0
 277 0002 FFF7FEFF 		bl	dbg_check_enter_isr
 278              	.LVL20:
 279              		.loc 1 205 0
 280 0006 084B     		ldr	r3, .L40
 281              		.loc 1 207 0
 282 0008 0848     		ldr	r0, .L40+4
 283              		.loc 1 205 0
 284 000a 5968     		ldr	r1, [r3, #4]
 285              		.loc 1 207 0
ARM GAS  /tmp/cctgppix.s 			page 6


 286 000c 026A     		ldr	r2, [r0, #32]
 287              		.loc 1 205 0
 288 000e 01F03D01 		and	r1, r1, #61
 289              	.LVL21:
 290              		.loc 1 206 0
 291 0012 D960     		str	r1, [r3, #12]
 292              		.loc 1 207 0
 293 0014 0AB1     		cbz	r2, .L35
 294              		.loc 1 208 0
 295 0016 406A     		ldr	r0, [r0, #36]
 296 0018 9047     		blx	r2
 297              	.LVL22:
 298              	.L35:
 299              		.loc 1 210 0
 300 001a FFF7FEFF 		bl	dbg_check_leave_isr
 301              	.LVL23:
 302              		.loc 1 211 0
 303 001e BDE80840 		pop	{r3, lr}
 304              		.cfi_restore 14
 305              		.cfi_restore 3
 306              		.cfi_def_cfa_offset 0
 307              		.loc 1 210 0
 308 0022 FFF7FEBF 		b	_port_irq_epilogue
 309              	.LVL24:
 310              	.L41:
 311 0026 00BF     		.align	2
 312              	.L40:
 313 0028 00600240 		.word	1073897472
 314 002c 00000000 		.word	.LANCHOR0
 315              		.cfi_endproc
 316              	.LFE122:
 317              		.size	Vector7C, .-Vector7C
 318              		.section	.text.Vector80,"ax",%progbits
 319              		.align	2
 320              		.p2align 4,,15
 321              		.global	Vector80
 322              		.thumb
 323              		.thumb_func
 324              		.type	Vector80, %function
 325              	Vector80:
 326              	.LFB123:
 327              		.loc 1 218 0
 328              		.cfi_startproc
 329              		@ args = 0, pretend = 0, frame = 0
 330              		@ frame_needed = 0, uses_anonymous_args = 0
 331 0000 10B5     		push	{r4, lr}
 332              		.cfi_def_cfa_offset 8
 333              		.cfi_offset 4, -8
 334              		.cfi_offset 14, -4
 335              		.loc 1 221 0
 336 0002 FFF7FEFF 		bl	dbg_check_enter_isr
 337              	.LVL25:
 338              		.loc 1 223 0
 339 0006 094B     		ldr	r3, .L48
 340              		.loc 1 225 0
 341 0008 0948     		ldr	r0, .L48+4
 342              		.loc 1 223 0
ARM GAS  /tmp/cctgppix.s 			page 7


 343 000a 5968     		ldr	r1, [r3, #4]
 344              		.loc 1 225 0
 345 000c 826A     		ldr	r2, [r0, #40]
 346              		.loc 1 223 0
 347 000e 8909     		lsrs	r1, r1, #6
 348 0010 01F03D01 		and	r1, r1, #61
 349              	.LVL26:
 350              		.loc 1 224 0
 351 0014 8C01     		lsls	r4, r1, #6
 352 0016 DC60     		str	r4, [r3, #12]
 353              		.loc 1 225 0
 354 0018 0AB1     		cbz	r2, .L43
 355              		.loc 1 226 0
 356 001a C06A     		ldr	r0, [r0, #44]
 357 001c 9047     		blx	r2
 358              	.LVL27:
 359              	.L43:
 360              		.loc 1 228 0
 361 001e FFF7FEFF 		bl	dbg_check_leave_isr
 362              	.LVL28:
 363              		.loc 1 229 0
 364 0022 BDE81040 		pop	{r4, lr}
 365              		.cfi_restore 14
 366              		.cfi_restore 4
 367              		.cfi_def_cfa_offset 0
 368              		.loc 1 228 0
 369 0026 FFF7FEBF 		b	_port_irq_epilogue
 370              	.LVL29:
 371              	.L49:
 372 002a 00BF     		.align	2
 373              	.L48:
 374 002c 00600240 		.word	1073897472
 375 0030 00000000 		.word	.LANCHOR0
 376              		.cfi_endproc
 377              	.LFE123:
 378              		.size	Vector80, .-Vector80
 379              		.section	.text.Vector84,"ax",%progbits
 380              		.align	2
 381              		.p2align 4,,15
 382              		.global	Vector84
 383              		.thumb
 384              		.thumb_func
 385              		.type	Vector84, %function
 386              	Vector84:
 387              	.LFB124:
 388              		.loc 1 236 0
 389              		.cfi_startproc
 390              		@ args = 0, pretend = 0, frame = 0
 391              		@ frame_needed = 0, uses_anonymous_args = 0
 392 0000 10B5     		push	{r4, lr}
 393              		.cfi_def_cfa_offset 8
 394              		.cfi_offset 4, -8
 395              		.cfi_offset 14, -4
 396              		.loc 1 239 0
 397 0002 FFF7FEFF 		bl	dbg_check_enter_isr
 398              	.LVL30:
 399              		.loc 1 241 0
ARM GAS  /tmp/cctgppix.s 			page 8


 400 0006 094B     		ldr	r3, .L56
 401              		.loc 1 243 0
 402 0008 0948     		ldr	r0, .L56+4
 403              		.loc 1 241 0
 404 000a 5968     		ldr	r1, [r3, #4]
 405              		.loc 1 243 0
 406 000c 026B     		ldr	r2, [r0, #48]
 407              		.loc 1 241 0
 408 000e 090C     		lsrs	r1, r1, #16
 409 0010 01F03D01 		and	r1, r1, #61
 410              	.LVL31:
 411              		.loc 1 242 0
 412 0014 0C04     		lsls	r4, r1, #16
 413 0016 DC60     		str	r4, [r3, #12]
 414              		.loc 1 243 0
 415 0018 0AB1     		cbz	r2, .L51
 416              		.loc 1 244 0
 417 001a 406B     		ldr	r0, [r0, #52]
 418 001c 9047     		blx	r2
 419              	.LVL32:
 420              	.L51:
 421              		.loc 1 246 0
 422 001e FFF7FEFF 		bl	dbg_check_leave_isr
 423              	.LVL33:
 424              		.loc 1 247 0
 425 0022 BDE81040 		pop	{r4, lr}
 426              		.cfi_restore 14
 427              		.cfi_restore 4
 428              		.cfi_def_cfa_offset 0
 429              		.loc 1 246 0
 430 0026 FFF7FEBF 		b	_port_irq_epilogue
 431              	.LVL34:
 432              	.L57:
 433 002a 00BF     		.align	2
 434              	.L56:
 435 002c 00600240 		.word	1073897472
 436 0030 00000000 		.word	.LANCHOR0
 437              		.cfi_endproc
 438              	.LFE124:
 439              		.size	Vector84, .-Vector84
 440              		.section	.text.VectorFC,"ax",%progbits
 441              		.align	2
 442              		.p2align 4,,15
 443              		.global	VectorFC
 444              		.thumb
 445              		.thumb_func
 446              		.type	VectorFC, %function
 447              	VectorFC:
 448              	.LFB125:
 449              		.loc 1 254 0
 450              		.cfi_startproc
 451              		@ args = 0, pretend = 0, frame = 0
 452              		@ frame_needed = 0, uses_anonymous_args = 0
 453 0000 10B5     		push	{r4, lr}
 454              		.cfi_def_cfa_offset 8
 455              		.cfi_offset 4, -8
 456              		.cfi_offset 14, -4
ARM GAS  /tmp/cctgppix.s 			page 9


 457              		.loc 1 257 0
 458 0002 FFF7FEFF 		bl	dbg_check_enter_isr
 459              	.LVL35:
 460              		.loc 1 259 0
 461 0006 094B     		ldr	r3, .L64
 462              		.loc 1 261 0
 463 0008 0948     		ldr	r0, .L64+4
 464              		.loc 1 259 0
 465 000a 5968     		ldr	r1, [r3, #4]
 466              		.loc 1 261 0
 467 000c 826B     		ldr	r2, [r0, #56]
 468              		.loc 1 259 0
 469 000e 890D     		lsrs	r1, r1, #22
 470 0010 01F03D01 		and	r1, r1, #61
 471              	.LVL36:
 472              		.loc 1 260 0
 473 0014 8C05     		lsls	r4, r1, #22
 474 0016 DC60     		str	r4, [r3, #12]
 475              		.loc 1 261 0
 476 0018 0AB1     		cbz	r2, .L59
 477              		.loc 1 262 0
 478 001a C06B     		ldr	r0, [r0, #60]
 479 001c 9047     		blx	r2
 480              	.LVL37:
 481              	.L59:
 482              		.loc 1 264 0
 483 001e FFF7FEFF 		bl	dbg_check_leave_isr
 484              	.LVL38:
 485              		.loc 1 265 0
 486 0022 BDE81040 		pop	{r4, lr}
 487              		.cfi_restore 14
 488              		.cfi_restore 4
 489              		.cfi_def_cfa_offset 0
 490              		.loc 1 264 0
 491 0026 FFF7FEBF 		b	_port_irq_epilogue
 492              	.LVL39:
 493              	.L65:
 494 002a 00BF     		.align	2
 495              	.L64:
 496 002c 00600240 		.word	1073897472
 497 0030 00000000 		.word	.LANCHOR0
 498              		.cfi_endproc
 499              	.LFE125:
 500              		.size	VectorFC, .-VectorFC
 501              		.section	.text.Vector120,"ax",%progbits
 502              		.align	2
 503              		.p2align 4,,15
 504              		.global	Vector120
 505              		.thumb
 506              		.thumb_func
 507              		.type	Vector120, %function
 508              	Vector120:
 509              	.LFB126:
 510              		.loc 1 272 0
 511              		.cfi_startproc
 512              		@ args = 0, pretend = 0, frame = 0
 513              		@ frame_needed = 0, uses_anonymous_args = 0
ARM GAS  /tmp/cctgppix.s 			page 10


 514 0000 08B5     		push	{r3, lr}
 515              		.cfi_def_cfa_offset 8
 516              		.cfi_offset 3, -8
 517              		.cfi_offset 14, -4
 518              		.loc 1 275 0
 519 0002 FFF7FEFF 		bl	dbg_check_enter_isr
 520              	.LVL40:
 521              		.loc 1 277 0
 522 0006 084B     		ldr	r3, .L72
 523              		.loc 1 279 0
 524 0008 0848     		ldr	r0, .L72+4
 525              		.loc 1 277 0
 526 000a 1968     		ldr	r1, [r3]
 527              		.loc 1 279 0
 528 000c 026C     		ldr	r2, [r0, #64]
 529              		.loc 1 277 0
 530 000e 01F03D01 		and	r1, r1, #61
 531              	.LVL41:
 532              		.loc 1 278 0
 533 0012 9960     		str	r1, [r3, #8]
 534              		.loc 1 279 0
 535 0014 0AB1     		cbz	r2, .L67
 536              		.loc 1 280 0
 537 0016 406C     		ldr	r0, [r0, #68]
 538 0018 9047     		blx	r2
 539              	.LVL42:
 540              	.L67:
 541              		.loc 1 282 0
 542 001a FFF7FEFF 		bl	dbg_check_leave_isr
 543              	.LVL43:
 544              		.loc 1 283 0
 545 001e BDE80840 		pop	{r3, lr}
 546              		.cfi_restore 14
 547              		.cfi_restore 3
 548              		.cfi_def_cfa_offset 0
 549              		.loc 1 282 0
 550 0022 FFF7FEBF 		b	_port_irq_epilogue
 551              	.LVL44:
 552              	.L73:
 553 0026 00BF     		.align	2
 554              	.L72:
 555 0028 00640240 		.word	1073898496
 556 002c 00000000 		.word	.LANCHOR0
 557              		.cfi_endproc
 558              	.LFE126:
 559              		.size	Vector120, .-Vector120
 560              		.section	.text.Vector124,"ax",%progbits
 561              		.align	2
 562              		.p2align 4,,15
 563              		.global	Vector124
 564              		.thumb
 565              		.thumb_func
 566              		.type	Vector124, %function
 567              	Vector124:
 568              	.LFB127:
 569              		.loc 1 290 0
 570              		.cfi_startproc
ARM GAS  /tmp/cctgppix.s 			page 11


 571              		@ args = 0, pretend = 0, frame = 0
 572              		@ frame_needed = 0, uses_anonymous_args = 0
 573 0000 10B5     		push	{r4, lr}
 574              		.cfi_def_cfa_offset 8
 575              		.cfi_offset 4, -8
 576              		.cfi_offset 14, -4
 577              		.loc 1 293 0
 578 0002 FFF7FEFF 		bl	dbg_check_enter_isr
 579              	.LVL45:
 580              		.loc 1 295 0
 581 0006 094B     		ldr	r3, .L80
 582              		.loc 1 297 0
 583 0008 0948     		ldr	r0, .L80+4
 584              		.loc 1 295 0
 585 000a 1968     		ldr	r1, [r3]
 586              		.loc 1 297 0
 587 000c 826C     		ldr	r2, [r0, #72]
 588              		.loc 1 295 0
 589 000e 8909     		lsrs	r1, r1, #6
 590 0010 01F03D01 		and	r1, r1, #61
 591              	.LVL46:
 592              		.loc 1 296 0
 593 0014 8C01     		lsls	r4, r1, #6
 594 0016 9C60     		str	r4, [r3, #8]
 595              		.loc 1 297 0
 596 0018 0AB1     		cbz	r2, .L75
 597              		.loc 1 298 0
 598 001a C06C     		ldr	r0, [r0, #76]
 599 001c 9047     		blx	r2
 600              	.LVL47:
 601              	.L75:
 602              		.loc 1 300 0
 603 001e FFF7FEFF 		bl	dbg_check_leave_isr
 604              	.LVL48:
 605              		.loc 1 301 0
 606 0022 BDE81040 		pop	{r4, lr}
 607              		.cfi_restore 14
 608              		.cfi_restore 4
 609              		.cfi_def_cfa_offset 0
 610              		.loc 1 300 0
 611 0026 FFF7FEBF 		b	_port_irq_epilogue
 612              	.LVL49:
 613              	.L81:
 614 002a 00BF     		.align	2
 615              	.L80:
 616 002c 00640240 		.word	1073898496
 617 0030 00000000 		.word	.LANCHOR0
 618              		.cfi_endproc
 619              	.LFE127:
 620              		.size	Vector124, .-Vector124
 621              		.section	.text.Vector128,"ax",%progbits
 622              		.align	2
 623              		.p2align 4,,15
 624              		.global	Vector128
 625              		.thumb
 626              		.thumb_func
 627              		.type	Vector128, %function
ARM GAS  /tmp/cctgppix.s 			page 12


 628              	Vector128:
 629              	.LFB128:
 630              		.loc 1 308 0
 631              		.cfi_startproc
 632              		@ args = 0, pretend = 0, frame = 0
 633              		@ frame_needed = 0, uses_anonymous_args = 0
 634 0000 10B5     		push	{r4, lr}
 635              		.cfi_def_cfa_offset 8
 636              		.cfi_offset 4, -8
 637              		.cfi_offset 14, -4
 638              		.loc 1 311 0
 639 0002 FFF7FEFF 		bl	dbg_check_enter_isr
 640              	.LVL50:
 641              		.loc 1 313 0
 642 0006 094B     		ldr	r3, .L88
 643              		.loc 1 315 0
 644 0008 0948     		ldr	r0, .L88+4
 645              		.loc 1 313 0
 646 000a 1968     		ldr	r1, [r3]
 647              		.loc 1 315 0
 648 000c 026D     		ldr	r2, [r0, #80]
 649              		.loc 1 313 0
 650 000e 090C     		lsrs	r1, r1, #16
 651 0010 01F03D01 		and	r1, r1, #61
 652              	.LVL51:
 653              		.loc 1 314 0
 654 0014 0C04     		lsls	r4, r1, #16
 655 0016 9C60     		str	r4, [r3, #8]
 656              		.loc 1 315 0
 657 0018 0AB1     		cbz	r2, .L83
 658              		.loc 1 316 0
 659 001a 406D     		ldr	r0, [r0, #84]
 660 001c 9047     		blx	r2
 661              	.LVL52:
 662              	.L83:
 663              		.loc 1 318 0
 664 001e FFF7FEFF 		bl	dbg_check_leave_isr
 665              	.LVL53:
 666              		.loc 1 319 0
 667 0022 BDE81040 		pop	{r4, lr}
 668              		.cfi_restore 14
 669              		.cfi_restore 4
 670              		.cfi_def_cfa_offset 0
 671              		.loc 1 318 0
 672 0026 FFF7FEBF 		b	_port_irq_epilogue
 673              	.LVL54:
 674              	.L89:
 675 002a 00BF     		.align	2
 676              	.L88:
 677 002c 00640240 		.word	1073898496
 678 0030 00000000 		.word	.LANCHOR0
 679              		.cfi_endproc
 680              	.LFE128:
 681              		.size	Vector128, .-Vector128
 682              		.section	.text.Vector12C,"ax",%progbits
 683              		.align	2
 684              		.p2align 4,,15
ARM GAS  /tmp/cctgppix.s 			page 13


 685              		.global	Vector12C
 686              		.thumb
 687              		.thumb_func
 688              		.type	Vector12C, %function
 689              	Vector12C:
 690              	.LFB129:
 691              		.loc 1 326 0
 692              		.cfi_startproc
 693              		@ args = 0, pretend = 0, frame = 0
 694              		@ frame_needed = 0, uses_anonymous_args = 0
 695 0000 10B5     		push	{r4, lr}
 696              		.cfi_def_cfa_offset 8
 697              		.cfi_offset 4, -8
 698              		.cfi_offset 14, -4
 699              		.loc 1 329 0
 700 0002 FFF7FEFF 		bl	dbg_check_enter_isr
 701              	.LVL55:
 702              		.loc 1 331 0
 703 0006 094B     		ldr	r3, .L96
 704              		.loc 1 333 0
 705 0008 0948     		ldr	r0, .L96+4
 706              		.loc 1 331 0
 707 000a 1968     		ldr	r1, [r3]
 708              		.loc 1 333 0
 709 000c 826D     		ldr	r2, [r0, #88]
 710              		.loc 1 331 0
 711 000e 890D     		lsrs	r1, r1, #22
 712 0010 01F03D01 		and	r1, r1, #61
 713              	.LVL56:
 714              		.loc 1 332 0
 715 0014 8C05     		lsls	r4, r1, #22
 716 0016 9C60     		str	r4, [r3, #8]
 717              		.loc 1 333 0
 718 0018 0AB1     		cbz	r2, .L91
 719              		.loc 1 334 0
 720 001a C06D     		ldr	r0, [r0, #92]
 721 001c 9047     		blx	r2
 722              	.LVL57:
 723              	.L91:
 724              		.loc 1 336 0
 725 001e FFF7FEFF 		bl	dbg_check_leave_isr
 726              	.LVL58:
 727              		.loc 1 337 0
 728 0022 BDE81040 		pop	{r4, lr}
 729              		.cfi_restore 14
 730              		.cfi_restore 4
 731              		.cfi_def_cfa_offset 0
 732              		.loc 1 336 0
 733 0026 FFF7FEBF 		b	_port_irq_epilogue
 734              	.LVL59:
 735              	.L97:
 736 002a 00BF     		.align	2
 737              	.L96:
 738 002c 00640240 		.word	1073898496
 739 0030 00000000 		.word	.LANCHOR0
 740              		.cfi_endproc
 741              	.LFE129:
ARM GAS  /tmp/cctgppix.s 			page 14


 742              		.size	Vector12C, .-Vector12C
 743              		.section	.text.Vector130,"ax",%progbits
 744              		.align	2
 745              		.p2align 4,,15
 746              		.global	Vector130
 747              		.thumb
 748              		.thumb_func
 749              		.type	Vector130, %function
 750              	Vector130:
 751              	.LFB130:
 752              		.loc 1 344 0
 753              		.cfi_startproc
 754              		@ args = 0, pretend = 0, frame = 0
 755              		@ frame_needed = 0, uses_anonymous_args = 0
 756 0000 08B5     		push	{r3, lr}
 757              		.cfi_def_cfa_offset 8
 758              		.cfi_offset 3, -8
 759              		.cfi_offset 14, -4
 760              		.loc 1 347 0
 761 0002 FFF7FEFF 		bl	dbg_check_enter_isr
 762              	.LVL60:
 763              		.loc 1 349 0
 764 0006 084B     		ldr	r3, .L104
 765              		.loc 1 351 0
 766 0008 0848     		ldr	r0, .L104+4
 767              		.loc 1 349 0
 768 000a 5968     		ldr	r1, [r3, #4]
 769              		.loc 1 351 0
 770 000c 026E     		ldr	r2, [r0, #96]
 771              		.loc 1 349 0
 772 000e 01F03D01 		and	r1, r1, #61
 773              	.LVL61:
 774              		.loc 1 350 0
 775 0012 D960     		str	r1, [r3, #12]
 776              		.loc 1 351 0
 777 0014 0AB1     		cbz	r2, .L99
 778              		.loc 1 352 0
 779 0016 406E     		ldr	r0, [r0, #100]
 780 0018 9047     		blx	r2
 781              	.LVL62:
 782              	.L99:
 783              		.loc 1 354 0
 784 001a FFF7FEFF 		bl	dbg_check_leave_isr
 785              	.LVL63:
 786              		.loc 1 355 0
 787 001e BDE80840 		pop	{r3, lr}
 788              		.cfi_restore 14
 789              		.cfi_restore 3
 790              		.cfi_def_cfa_offset 0
 791              		.loc 1 354 0
 792 0022 FFF7FEBF 		b	_port_irq_epilogue
 793              	.LVL64:
 794              	.L105:
 795 0026 00BF     		.align	2
 796              	.L104:
 797 0028 00640240 		.word	1073898496
 798 002c 00000000 		.word	.LANCHOR0
ARM GAS  /tmp/cctgppix.s 			page 15


 799              		.cfi_endproc
 800              	.LFE130:
 801              		.size	Vector130, .-Vector130
 802              		.section	.text.Vector150,"ax",%progbits
 803              		.align	2
 804              		.p2align 4,,15
 805              		.global	Vector150
 806              		.thumb
 807              		.thumb_func
 808              		.type	Vector150, %function
 809              	Vector150:
 810              	.LFB131:
 811              		.loc 1 362 0
 812              		.cfi_startproc
 813              		@ args = 0, pretend = 0, frame = 0
 814              		@ frame_needed = 0, uses_anonymous_args = 0
 815 0000 10B5     		push	{r4, lr}
 816              		.cfi_def_cfa_offset 8
 817              		.cfi_offset 4, -8
 818              		.cfi_offset 14, -4
 819              		.loc 1 365 0
 820 0002 FFF7FEFF 		bl	dbg_check_enter_isr
 821              	.LVL65:
 822              		.loc 1 367 0
 823 0006 094B     		ldr	r3, .L112
 824              		.loc 1 369 0
 825 0008 0948     		ldr	r0, .L112+4
 826              		.loc 1 367 0
 827 000a 5968     		ldr	r1, [r3, #4]
 828              		.loc 1 369 0
 829 000c 826E     		ldr	r2, [r0, #104]
 830              		.loc 1 367 0
 831 000e 8909     		lsrs	r1, r1, #6
 832 0010 01F03D01 		and	r1, r1, #61
 833              	.LVL66:
 834              		.loc 1 368 0
 835 0014 8C01     		lsls	r4, r1, #6
 836 0016 DC60     		str	r4, [r3, #12]
 837              		.loc 1 369 0
 838 0018 0AB1     		cbz	r2, .L107
 839              		.loc 1 370 0
 840 001a C06E     		ldr	r0, [r0, #108]
 841 001c 9047     		blx	r2
 842              	.LVL67:
 843              	.L107:
 844              		.loc 1 372 0
 845 001e FFF7FEFF 		bl	dbg_check_leave_isr
 846              	.LVL68:
 847              		.loc 1 373 0
 848 0022 BDE81040 		pop	{r4, lr}
 849              		.cfi_restore 14
 850              		.cfi_restore 4
 851              		.cfi_def_cfa_offset 0
 852              		.loc 1 372 0
 853 0026 FFF7FEBF 		b	_port_irq_epilogue
 854              	.LVL69:
 855              	.L113:
ARM GAS  /tmp/cctgppix.s 			page 16


 856 002a 00BF     		.align	2
 857              	.L112:
 858 002c 00640240 		.word	1073898496
 859 0030 00000000 		.word	.LANCHOR0
 860              		.cfi_endproc
 861              	.LFE131:
 862              		.size	Vector150, .-Vector150
 863              		.section	.text.Vector154,"ax",%progbits
 864              		.align	2
 865              		.p2align 4,,15
 866              		.global	Vector154
 867              		.thumb
 868              		.thumb_func
 869              		.type	Vector154, %function
 870              	Vector154:
 871              	.LFB132:
 872              		.loc 1 380 0
 873              		.cfi_startproc
 874              		@ args = 0, pretend = 0, frame = 0
 875              		@ frame_needed = 0, uses_anonymous_args = 0
 876 0000 10B5     		push	{r4, lr}
 877              		.cfi_def_cfa_offset 8
 878              		.cfi_offset 4, -8
 879              		.cfi_offset 14, -4
 880              		.loc 1 383 0
 881 0002 FFF7FEFF 		bl	dbg_check_enter_isr
 882              	.LVL70:
 883              		.loc 1 385 0
 884 0006 094B     		ldr	r3, .L120
 885              		.loc 1 387 0
 886 0008 0948     		ldr	r0, .L120+4
 887              		.loc 1 385 0
 888 000a 5968     		ldr	r1, [r3, #4]
 889              		.loc 1 387 0
 890 000c 026F     		ldr	r2, [r0, #112]
 891              		.loc 1 385 0
 892 000e 090C     		lsrs	r1, r1, #16
 893 0010 01F03D01 		and	r1, r1, #61
 894              	.LVL71:
 895              		.loc 1 386 0
 896 0014 0C04     		lsls	r4, r1, #16
 897 0016 DC60     		str	r4, [r3, #12]
 898              		.loc 1 387 0
 899 0018 0AB1     		cbz	r2, .L115
 900              		.loc 1 388 0
 901 001a 406F     		ldr	r0, [r0, #116]
 902 001c 9047     		blx	r2
 903              	.LVL72:
 904              	.L115:
 905              		.loc 1 390 0
 906 001e FFF7FEFF 		bl	dbg_check_leave_isr
 907              	.LVL73:
 908              		.loc 1 391 0
 909 0022 BDE81040 		pop	{r4, lr}
 910              		.cfi_restore 14
 911              		.cfi_restore 4
 912              		.cfi_def_cfa_offset 0
ARM GAS  /tmp/cctgppix.s 			page 17


 913              		.loc 1 390 0
 914 0026 FFF7FEBF 		b	_port_irq_epilogue
 915              	.LVL74:
 916              	.L121:
 917 002a 00BF     		.align	2
 918              	.L120:
 919 002c 00640240 		.word	1073898496
 920 0030 00000000 		.word	.LANCHOR0
 921              		.cfi_endproc
 922              	.LFE132:
 923              		.size	Vector154, .-Vector154
 924              		.section	.text.Vector158,"ax",%progbits
 925              		.align	2
 926              		.p2align 4,,15
 927              		.global	Vector158
 928              		.thumb
 929              		.thumb_func
 930              		.type	Vector158, %function
 931              	Vector158:
 932              	.LFB133:
 933              		.loc 1 398 0
 934              		.cfi_startproc
 935              		@ args = 0, pretend = 0, frame = 0
 936              		@ frame_needed = 0, uses_anonymous_args = 0
 937 0000 10B5     		push	{r4, lr}
 938              		.cfi_def_cfa_offset 8
 939              		.cfi_offset 4, -8
 940              		.cfi_offset 14, -4
 941              		.loc 1 401 0
 942 0002 FFF7FEFF 		bl	dbg_check_enter_isr
 943              	.LVL75:
 944              		.loc 1 403 0
 945 0006 094B     		ldr	r3, .L128
 946              		.loc 1 405 0
 947 0008 0948     		ldr	r0, .L128+4
 948              		.loc 1 403 0
 949 000a 5968     		ldr	r1, [r3, #4]
 950              		.loc 1 405 0
 951 000c 826F     		ldr	r2, [r0, #120]
 952              		.loc 1 403 0
 953 000e 890D     		lsrs	r1, r1, #22
 954 0010 01F03D01 		and	r1, r1, #61
 955              	.LVL76:
 956              		.loc 1 404 0
 957 0014 8C05     		lsls	r4, r1, #22
 958 0016 DC60     		str	r4, [r3, #12]
 959              		.loc 1 405 0
 960 0018 0AB1     		cbz	r2, .L123
 961              		.loc 1 406 0
 962 001a C06F     		ldr	r0, [r0, #124]
 963 001c 9047     		blx	r2
 964              	.LVL77:
 965              	.L123:
 966              		.loc 1 408 0
 967 001e FFF7FEFF 		bl	dbg_check_leave_isr
 968              	.LVL78:
 969              		.loc 1 409 0
ARM GAS  /tmp/cctgppix.s 			page 18


 970 0022 BDE81040 		pop	{r4, lr}
 971              		.cfi_restore 14
 972              		.cfi_restore 4
 973              		.cfi_def_cfa_offset 0
 974              		.loc 1 408 0
 975 0026 FFF7FEBF 		b	_port_irq_epilogue
 976              	.LVL79:
 977              	.L129:
 978 002a 00BF     		.align	2
 979              	.L128:
 980 002c 00640240 		.word	1073898496
 981 0030 00000000 		.word	.LANCHOR0
 982              		.cfi_endproc
 983              	.LFE133:
 984              		.size	Vector158, .-Vector158
 985              		.section	.text.dmaInit,"ax",%progbits
 986              		.align	2
 987              		.p2align 4,,15
 988              		.global	dmaInit
 989              		.thumb
 990              		.thumb_func
 991              		.type	dmaInit, %function
 992              	dmaInit:
 993              	.LFB134:
 994              		.loc 1 420 0
 995              		.cfi_startproc
 996              		@ args = 0, pretend = 0, frame = 0
 997              		@ frame_needed = 0, uses_anonymous_args = 0
 998              		@ link register save eliminated.
 999              		.loc 1 423 0
 1000 0000 0D4B     		ldr	r3, .L134
 1001              		.loc 1 420 0
 1002 0002 30B4     		push	{r4, r5}
 1003              		.cfi_def_cfa_offset 8
 1004              		.cfi_offset 4, -8
 1005              		.cfi_offset 5, -4
 1006              		.loc 1 423 0
 1007 0004 0022     		movs	r2, #0
 1008 0006 0D4D     		ldr	r5, .L134+4
 1009 0008 0D4C     		ldr	r4, .L134+8
 1010 000a 1A60     		str	r2, [r3]
 1011              	.LVL80:
 1012              		.loc 1 425 0
 1013 000c 1146     		mov	r1, r2
 1014              		.loc 1 424 0
 1015 000e 1346     		mov	r3, r2
 1016              	.LVL81:
 1017              	.L131:
 1018              		.loc 1 425 0 discriminator 3
 1019 0010 A858     		ldr	r0, [r5, r2]
 1020 0012 0160     		str	r1, [r0]
 1021              		.loc 1 426 0 discriminator 3
 1022 0014 44F83310 		str	r1, [r4, r3, lsl #3]
 1023              		.loc 1 424 0 discriminator 3
 1024 0018 0133     		adds	r3, r3, #1
 1025              	.LVL82:
 1026 001a 102B     		cmp	r3, #16
ARM GAS  /tmp/cctgppix.s 			page 19


 1027 001c 02F10C02 		add	r2, r2, #12
 1028 0020 F6D1     		bne	.L131
 1029              		.loc 1 428 0
 1030 0022 0849     		ldr	r1, .L134+12
 1031              		.loc 1 430 0
 1032 0024 084A     		ldr	r2, .L134+16
 1033              		.loc 1 428 0
 1034 0026 4FF0FF33 		mov	r3, #-1
 1035              	.LVL83:
 1036 002a 8B60     		str	r3, [r1, #8]
 1037              		.loc 1 432 0
 1038 002c 30BC     		pop	{r4, r5}
 1039              		.cfi_restore 5
 1040              		.cfi_restore 4
 1041              		.cfi_def_cfa_offset 0
 1042              		.loc 1 429 0
 1043 002e CB60     		str	r3, [r1, #12]
 1044              		.loc 1 430 0
 1045 0030 9360     		str	r3, [r2, #8]
 1046              		.loc 1 431 0
 1047 0032 D360     		str	r3, [r2, #12]
 1048              		.loc 1 432 0
 1049 0034 7047     		bx	lr
 1050              	.L135:
 1051 0036 00BF     		.align	2
 1052              	.L134:
 1053 0038 00000000 		.word	.LANCHOR1
 1054 003c 00000000 		.word	.LANCHOR2
 1055 0040 00000000 		.word	.LANCHOR0
 1056 0044 00600240 		.word	1073897472
 1057 0048 00640240 		.word	1073898496
 1058              		.cfi_endproc
 1059              	.LFE134:
 1060              		.size	dmaInit, .-dmaInit
 1061              		.section	.text.dmaStreamAllocate,"ax",%progbits
 1062              		.align	2
 1063              		.p2align 4,,15
 1064              		.global	dmaStreamAllocate
 1065              		.thumb
 1066              		.thumb_func
 1067              		.type	dmaStreamAllocate, %function
 1068              	dmaStreamAllocate:
 1069              	.LFB135:
 1070              		.loc 1 461 0
 1071              		.cfi_startproc
 1072              		@ args = 0, pretend = 0, frame = 16
 1073              		@ frame_needed = 0, uses_anonymous_args = 0
 1074              	.LVL84:
 1075 0000 F0B5     		push	{r4, r5, r6, r7, lr}
 1076              		.cfi_def_cfa_offset 20
 1077              		.cfi_offset 4, -20
 1078              		.cfi_offset 5, -16
 1079              		.cfi_offset 6, -12
 1080              		.cfi_offset 7, -8
 1081              		.cfi_offset 14, -4
 1082              		.loc 1 463 0
 1083 0002 0546     		mov	r5, r0
ARM GAS  /tmp/cctgppix.s 			page 20


 1084              		.loc 1 461 0
 1085 0004 85B0     		sub	sp, sp, #20
 1086              		.cfi_def_cfa_offset 40
 1087              		.loc 1 463 0
 1088 0006 0028     		cmp	r0, #0
 1089 0008 3FD0     		beq	.L152
 1090              	.LVL85:
 1091              	.L137:
 1092              		.loc 1 466 0
 1093 000a 244C     		ldr	r4, .L154
 1094 000c 6F7A     		ldrb	r7, [r5, #9]	@ zero_extendqisi2
 1095 000e 2668     		ldr	r6, [r4]
 1096 0010 0120     		movs	r0, #1
 1097 0012 00FA07FE 		lsl	lr, r0, r7
 1098 0016 1EEA060F 		tst	lr, r6
 1099 001a 2BD1     		bne	.L138
 1100              		.loc 1 470 0
 1101 001c 2048     		ldr	r0, .L154+4
 1102              		.loc 1 472 0
 1103 001e 4EEA0606 		orr	r6, lr, r6
 1104              		.loc 1 471 0
 1105 0022 00EBC70C 		add	ip, r0, r7, lsl #3
 1106              		.loc 1 475 0
 1107 0026 16F0FF0F 		tst	r6, #255
 1108              		.loc 1 472 0
 1109 002a 2660     		str	r6, [r4]
 1110              		.loc 1 470 0
 1111 002c 40F83720 		str	r2, [r0, r7, lsl #3]
 1112              		.loc 1 471 0
 1113 0030 CCF80430 		str	r3, [ip, #4]
 1114              		.loc 1 475 0
 1115 0034 04D0     		beq	.L139
 1116              		.loc 1 476 0
 1117 0036 1B48     		ldr	r0, .L154+8
 1118 0038 036B     		ldr	r3, [r0, #48]
 1119 003a 43F40013 		orr	r3, r3, #2097152
 1120 003e 0363     		str	r3, [r0, #48]
 1121              	.L139:
 1122              		.loc 1 477 0
 1123 0040 16F47F4F 		tst	r6, #65280
 1124 0044 18D1     		bne	.L153
 1125              	.L140:
 1126              		.loc 1 481 0
 1127 0046 2B68     		ldr	r3, [r5]
 1128 0048 1868     		ldr	r0, [r3]
 1129 004a 20F01F00 		bic	r0, r0, #31
 1130 004e 1860     		str	r0, [r3]
 1131              	.L141:
 1132              		.loc 1 481 0 is_stmt 0 discriminator 2
 1133 0050 1868     		ldr	r0, [r3]
 1134 0052 10F00104 		ands	r4, r0, #1
 1135 0056 FBD1     		bne	.L141
 1136              		.loc 1 481 0 discriminator 3
 1137 0058 2F7A     		ldrb	r7, [r5, #8]	@ zero_extendqisi2
 1138 005a 6E68     		ldr	r6, [r5, #4]
 1139 005c 3D20     		movs	r0, #61
 1140 005e B840     		lsls	r0, r0, r7
ARM GAS  /tmp/cctgppix.s 			page 21


 1141              		.loc 1 483 0 is_stmt 1 discriminator 3
 1142 0060 2127     		movs	r7, #33
 1143              		.loc 1 481 0 discriminator 3
 1144 0062 3060     		str	r0, [r6]
 1145              		.loc 1 482 0 discriminator 3
 1146 0064 1C60     		str	r4, [r3]
 1147              		.loc 1 483 0 discriminator 3
 1148 0066 5F61     		str	r7, [r3, #20]
 1149              		.loc 1 486 0 discriminator 3
 1150 0068 62B1     		cbz	r2, .L143
 1151              		.loc 1 487 0
 1152 006a A87A     		ldrb	r0, [r5, #10]	@ zero_extendqisi2
 1153 006c 0901     		lsls	r1, r1, #4
 1154 006e FFF7FEFF 		bl	nvicEnableVector
 1155              	.LVL86:
 1156              		.loc 1 489 0
 1157 0072 2046     		mov	r0, r4
 1158              	.L138:
 1159              		.loc 1 490 0
 1160 0074 05B0     		add	sp, sp, #20
 1161              		.cfi_remember_state
 1162              		.cfi_def_cfa_offset 20
 1163              		@ sp needed
 1164 0076 F0BD     		pop	{r4, r5, r6, r7, pc}
 1165              	.LVL87:
 1166              	.L153:
 1167              		.cfi_restore_state
 1168              		.loc 1 478 0
 1169 0078 0A48     		ldr	r0, .L154+8
 1170 007a 036B     		ldr	r3, [r0, #48]
 1171 007c 43F48003 		orr	r3, r3, #4194304
 1172 0080 0363     		str	r3, [r0, #48]
 1173 0082 E0E7     		b	.L140
 1174              	.L143:
 1175              		.loc 1 489 0
 1176 0084 1046     		mov	r0, r2
 1177              		.loc 1 490 0
 1178 0086 05B0     		add	sp, sp, #20
 1179              		.cfi_remember_state
 1180              		.cfi_def_cfa_offset 20
 1181              		@ sp needed
 1182 0088 F0BD     		pop	{r4, r5, r6, r7, pc}
 1183              	.LVL88:
 1184              	.L152:
 1185              		.cfi_restore_state
 1186              		.loc 1 463 0 discriminator 1
 1187 008a 0748     		ldr	r0, .L154+12
 1188              	.LVL89:
 1189 008c 0393     		str	r3, [sp, #12]
 1190 008e 0292     		str	r2, [sp, #8]
 1191 0090 0191     		str	r1, [sp, #4]
 1192 0092 FFF7FEFF 		bl	chDbgPanic
 1193              	.LVL90:
 1194 0096 01A9     		add	r1, sp, #4
 1195              	.LVL91:
 1196 0098 0EC9     		ldmia	r1, {r1, r2, r3}
 1197              	.LVL92:
ARM GAS  /tmp/cctgppix.s 			page 22


 1198 009a B6E7     		b	.L137
 1199              	.L155:
 1200              		.align	2
 1201              	.L154:
 1202 009c 00000000 		.word	.LANCHOR1
 1203 00a0 00000000 		.word	.LANCHOR0
 1204 00a4 00380240 		.word	1073887232
 1205 00a8 00000000 		.word	.LC0
 1206              		.cfi_endproc
 1207              	.LFE135:
 1208              		.size	dmaStreamAllocate, .-dmaStreamAllocate
 1209              		.section	.text.dmaStreamRelease,"ax",%progbits
 1210              		.align	2
 1211              		.p2align 4,,15
 1212              		.global	dmaStreamRelease
 1213              		.thumb
 1214              		.thumb_func
 1215              		.type	dmaStreamRelease, %function
 1216              	dmaStreamRelease:
 1217              	.LFB136:
 1218              		.loc 1 505 0
 1219              		.cfi_startproc
 1220              		@ args = 0, pretend = 0, frame = 0
 1221              		@ frame_needed = 0, uses_anonymous_args = 0
 1222              	.LVL93:
 1223 0000 38B5     		push	{r3, r4, r5, lr}
 1224              		.cfi_def_cfa_offset 16
 1225              		.cfi_offset 3, -16
 1226              		.cfi_offset 4, -12
 1227              		.cfi_offset 5, -8
 1228              		.cfi_offset 14, -4
 1229              		.loc 1 507 0
 1230 0002 0446     		mov	r4, r0
 1231 0004 28B3     		cbz	r0, .L162
 1232              	.LVL94:
 1233              	.L157:
 1234              		.loc 1 510 0
 1235 0006 154D     		ldr	r5, .L164
 1236 0008 617A     		ldrb	r1, [r4, #9]	@ zero_extendqisi2
 1237 000a 2A68     		ldr	r2, [r5]
 1238 000c 0123     		movs	r3, #1
 1239 000e 8B40     		lsls	r3, r3, r1
 1240 0010 1342     		tst	r3, r2
 1241 0012 1AD0     		beq	.L163
 1242              	.L158:
 1243              		.loc 1 514 0
 1244 0014 A07A     		ldrb	r0, [r4, #10]	@ zero_extendqisi2
 1245 0016 FFF7FEFF 		bl	nvicDisableVector
 1246              	.LVL95:
 1247              		.loc 1 517 0
 1248 001a 617A     		ldrb	r1, [r4, #9]	@ zero_extendqisi2
 1249 001c 2A68     		ldr	r2, [r5]
 1250 001e 0123     		movs	r3, #1
 1251 0020 8B40     		lsls	r3, r3, r1
 1252 0022 22EA0303 		bic	r3, r2, r3
 1253              		.loc 1 520 0
 1254 0026 13F0FF0F 		tst	r3, #255
ARM GAS  /tmp/cctgppix.s 			page 23


 1255              		.loc 1 517 0
 1256 002a 2B60     		str	r3, [r5]
 1257              		.loc 1 520 0
 1258 002c 04D1     		bne	.L159
 1259              		.loc 1 521 0
 1260 002e 0C49     		ldr	r1, .L164+4
 1261 0030 0A6B     		ldr	r2, [r1, #48]
 1262 0032 22F40012 		bic	r2, r2, #2097152
 1263 0036 0A63     		str	r2, [r1, #48]
 1264              	.L159:
 1265              		.loc 1 522 0
 1266 0038 13F47F4F 		tst	r3, #65280
 1267 003c 04D1     		bne	.L156
 1268              		.loc 1 523 0
 1269 003e 084A     		ldr	r2, .L164+4
 1270 0040 136B     		ldr	r3, [r2, #48]
 1271 0042 23F48003 		bic	r3, r3, #4194304
 1272 0046 1363     		str	r3, [r2, #48]
 1273              	.L156:
 1274 0048 38BD     		pop	{r3, r4, r5, pc}
 1275              	.LVL96:
 1276              	.L163:
 1277              		.loc 1 510 0 discriminator 1
 1278 004a 0648     		ldr	r0, .L164+8
 1279 004c FFF7FEFF 		bl	chDbgPanic
 1280              	.LVL97:
 1281 0050 E0E7     		b	.L158
 1282              	.LVL98:
 1283              	.L162:
 1284              		.loc 1 507 0 discriminator 1
 1285 0052 0548     		ldr	r0, .L164+12
 1286              	.LVL99:
 1287 0054 FFF7FEFF 		bl	chDbgPanic
 1288              	.LVL100:
 1289 0058 D5E7     		b	.L157
 1290              	.L165:
 1291 005a 00BF     		.align	2
 1292              	.L164:
 1293 005c 00000000 		.word	.LANCHOR1
 1294 0060 00380240 		.word	1073887232
 1295 0064 30000000 		.word	.LC2
 1296 0068 18000000 		.word	.LC1
 1297              		.cfi_endproc
 1298              	.LFE136:
 1299              		.size	dmaStreamRelease, .-dmaStreamRelease
 1300              		.global	_stm32_dma_streams
 1301              		.section	.rodata.str1.4,"aMS",%progbits,1
 1302              		.align	2
 1303              	.LC0:
 1304 0000 22646D61 		.ascii	"\"dmaStreamAllocate\"()\000"
 1304      53747265 
 1304      616D416C 
 1304      6C6F6361 
 1304      74652228 
 1305 0016 0000     		.space	2
 1306              	.LC1:
 1307 0018 22646D61 		.ascii	"\"dmaStreamRelease\"()\000"
ARM GAS  /tmp/cctgppix.s 			page 24


 1307      53747265 
 1307      616D5265 
 1307      6C656173 
 1307      65222829 
 1308 002d 000000   		.space	3
 1309              	.LC2:
 1310 0030 646D6153 		.ascii	"dmaStreamRelease(), #1\000"
 1310      74726561 
 1310      6D52656C 
 1310      65617365 
 1310      28292C20 
 1311              		.section	.bss.dma_isr_redir,"aw",%nobits
 1312              		.align	2
 1313              		.set	.LANCHOR0,. + 0
 1314              		.type	dma_isr_redir, %object
 1315              		.size	dma_isr_redir, 128
 1316              	dma_isr_redir:
 1317 0000 00000000 		.space	128
 1317      00000000 
 1317      00000000 
 1317      00000000 
 1317      00000000 
 1318              		.section	.rodata._stm32_dma_streams,"a",%progbits
 1319              		.align	2
 1320              		.set	.LANCHOR2,. + 0
 1321              		.type	_stm32_dma_streams, %object
 1322              		.size	_stm32_dma_streams, 192
 1323              	_stm32_dma_streams:
 1324 0000 10600240 		.word	1073897488
 1325 0004 08600240 		.word	1073897480
 1326 0008 00       		.byte	0
 1327 0009 00       		.byte	0
 1328 000a 0B       		.byte	11
 1329 000b 00       		.space	1
 1330 000c 28600240 		.word	1073897512
 1331 0010 08600240 		.word	1073897480
 1332 0014 06       		.byte	6
 1333 0015 01       		.byte	1
 1334 0016 0C       		.byte	12
 1335 0017 00       		.space	1
 1336 0018 40600240 		.word	1073897536
 1337 001c 08600240 		.word	1073897480
 1338 0020 10       		.byte	16
 1339 0021 02       		.byte	2
 1340 0022 0D       		.byte	13
 1341 0023 00       		.space	1
 1342 0024 58600240 		.word	1073897560
 1343 0028 08600240 		.word	1073897480
 1344 002c 16       		.byte	22
 1345 002d 03       		.byte	3
 1346 002e 0E       		.byte	14
 1347 002f 00       		.space	1
 1348 0030 70600240 		.word	1073897584
 1349 0034 0C600240 		.word	1073897484
 1350 0038 00       		.byte	0
 1351 0039 04       		.byte	4
 1352 003a 0F       		.byte	15
ARM GAS  /tmp/cctgppix.s 			page 25


 1353 003b 00       		.space	1
 1354 003c 88600240 		.word	1073897608
 1355 0040 0C600240 		.word	1073897484
 1356 0044 06       		.byte	6
 1357 0045 05       		.byte	5
 1358 0046 10       		.byte	16
 1359 0047 00       		.space	1
 1360 0048 A0600240 		.word	1073897632
 1361 004c 0C600240 		.word	1073897484
 1362 0050 10       		.byte	16
 1363 0051 06       		.byte	6
 1364 0052 11       		.byte	17
 1365 0053 00       		.space	1
 1366 0054 B8600240 		.word	1073897656
 1367 0058 0C600240 		.word	1073897484
 1368 005c 16       		.byte	22
 1369 005d 07       		.byte	7
 1370 005e 2F       		.byte	47
 1371 005f 00       		.space	1
 1372 0060 10640240 		.word	1073898512
 1373 0064 08640240 		.word	1073898504
 1374 0068 00       		.byte	0
 1375 0069 08       		.byte	8
 1376 006a 38       		.byte	56
 1377 006b 00       		.space	1
 1378 006c 28640240 		.word	1073898536
 1379 0070 08640240 		.word	1073898504
 1380 0074 06       		.byte	6
 1381 0075 09       		.byte	9
 1382 0076 39       		.byte	57
 1383 0077 00       		.space	1
 1384 0078 40640240 		.word	1073898560
 1385 007c 08640240 		.word	1073898504
 1386 0080 10       		.byte	16
 1387 0081 0A       		.byte	10
 1388 0082 3A       		.byte	58
 1389 0083 00       		.space	1
 1390 0084 58640240 		.word	1073898584
 1391 0088 08640240 		.word	1073898504
 1392 008c 16       		.byte	22
 1393 008d 0B       		.byte	11
 1394 008e 3B       		.byte	59
 1395 008f 00       		.space	1
 1396 0090 70640240 		.word	1073898608
 1397 0094 0C640240 		.word	1073898508
 1398 0098 00       		.byte	0
 1399 0099 0C       		.byte	12
 1400 009a 3C       		.byte	60
 1401 009b 00       		.space	1
 1402 009c 88640240 		.word	1073898632
 1403 00a0 0C640240 		.word	1073898508
 1404 00a4 06       		.byte	6
 1405 00a5 0D       		.byte	13
 1406 00a6 44       		.byte	68
 1407 00a7 00       		.space	1
 1408 00a8 A0640240 		.word	1073898656
 1409 00ac 0C640240 		.word	1073898508
ARM GAS  /tmp/cctgppix.s 			page 26


 1410 00b0 10       		.byte	16
 1411 00b1 0E       		.byte	14
 1412 00b2 45       		.byte	69
 1413 00b3 00       		.space	1
 1414 00b4 B8640240 		.word	1073898680
 1415 00b8 0C640240 		.word	1073898508
 1416 00bc 16       		.byte	22
 1417 00bd 0F       		.byte	15
 1418 00be 46       		.byte	70
 1419 00bf 00       		.space	1
 1420              		.section	.bss.dma_streams_mask,"aw",%nobits
 1421              		.align	2
 1422              		.set	.LANCHOR1,. + 0
 1423              		.type	dma_streams_mask, %object
 1424              		.size	dma_streams_mask, 4
 1425              	dma_streams_mask:
 1426 0000 00000000 		.space	4
 1427              		.text
 1428              	.Letext0:
 1429              		.file 2 "/usr/include/newlib/machine/_default_types.h"
 1430              		.file 3 "/usr/include/newlib/sys/_stdint.h"
 1431              		.file 4 "../../ChibiOS_2.6.5/os/ports/GCC/ARMCMx/chtypes.h"
 1432              		.file 5 "../../ChibiOS_2.6.5/os/hal/platforms/STM32F4xx/stm32f4xx.h"
 1433              		.file 6 "../../ChibiOS_2.6.5/os/hal/platforms/STM32F4xx/stm32_dma.h"
 1434              		.file 7 "../../ChibiOS_2.6.5/os/ports/common/ARMCMx/CMSIS/include/core_cm4.h"
 1435              		.file 8 "../../ChibiOS_2.6.5/os/kernel/include/chdebug.h"
 1436              		.file 9 "../../ChibiOS_2.6.5/os/ports/GCC/ARMCMx/chcore_v7m.h"
 1437              		.file 10 "../../ChibiOS_2.6.5/os/ports/common/ARMCMx/nvic.h"