ARM GAS  /tmp/ccQ5GJ6g.s 			page 1


   1              		.syntax unified
   2              		.cpu cortex-m4
   3              		.fpu softvfp
   4              		.eabi_attribute 20, 1
   5              		.eabi_attribute 21, 1
   6              		.eabi_attribute 23, 3
   7              		.eabi_attribute 24, 1
   8              		.eabi_attribute 25, 1
   9              		.eabi_attribute 26, 1
  10              		.eabi_attribute 30, 2
  11              		.eabi_attribute 34, 1
  12              		.eabi_attribute 18, 4
  13              		.thumb
  14              		.file	"syscalls.c"
  15              		.text
  16              	.Ltext0:
  17              		.cfi_sections	.debug_frame
  18              		.section	.text._read_r,"ax",%progbits
  19              		.align	2
  20              		.p2align 4,,15
  21              		.global	_read_r
  22              		.thumb
  23              		.thumb_func
  24              		.type	_read_r, %function
  25              	_read_r:
  26              	.LFB7:
  27              		.file 1 "../../ChibiOS_2.6.5/os/various/syscalls.c"
  28              		.loc 1 76 0
  29              		.cfi_startproc
  30              		@ args = 0, pretend = 0, frame = 0
  31              		@ frame_needed = 0, uses_anonymous_args = 0
  32              		@ link register save eliminated.
  33              	.LVL0:
  34              		.loc 1 89 0
  35 0000 1623     		movs	r3, #22
  36              	.LVL1:
  37 0002 0360     		str	r3, [r0]
  38              		.loc 1 92 0
  39 0004 4FF0FF30 		mov	r0, #-1
  40              	.LVL2:
  41 0008 7047     		bx	lr
  42              		.cfi_endproc
  43              	.LFE7:
  44              		.size	_read_r, .-_read_r
  45 000a 00BF     		.section	.text._lseek_r,"ax",%progbits
  46              		.align	2
  47              		.p2align 4,,15
  48              		.global	_lseek_r
  49              		.thumb
  50              		.thumb_func
  51              		.type	_lseek_r, %function
  52              	_lseek_r:
  53              	.LFB8:
  54              		.loc 1 97 0
  55              		.cfi_startproc
  56              		@ args = 0, pretend = 0, frame = 0
  57              		@ frame_needed = 0, uses_anonymous_args = 0
ARM GAS  /tmp/ccQ5GJ6g.s 			page 2


  58              		@ link register save eliminated.
  59              	.LVL3:
  60              		.loc 1 104 0
  61 0000 0020     		movs	r0, #0
  62              	.LVL4:
  63 0002 7047     		bx	lr
  64              		.cfi_endproc
  65              	.LFE8:
  66              		.size	_lseek_r, .-_lseek_r
  67              		.section	.text._write_r,"ax",%progbits
  68              		.align	2
  69              		.p2align 4,,15
  70              		.global	_write_r
  71              		.thumb
  72              		.thumb_func
  73              		.type	_write_r, %function
  74              	_write_r:
  75              	.LFB9:
  76              		.loc 1 109 0
  77              		.cfi_startproc
  78              		@ args = 0, pretend = 0, frame = 0
  79              		@ frame_needed = 0, uses_anonymous_args = 0
  80              		@ link register save eliminated.
  81              	.LVL5:
  82              		.loc 1 121 0
  83 0000 1846     		mov	r0, r3
  84              	.LVL6:
  85 0002 7047     		bx	lr
  86              		.cfi_endproc
  87              	.LFE9:
  88              		.size	_write_r, .-_write_r
  89              		.section	.text._close_r,"ax",%progbits
  90              		.align	2
  91              		.p2align 4,,15
  92              		.global	_close_r
  93              		.thumb
  94              		.thumb_func
  95              		.type	_close_r, %function
  96              	_close_r:
  97              	.LFB10:
  98              		.loc 1 126 0
  99              		.cfi_startproc
 100              		@ args = 0, pretend = 0, frame = 0
 101              		@ frame_needed = 0, uses_anonymous_args = 0
 102              		@ link register save eliminated.
 103              	.LVL7:
 104              		.loc 1 131 0
 105 0000 0020     		movs	r0, #0
 106              	.LVL8:
 107 0002 7047     		bx	lr
 108              		.cfi_endproc
 109              	.LFE10:
 110              		.size	_close_r, .-_close_r
 111              		.section	.text._sbrk_r,"ax",%progbits
 112              		.align	2
 113              		.p2align 4,,15
 114              		.global	_sbrk_r
ARM GAS  /tmp/ccQ5GJ6g.s 			page 3


 115              		.thumb
 116              		.thumb_func
 117              		.type	_sbrk_r, %function
 118              	_sbrk_r:
 119              	.LFB11:
 120              		.loc 1 136 0
 121              		.cfi_startproc
 122              		@ args = 0, pretend = 0, frame = 0
 123              		@ frame_needed = 0, uses_anonymous_args = 0
 124              	.LVL9:
 125 0000 38B5     		push	{r3, r4, r5, lr}
 126              		.cfi_def_cfa_offset 16
 127              		.cfi_offset 3, -16
 128              		.cfi_offset 4, -12
 129              		.cfi_offset 5, -8
 130              		.cfi_offset 14, -4
 131              		.loc 1 140 0
 132 0002 0C1E     		subs	r4, r1, #0
 133              		.loc 1 136 0
 134 0004 0546     		mov	r5, r0
 135              		.loc 1 140 0
 136 0006 09DD     		ble	.L11
 137              	.LVL10:
 138              	.L6:
 139              		.loc 1 142 0
 140 0008 2046     		mov	r0, r4
 141 000a FFF7FEFF 		bl	chCoreAlloc
 142              	.LVL11:
 143              		.loc 1 143 0
 144 000e 00B1     		cbz	r0, .L12
 145              		.loc 1 153 0
 146 0010 38BD     		pop	{r3, r4, r5, pc}
 147              	.LVL12:
 148              	.L12:
 149              		.loc 1 144 0
 150 0012 0C23     		movs	r3, #12
 151 0014 2B60     		str	r3, [r5]
 152              		.loc 1 145 0
 153 0016 4FF0FF30 		mov	r0, #-1
 154              	.LVL13:
 155              		.loc 1 153 0
 156 001a 38BD     		pop	{r3, r4, r5, pc}
 157              	.LVL14:
 158              	.L11:
 159              		.loc 1 140 0 discriminator 1
 160 001c 0148     		ldr	r0, .L13
 161              	.LVL15:
 162 001e FFF7FEFF 		bl	chDbgPanic
 163              	.LVL16:
 164 0022 F1E7     		b	.L6
 165              	.L14:
 166              		.align	2
 167              	.L13:
 168 0024 00000000 		.word	.LC0
 169              		.cfi_endproc
 170              	.LFE11:
 171              		.size	_sbrk_r, .-_sbrk_r
ARM GAS  /tmp/ccQ5GJ6g.s 			page 4


 172              		.section	.text._fstat_r,"ax",%progbits
 173              		.align	2
 174              		.p2align 4,,15
 175              		.global	_fstat_r
 176              		.thumb
 177              		.thumb_func
 178              		.type	_fstat_r, %function
 179              	_fstat_r:
 180              	.LFB12:
 181              		.loc 1 158 0
 182              		.cfi_startproc
 183              		@ args = 0, pretend = 0, frame = 0
 184              		@ frame_needed = 0, uses_anonymous_args = 0
 185              	.LVL17:
 186 0000 10B5     		push	{r4, lr}
 187              		.cfi_def_cfa_offset 8
 188              		.cfi_offset 4, -8
 189              		.cfi_offset 14, -4
 190              		.loc 1 162 0
 191 0002 1046     		mov	r0, r2
 192              	.LVL18:
 193              		.loc 1 158 0
 194 0004 1446     		mov	r4, r2
 195              		.loc 1 162 0
 196 0006 0021     		movs	r1, #0
 197              	.LVL19:
 198 0008 3C22     		movs	r2, #60
 199              	.LVL20:
 200 000a FFF7FEFF 		bl	memset
 201              	.LVL21:
 202              		.loc 1 163 0
 203 000e 4FF40053 		mov	r3, #8192
 204 0012 6360     		str	r3, [r4, #4]
 205              		.loc 1 165 0
 206 0014 0020     		movs	r0, #0
 207 0016 10BD     		pop	{r4, pc}
 208              		.cfi_endproc
 209              	.LFE12:
 210              		.size	_fstat_r, .-_fstat_r
 211              		.section	.text._isatty_r,"ax",%progbits
 212              		.align	2
 213              		.p2align 4,,15
 214              		.global	_isatty_r
 215              		.thumb
 216              		.thumb_func
 217              		.type	_isatty_r, %function
 218              	_isatty_r:
 219              	.LFB13:
 220              		.loc 1 170 0
 221              		.cfi_startproc
 222              		@ args = 0, pretend = 0, frame = 0
 223              		@ frame_needed = 0, uses_anonymous_args = 0
 224              		@ link register save eliminated.
 225              	.LVL22:
 226              		.loc 1 175 0
 227 0000 0120     		movs	r0, #1
 228              	.LVL23:
ARM GAS  /tmp/ccQ5GJ6g.s 			page 5


 229 0002 7047     		bx	lr
 230              		.cfi_endproc
 231              	.LFE13:
 232              		.size	_isatty_r, .-_isatty_r
 233              		.section	.rodata.str1.4,"aMS",%progbits,1
 234              		.align	2
 235              	.LC0:
 236 0000 225F7362 		.ascii	"\"_sbrk_r\"()\000"
 236      726B5F72 
 236      22282900 
 237              		.text
 238              	.Letext0:
 239              		.file 2 "/usr/lib/gcc/arm-none-eabi/4.9.3/include/stddef.h"
 240              		.file 3 "/usr/include/newlib/sys/lock.h"
 241              		.file 4 "/usr/include/newlib/sys/_types.h"
 242              		.file 5 "/usr/include/newlib/sys/reent.h"
 243              		.file 6 "/usr/include/newlib/sys/types.h"
 244              		.file 7 "/usr/include/newlib/sys/stat.h"
 245              		.file 8 "../../ChibiOS_2.6.5/os/kernel/include/chmemcore.h"
 246              		.file 9 "../../ChibiOS_2.6.5/os/kernel/include/chdebug.h"