ARM GAS  /tmp/ccFQWhDI.s 			page 1


   1              		.syntax unified
   2              		.cpu cortex-m4
   3              		.fpu softvfp
   4              		.eabi_attribute 20, 1
   5              		.eabi_attribute 21, 1
   6              		.eabi_attribute 23, 3
   7              		.eabi_attribute 24, 1
   8              		.eabi_attribute 25, 1
   9              		.eabi_attribute 26, 1
  10              		.eabi_attribute 30, 2
  11              		.eabi_attribute 34, 1
  12              		.eabi_attribute 18, 4
  13              		.thumb
  14              		.file	"testmbox.c"
  15              		.text
  16              	.Ltext0:
  17              		.cfi_sections	.debug_frame
  18              		.section	.text.mbox1_execute,"ax",%progbits
  19              		.align	2
  20              		.p2align 4,,15
  21              		.thumb
  22              		.thumb_func
  23              		.type	mbox1_execute, %function
  24              	mbox1_execute:
  25              	.LFB8:
  26              		.file 1 "../../ChibiOS_2.6.5/test/testmbox.c"
  27              		.loc 1 76 0
  28              		.cfi_startproc
  29              		@ args = 0, pretend = 0, frame = 8
  30              		@ frame_needed = 0, uses_anonymous_args = 0
  31 0000 F0B5     		push	{r4, r5, r6, r7, lr}
  32              		.cfi_def_cfa_offset 20
  33              		.cfi_offset 4, -20
  34              		.cfi_offset 5, -16
  35              		.cfi_offset 6, -12
  36              		.cfi_offset 7, -8
  37              		.cfi_offset 14, -4
  38              		.loc 1 83 0
  39 0002 4A4E     		ldr	r6, .L32
  40 0004 716A     		ldr	r1, [r6, #36]
  41              		.loc 1 76 0
  42 0006 83B0     		sub	sp, sp, #12
  43              		.cfi_def_cfa_offset 32
  44              		.loc 1 83 0
  45 0008 A1F10501 		sub	r1, #5
  46 000c 0120     		movs	r0, #1
  47 000e B1FA81F1 		clz	r1, r1
  48 0012 4909     		lsrs	r1, r1, #5
  49 0014 FFF7FEFF 		bl	_test_assert
  50              	.LVL0:
  51 0018 F0B9     		cbnz	r0, .L1
  52 001a 4224     		movs	r4, #66
  53              	.L3:
  54              	.LVL1:
  55              		.loc 1 89 0
  56 001c 434D     		ldr	r5, .L32
  57 001e 2146     		mov	r1, r4
ARM GAS  /tmp/ccFQWhDI.s 			page 2


  58 0020 4FF0FF32 		mov	r2, #-1
  59 0024 2846     		mov	r0, r5
  60 0026 FFF7FEFF 		bl	chMBPost
  61              	.LVL2:
  62              		.loc 1 90 0
  63 002a B0FA80F1 		clz	r1, r0
  64 002e 0220     		movs	r0, #2
  65              	.LVL3:
  66 0030 4909     		lsrs	r1, r1, #5
  67 0032 FFF7FEFF 		bl	_test_assert
  68              	.LVL4:
  69 0036 0134     		adds	r4, r4, #1
  70              	.LVL5:
  71 0038 70B9     		cbnz	r0, .L1
  72              		.loc 1 88 0 discriminator 2
  73 003a 462C     		cmp	r4, #70
  74 003c EED1     		bne	.L3
  75              		.loc 1 92 0
  76 003e 4121     		movs	r1, #65
  77 0040 2846     		mov	r0, r5
  78 0042 4FF0FF32 		mov	r2, #-1
  79 0046 FFF7FEFF 		bl	chMBPostAhead
  80              	.LVL6:
  81              		.loc 1 93 0
  82 004a B0FA80F1 		clz	r1, r0
  83 004e 0320     		movs	r0, #3
  84              	.LVL7:
  85 0050 4909     		lsrs	r1, r1, #5
  86 0052 FFF7FEFF 		bl	_test_assert
  87              	.LVL8:
  88 0056 08B1     		cbz	r0, .L31
  89              	.LVL9:
  90              	.L1:
  91              		.loc 1 220 0
  92 0058 03B0     		add	sp, sp, #12
  93              		.cfi_remember_state
  94              		.cfi_def_cfa_offset 20
  95              		@ sp needed
  96 005a F0BD     		pop	{r4, r5, r6, r7, pc}
  97              	.LVL10:
  98              	.L31:
  99              		.cfi_restore_state
 100              		.loc 1 98 0
 101 005c 5821     		movs	r1, #88
 102 005e 0122     		movs	r2, #1
 103 0060 2846     		mov	r0, r5
 104 0062 FFF7FEFF 		bl	chMBPost
 105              	.LVL11:
 106              		.loc 1 99 0
 107 0066 A0F1FF31 		sub	r1, r0, #-1
 108 006a 0420     		movs	r0, #4
 109              	.LVL12:
 110 006c B1FA81F1 		clz	r1, r1
 111              	.LVL13:
 112 0070 4909     		lsrs	r1, r1, #5
 113 0072 FFF7FEFF 		bl	_test_assert
 114              	.LVL14:
ARM GAS  /tmp/ccFQWhDI.s 			page 3


 115 0076 0446     		mov	r4, r0
 116              	.LVL15:
 117 0078 0028     		cmp	r0, #0
 118 007a EDD1     		bne	.L1
 119              	.LBB2:
 120              		.loc 1 100 0
 121 007c 2023     		movs	r3, #32
 122              	@ 100 "../../ChibiOS_2.6.5/test/testmbox.c" 1
 123 007e 83F31188 		msr     BASEPRI, r3
 124              	@ 0 "" 2
 125              		.thumb
 126              	.LBE2:
 127 0082 FFF7FEFF 		bl	dbg_check_lock
 128              	.LVL16:
 129              		.loc 1 101 0
 130 0086 5821     		movs	r1, #88
 131 0088 2846     		mov	r0, r5
 132 008a FFF7FEFF 		bl	chMBPostI
 133              	.LVL17:
 134 008e 0746     		mov	r7, r0
 135              	.LVL18:
 136              		.loc 1 102 0
 137 0090 FFF7FEFF 		bl	dbg_check_unlock
 138              	.LVL19:
 139              	.LBB3:
 140 0094 2346     		mov	r3, r4
 141              	@ 102 "../../ChibiOS_2.6.5/test/testmbox.c" 1
 142 0096 83F31188 		msr     BASEPRI, r3
 143              	@ 0 "" 2
 144              		.thumb
 145              	.LBE3:
 146              		.loc 1 103 0
 147 009a 0520     		movs	r0, #5
 148 009c A7F1FF31 		sub	r1, r7, #-1
 149 00a0 B1FA81F1 		clz	r1, r1
 150 00a4 4909     		lsrs	r1, r1, #5
 151 00a6 FFF7FEFF 		bl	_test_assert
 152              	.LVL20:
 153 00aa 0028     		cmp	r0, #0
 154 00ac D4D1     		bne	.L1
 155              		.loc 1 104 0
 156 00ae 5821     		movs	r1, #88
 157 00b0 0122     		movs	r2, #1
 158 00b2 2846     		mov	r0, r5
 159 00b4 FFF7FEFF 		bl	chMBPostAhead
 160              	.LVL21:
 161              		.loc 1 105 0
 162 00b8 A0F1FF31 		sub	r1, r0, #-1
 163 00bc 0620     		movs	r0, #6
 164              	.LVL22:
 165 00be B1FA81F1 		clz	r1, r1
 166              	.LVL23:
 167 00c2 4909     		lsrs	r1, r1, #5
 168 00c4 FFF7FEFF 		bl	_test_assert
 169              	.LVL24:
 170 00c8 0446     		mov	r4, r0
 171 00ca 0028     		cmp	r0, #0
ARM GAS  /tmp/ccFQWhDI.s 			page 4


 172 00cc C4D1     		bne	.L1
 173              	.LBB4:
 174              		.loc 1 106 0
 175 00ce 2023     		movs	r3, #32
 176              	@ 106 "../../ChibiOS_2.6.5/test/testmbox.c" 1
 177 00d0 83F31188 		msr     BASEPRI, r3
 178              	@ 0 "" 2
 179              		.thumb
 180              	.LBE4:
 181 00d4 FFF7FEFF 		bl	dbg_check_lock
 182              	.LVL25:
 183              		.loc 1 107 0
 184 00d8 5821     		movs	r1, #88
 185 00da 2846     		mov	r0, r5
 186 00dc FFF7FEFF 		bl	chMBPostAheadI
 187              	.LVL26:
 188 00e0 0746     		mov	r7, r0
 189              	.LVL27:
 190              		.loc 1 108 0
 191 00e2 FFF7FEFF 		bl	dbg_check_unlock
 192              	.LVL28:
 193              	.LBB5:
 194 00e6 2346     		mov	r3, r4
 195              	@ 108 "../../ChibiOS_2.6.5/test/testmbox.c" 1
 196 00e8 83F31188 		msr     BASEPRI, r3
 197              	@ 0 "" 2
 198              		.thumb
 199              	.LBE5:
 200              		.loc 1 109 0
 201 00ec 0720     		movs	r0, #7
 202 00ee A7F1FF31 		sub	r1, r7, #-1
 203 00f2 B1FA81F1 		clz	r1, r1
 204 00f6 4909     		lsrs	r1, r1, #5
 205 00f8 FFF7FEFF 		bl	_test_assert
 206              	.LVL29:
 207 00fc 0746     		mov	r7, r0
 208              	.LVL30:
 209 00fe 0028     		cmp	r0, #0
 210 0100 AAD1     		bne	.L1
 211              	.LBB6:
 212              		.loc 1 114 0
 213 0102 2023     		movs	r3, #32
 214              	@ 114 "../../ChibiOS_2.6.5/test/testmbox.c" 1
 215 0104 83F31188 		msr     BASEPRI, r3
 216              	@ 0 "" 2
 217              		.thumb
 218              	.LBE6:
 219 0108 FFF7FEFF 		bl	dbg_check_lock
 220              	.LVL31:
 221 010c 696A     		ldr	r1, [r5, #36]
 222 010e B1FA81F1 		clz	r1, r1
 223 0112 0820     		movs	r0, #8
 224 0114 4909     		lsrs	r1, r1, #5
 225 0116 FFF7FEFF 		bl	_test_assert
 226              	.LVL32:
 227 011a 0446     		mov	r4, r0
 228 011c 40B1     		cbz	r0, .L4
ARM GAS  /tmp/ccFQWhDI.s 			page 5


 229              		.loc 1 114 0 is_stmt 0 discriminator 1
 230 011e FFF7FEFF 		bl	dbg_check_unlock
 231              	.LVL33:
 232              	.LBB7:
 233 0122 3B46     		mov	r3, r7
 234              	@ 114 "../../ChibiOS_2.6.5/test/testmbox.c" 1
 235 0124 83F31188 		msr     BASEPRI, r3
 236              	@ 0 "" 2
 237              		.thumb
 238              	.LBE7:
 239 0128 96E7     		b	.L1
 240              	.L33:
 241 012a 00BF     		.align	2
 242              	.L32:
 243 012c 00000000 		.word	.LANCHOR0
 244              	.L4:
 245              		.loc 1 114 0 discriminator 2
 246 0130 FFF7FEFF 		bl	dbg_check_unlock
 247              	.LVL34:
 248              	.LBB8:
 249 0134 2346     		mov	r3, r4
 250              	@ 114 "../../ChibiOS_2.6.5/test/testmbox.c" 1
 251 0136 83F31188 		msr     BASEPRI, r3
 252              	@ 0 "" 2
 253              		.thumb
 254              	.LBE8:
 255              	.LBB9:
 256              		.loc 1 115 0 is_stmt 1 discriminator 2
 257 013a 2023     		movs	r3, #32
 258              	@ 115 "../../ChibiOS_2.6.5/test/testmbox.c" 1
 259 013c 83F31188 		msr     BASEPRI, r3
 260              	@ 0 "" 2
 261              		.thumb
 262              	.LBE9:
 263 0140 FFF7FEFF 		bl	dbg_check_lock
 264              	.LVL35:
 265 0144 A969     		ldr	r1, [r5, #24]
 266 0146 4F1F     		subs	r7, r1, #5
 267 0148 7942     		rsbs	r1, r7, #0
 268 014a 7941     		adcs	r1, r1, r7
 269 014c 0920     		movs	r0, #9
 270 014e FFF7FEFF 		bl	_test_assert
 271              	.LVL36:
 272 0152 0746     		mov	r7, r0
 273 0154 0028     		cmp	r0, #0
 274 0156 40F09682 		bne	.L28
 275 015a FFF7FEFF 		bl	dbg_check_unlock
 276              	.LVL37:
 277              	.LBB10:
 278 015e 3B46     		mov	r3, r7
 279              	@ 115 "../../ChibiOS_2.6.5/test/testmbox.c" 1
 280 0160 83F31188 		msr     BASEPRI, r3
 281              	@ 0 "" 2
 282              		.thumb
 283              	.LBE10:
 284              	.LBB11:
 285              		.loc 1 116 0 discriminator 2
ARM GAS  /tmp/ccFQWhDI.s 			page 6


 286 0164 2023     		movs	r3, #32
 287              	@ 116 "../../ChibiOS_2.6.5/test/testmbox.c" 1
 288 0166 83F31188 		msr     BASEPRI, r3
 289              	@ 0 "" 2
 290              		.thumb
 291              	.LBE11:
 292 016a FFF7FEFF 		bl	dbg_check_lock
 293              	.LVL38:
 294 016e E968     		ldr	r1, [r5, #12]
 295 0170 AB68     		ldr	r3, [r5, #8]
 296 0172 CC1A     		subs	r4, r1, r3
 297 0174 6142     		rsbs	r1, r4, #0
 298 0176 6141     		adcs	r1, r1, r4
 299 0178 0A20     		movs	r0, #10
 300 017a FFF7FEFF 		bl	_test_assert
 301              	.LVL39:
 302 017e 0028     		cmp	r0, #0
 303 0180 40F07B82 		bne	.L21
 304 0184 FFF7FEFF 		bl	dbg_check_unlock
 305              	.LVL40:
 306              	.LBB12:
 307 0188 0023     		movs	r3, #0
 308              	@ 116 "../../ChibiOS_2.6.5/test/testmbox.c" 1
 309 018a 83F31188 		msr     BASEPRI, r3
 310              	@ 0 "" 2
 311              	.LVL41:
 312              		.thumb
 313 018e 0525     		movs	r5, #5
 314              	.LVL42:
 315              	.L8:
 316              	.LBE12:
 317              		.loc 1 122 0
 318 0190 B04C     		ldr	r4, .L34
 319 0192 01A9     		add	r1, sp, #4
 320 0194 2046     		mov	r0, r4
 321 0196 4FF0FF32 		mov	r2, #-1
 322 019a FFF7FEFF 		bl	chMBFetch
 323              	.LVL43:
 324              		.loc 1 123 0
 325 019e B0FA80F1 		clz	r1, r0
 326 01a2 0B20     		movs	r0, #11
 327              	.LVL44:
 328 01a4 4909     		lsrs	r1, r1, #5
 329 01a6 FFF7FEFF 		bl	_test_assert
 330              	.LVL45:
 331 01aa 0028     		cmp	r0, #0
 332 01ac 7FF454AF 		bne	.L1
 333              		.loc 1 124 0 discriminator 2
 334 01b0 9DF80400 		ldrb	r0, [sp, #4]	@ zero_extendqisi2
 335 01b4 FFF7FEFF 		bl	test_emit_token
 336              	.LVL46:
 337              		.loc 1 121 0 discriminator 2
 338 01b8 013D     		subs	r5, r5, #1
 339              	.LVL47:
 340 01ba E9D1     		bne	.L8
 341              		.loc 1 126 0
 342 01bc 0C20     		movs	r0, #12
ARM GAS  /tmp/ccFQWhDI.s 			page 7


 343 01be A649     		ldr	r1, .L34+4
 344 01c0 FFF7FEFF 		bl	_test_assert_sequence
 345              	.LVL48:
 346 01c4 0028     		cmp	r0, #0
 347 01c6 7FF447AF 		bne	.L1
 348              		.loc 1 131 0
 349 01ca 4721     		movs	r1, #71
 350 01cc 2046     		mov	r0, r4
 351 01ce 4FF0FF32 		mov	r2, #-1
 352 01d2 FFF7FEFF 		bl	chMBPost
 353              	.LVL49:
 354              		.loc 1 132 0
 355 01d6 B0FA80F1 		clz	r1, r0
 356 01da 0D20     		movs	r0, #13
 357              	.LVL50:
 358 01dc 4909     		lsrs	r1, r1, #5
 359 01de FFF7FEFF 		bl	_test_assert
 360              	.LVL51:
 361 01e2 0028     		cmp	r0, #0
 362 01e4 7FF438AF 		bne	.L1
 363              		.loc 1 133 0
 364 01e8 01A9     		add	r1, sp, #4
 365 01ea 2046     		mov	r0, r4
 366 01ec 4FF0FF32 		mov	r2, #-1
 367 01f0 FFF7FEFF 		bl	chMBFetch
 368              	.LVL52:
 369              		.loc 1 134 0
 370 01f4 B0FA80F1 		clz	r1, r0
 371 01f8 0E20     		movs	r0, #14
 372              	.LVL53:
 373 01fa 4909     		lsrs	r1, r1, #5
 374 01fc FFF7FEFF 		bl	_test_assert
 375              	.LVL54:
 376 0200 0028     		cmp	r0, #0
 377 0202 7FF429AF 		bne	.L1
 378              		.loc 1 135 0
 379 0206 2168     		ldr	r1, [r4]
 380 0208 A368     		ldr	r3, [r4, #8]
 381 020a CA1A     		subs	r2, r1, r3
 382 020c 5142     		rsbs	r1, r2, #0
 383 020e 5141     		adcs	r1, r1, r2
 384 0210 0F20     		movs	r0, #15
 385 0212 FFF7FEFF 		bl	_test_assert
 386              	.LVL55:
 387 0216 0028     		cmp	r0, #0
 388 0218 7FF41EAF 		bne	.L1
 389              		.loc 1 136 0
 390 021c 2168     		ldr	r1, [r4]
 391 021e E368     		ldr	r3, [r4, #12]
 392 0220 CB1A     		subs	r3, r1, r3
 393 0222 5942     		rsbs	r1, r3, #0
 394 0224 5941     		adcs	r1, r1, r3
 395 0226 1020     		movs	r0, #16
 396 0228 FFF7FEFF 		bl	_test_assert
 397              	.LVL56:
 398 022c 0028     		cmp	r0, #0
 399 022e 7FF413AF 		bne	.L1
ARM GAS  /tmp/ccFQWhDI.s 			page 8


 400              		.loc 1 141 0
 401 0232 01A9     		add	r1, sp, #4
 402 0234 2046     		mov	r0, r4
 403 0236 0122     		movs	r2, #1
 404 0238 FFF7FEFF 		bl	chMBFetch
 405              	.LVL57:
 406              		.loc 1 142 0
 407 023c 00F1010C 		add	ip, r0, #1
 408 0240 DCF10001 		rsbs	r1, ip, #0
 409 0244 41EB0C01 		adc	r1, r1, ip
 410 0248 1120     		movs	r0, #17
 411              	.LVL58:
 412 024a FFF7FEFF 		bl	_test_assert
 413              	.LVL59:
 414 024e 0028     		cmp	r0, #0
 415 0250 7FF402AF 		bne	.L1
 416              	.LBB13:
 417              		.loc 1 143 0
 418 0254 2023     		movs	r3, #32
 419              	@ 143 "../../ChibiOS_2.6.5/test/testmbox.c" 1
 420 0256 83F31188 		msr     BASEPRI, r3
 421              	@ 0 "" 2
 422              		.thumb
 423              	.LBE13:
 424 025a FFF7FEFF 		bl	dbg_check_lock
 425              	.LVL60:
 426              		.loc 1 144 0
 427 025e 01A9     		add	r1, sp, #4
 428 0260 2046     		mov	r0, r4
 429 0262 FFF7FEFF 		bl	chMBFetchI
 430              	.LVL61:
 431 0266 0746     		mov	r7, r0
 432              	.LVL62:
 433              		.loc 1 145 0
 434 0268 FFF7FEFF 		bl	dbg_check_unlock
 435              	.LVL63:
 436              	.LBB14:
 437 026c 2B46     		mov	r3, r5
 438              	@ 145 "../../ChibiOS_2.6.5/test/testmbox.c" 1
 439 026e 83F31188 		msr     BASEPRI, r3
 440              	@ 0 "" 2
 441              		.thumb
 442              	.LBE14:
 443              		.loc 1 146 0
 444 0272 07F1010E 		add	lr, r7, #1
 445 0276 DEF10001 		rsbs	r1, lr, #0
 446 027a 41EB0E01 		adc	r1, r1, lr
 447 027e 1220     		movs	r0, #18
 448 0280 FFF7FEFF 		bl	_test_assert
 449              	.LVL64:
 450 0284 0028     		cmp	r0, #0
 451 0286 7FF4E7AE 		bne	.L1
 452              	.LBB15:
 453              		.loc 1 151 0
 454 028a 2023     		movs	r3, #32
 455              	@ 151 "../../ChibiOS_2.6.5/test/testmbox.c" 1
 456 028c 83F31188 		msr     BASEPRI, r3
ARM GAS  /tmp/ccFQWhDI.s 			page 9


 457              	@ 0 "" 2
 458              		.thumb
 459              	.LBE15:
 460 0290 FFF7FEFF 		bl	dbg_check_lock
 461              	.LVL65:
 462 0294 616A     		ldr	r1, [r4, #36]
 463 0296 4F1F     		subs	r7, r1, #5
 464              	.LVL66:
 465 0298 7942     		rsbs	r1, r7, #0
 466 029a 7941     		adcs	r1, r1, r7
 467 029c 1320     		movs	r0, #19
 468 029e FFF7FEFF 		bl	_test_assert
 469              	.LVL67:
 470 02a2 0028     		cmp	r0, #0
 471 02a4 40F0E981 		bne	.L21
 472              		.loc 1 151 0 is_stmt 0 discriminator 2
 473 02a8 FFF7FEFF 		bl	dbg_check_unlock
 474              	.LVL68:
 475              	.LBB16:
 476 02ac 0023     		movs	r3, #0
 477              	@ 151 "../../ChibiOS_2.6.5/test/testmbox.c" 1
 478 02ae 83F31188 		msr     BASEPRI, r3
 479              	@ 0 "" 2
 480              		.thumb
 481              	.LBE16:
 482              	.LBB17:
 483              		.loc 1 152 0 is_stmt 1 discriminator 2
 484 02b2 2023     		movs	r3, #32
 485              	@ 152 "../../ChibiOS_2.6.5/test/testmbox.c" 1
 486 02b4 83F31188 		msr     BASEPRI, r3
 487              	@ 0 "" 2
 488              		.thumb
 489              	.LBE17:
 490 02b8 FFF7FEFF 		bl	dbg_check_lock
 491              	.LVL69:
 492 02bc B169     		ldr	r1, [r6, #24]
 493 02be B1FA81F1 		clz	r1, r1
 494 02c2 1420     		movs	r0, #20
 495 02c4 4909     		lsrs	r1, r1, #5
 496 02c6 FFF7FEFF 		bl	_test_assert
 497              	.LVL70:
 498 02ca 624C     		ldr	r4, .L34
 499 02cc 0546     		mov	r5, r0
 500              	.LVL71:
 501 02ce 0028     		cmp	r0, #0
 502 02d0 40F0D381 		bne	.L21
 503 02d4 FFF7FEFF 		bl	dbg_check_unlock
 504              	.LVL72:
 505              	.LBB18:
 506 02d8 2B46     		mov	r3, r5
 507              	@ 152 "../../ChibiOS_2.6.5/test/testmbox.c" 1
 508 02da 83F31188 		msr     BASEPRI, r3
 509              	@ 0 "" 2
 510              		.thumb
 511              	.LBE18:
 512              	.LBB19:
 513              		.loc 1 153 0 discriminator 2
ARM GAS  /tmp/ccFQWhDI.s 			page 10


 514 02de 2023     		movs	r3, #32
 515              	@ 153 "../../ChibiOS_2.6.5/test/testmbox.c" 1
 516 02e0 83F31188 		msr     BASEPRI, r3
 517              	@ 0 "" 2
 518              		.thumb
 519              	.LBE19:
 520 02e4 FFF7FEFF 		bl	dbg_check_lock
 521              	.LVL73:
 522 02e8 E168     		ldr	r1, [r4, #12]
 523 02ea A368     		ldr	r3, [r4, #8]
 524 02ec CE1A     		subs	r6, r1, r3
 525 02ee 7142     		rsbs	r1, r6, #0
 526 02f0 7141     		adcs	r1, r1, r6
 527 02f2 1520     		movs	r0, #21
 528 02f4 FFF7FEFF 		bl	_test_assert
 529              	.LVL74:
 530 02f8 0646     		mov	r6, r0
 531 02fa 0028     		cmp	r0, #0
 532 02fc 40F0A380 		bne	.L29
 533 0300 FFF7FEFF 		bl	dbg_check_unlock
 534              	.LVL75:
 535              	.LBB20:
 536 0304 3346     		mov	r3, r6
 537              	@ 153 "../../ChibiOS_2.6.5/test/testmbox.c" 1
 538 0306 83F31188 		msr     BASEPRI, r3
 539              	@ 0 "" 2
 540              		.thumb
 541              	.LBE20:
 542              	.LBB21:
 543              		.loc 1 158 0 discriminator 2
 544 030a 2023     		movs	r3, #32
 545              	@ 158 "../../ChibiOS_2.6.5/test/testmbox.c" 1
 546 030c 83F31188 		msr     BASEPRI, r3
 547              	@ 0 "" 2
 548              		.thumb
 549              	.LBE21:
 550 0310 FFF7FEFF 		bl	dbg_check_lock
 551              	.LVL76:
 552              		.loc 1 159 0 discriminator 2
 553 0314 4121     		movs	r1, #65
 554 0316 2046     		mov	r0, r4
 555 0318 FFF7FEFF 		bl	chMBPostI
 556              	.LVL77:
 557              		.loc 1 160 0 discriminator 2
 558 031c B0FA80F1 		clz	r1, r0
 559 0320 1620     		movs	r0, #22
 560              	.LVL78:
 561 0322 4909     		lsrs	r1, r1, #5
 562 0324 FFF7FEFF 		bl	_test_assert
 563              	.LVL79:
 564 0328 0028     		cmp	r0, #0
 565 032a 7FF495AE 		bne	.L1
 566              		.loc 1 161 0
 567 032e 4221     		movs	r1, #66
 568 0330 2046     		mov	r0, r4
 569 0332 FFF7FEFF 		bl	chMBPostI
 570              	.LVL80:
ARM GAS  /tmp/ccFQWhDI.s 			page 11


 571              		.loc 1 162 0
 572 0336 B0FA80F1 		clz	r1, r0
 573 033a 1720     		movs	r0, #23
 574              	.LVL81:
 575 033c 4909     		lsrs	r1, r1, #5
 576 033e FFF7FEFF 		bl	_test_assert
 577              	.LVL82:
 578 0342 0028     		cmp	r0, #0
 579 0344 7FF488AE 		bne	.L1
 580              		.loc 1 163 0
 581 0348 4321     		movs	r1, #67
 582 034a 2046     		mov	r0, r4
 583 034c FFF7FEFF 		bl	chMBPostI
 584              	.LVL83:
 585              		.loc 1 164 0
 586 0350 B0FA80F1 		clz	r1, r0
 587 0354 1820     		movs	r0, #24
 588              	.LVL84:
 589 0356 4909     		lsrs	r1, r1, #5
 590 0358 FFF7FEFF 		bl	_test_assert
 591              	.LVL85:
 592 035c 0028     		cmp	r0, #0
 593 035e 7FF47BAE 		bne	.L1
 594              		.loc 1 165 0
 595 0362 4421     		movs	r1, #68
 596 0364 2046     		mov	r0, r4
 597 0366 FFF7FEFF 		bl	chMBPostI
 598              	.LVL86:
 599              		.loc 1 166 0
 600 036a B0FA80F1 		clz	r1, r0
 601 036e 1920     		movs	r0, #25
 602              	.LVL87:
 603 0370 4909     		lsrs	r1, r1, #5
 604 0372 FFF7FEFF 		bl	_test_assert
 605              	.LVL88:
 606 0376 0546     		mov	r5, r0
 607 0378 0028     		cmp	r0, #0
 608 037a 7FF46DAE 		bne	.L1
 609              		.loc 1 167 0
 610 037e 4521     		movs	r1, #69
 611 0380 2046     		mov	r0, r4
 612 0382 FFF7FEFF 		bl	chMBPostI
 613              	.LVL89:
 614 0386 0646     		mov	r6, r0
 615              	.LVL90:
 616              		.loc 1 168 0
 617 0388 FFF7FEFF 		bl	dbg_check_unlock
 618              	.LVL91:
 619              	.LBB22:
 620 038c 2B46     		mov	r3, r5
 621              	@ 168 "../../ChibiOS_2.6.5/test/testmbox.c" 1
 622 038e 83F31188 		msr     BASEPRI, r3
 623              	@ 0 "" 2
 624              		.thumb
 625              	.LBE22:
 626              		.loc 1 169 0
 627 0392 1A20     		movs	r0, #26
ARM GAS  /tmp/ccFQWhDI.s 			page 12


 628 0394 B6FA86F1 		clz	r1, r6
 629 0398 4909     		lsrs	r1, r1, #5
 630 039a FFF7FEFF 		bl	_test_assert
 631              	.LVL92:
 632 039e 0028     		cmp	r0, #0
 633 03a0 7FF45AAE 		bne	.L1
 634              		.loc 1 170 0
 635 03a4 E168     		ldr	r1, [r4, #12]
 636 03a6 A368     		ldr	r3, [r4, #8]
 637 03a8 CC1A     		subs	r4, r1, r3
 638 03aa 6142     		rsbs	r1, r4, #0
 639 03ac 6141     		adcs	r1, r1, r4
 640 03ae 1B20     		movs	r0, #27
 641 03b0 FFF7FEFF 		bl	_test_assert
 642              	.LVL93:
 643 03b4 0028     		cmp	r0, #0
 644 03b6 7FF44FAE 		bne	.L1
 645 03ba 0525     		movs	r5, #5
 646              	.L12:
 647              	.LVL94:
 648              	.LBB23:
 649              		.loc 1 172 0
 650 03bc 2023     		movs	r3, #32
 651              	@ 172 "../../ChibiOS_2.6.5/test/testmbox.c" 1
 652 03be 83F31188 		msr     BASEPRI, r3
 653              	@ 0 "" 2
 654              		.thumb
 655              	.LBE23:
 656              		.loc 1 173 0
 657 03c2 244C     		ldr	r4, .L34
 658              		.loc 1 172 0
 659 03c4 FFF7FEFF 		bl	dbg_check_lock
 660              	.LVL95:
 661              		.loc 1 173 0
 662 03c8 01A9     		add	r1, sp, #4
 663 03ca 2046     		mov	r0, r4
 664 03cc FFF7FEFF 		bl	chMBFetchI
 665              	.LVL96:
 666 03d0 0646     		mov	r6, r0
 667              	.LVL97:
 668              		.loc 1 174 0
 669 03d2 FFF7FEFF 		bl	dbg_check_unlock
 670              	.LVL98:
 671              	.LBB24:
 672 03d6 0023     		movs	r3, #0
 673              	@ 174 "../../ChibiOS_2.6.5/test/testmbox.c" 1
 674 03d8 83F31188 		msr     BASEPRI, r3
 675              	@ 0 "" 2
 676              		.thumb
 677              	.LBE24:
 678              		.loc 1 175 0
 679 03dc 1C20     		movs	r0, #28
 680 03de B6FA86F1 		clz	r1, r6
 681 03e2 4909     		lsrs	r1, r1, #5
 682 03e4 FFF7FEFF 		bl	_test_assert
 683              	.LVL99:
 684 03e8 0028     		cmp	r0, #0
ARM GAS  /tmp/ccFQWhDI.s 			page 13


 685 03ea 7FF435AE 		bne	.L1
 686              		.loc 1 176 0 discriminator 2
 687 03ee 9DF80400 		ldrb	r0, [sp, #4]	@ zero_extendqisi2
 688 03f2 FFF7FEFF 		bl	test_emit_token
 689              	.LVL100:
 690              		.loc 1 171 0 discriminator 2
 691 03f6 013D     		subs	r5, r5, #1
 692              	.LVL101:
 693 03f8 E0D1     		bne	.L12
 694              		.loc 1 178 0
 695 03fa 1D20     		movs	r0, #29
 696 03fc 1649     		ldr	r1, .L34+4
 697 03fe FFF7FEFF 		bl	_test_assert_sequence
 698              	.LVL102:
 699 0402 0028     		cmp	r0, #0
 700 0404 7FF428AE 		bne	.L1
 701              	.LBB25:
 702              		.loc 1 179 0
 703 0408 2023     		movs	r3, #32
 704              	@ 179 "../../ChibiOS_2.6.5/test/testmbox.c" 1
 705 040a 83F31188 		msr     BASEPRI, r3
 706              	@ 0 "" 2
 707              		.thumb
 708              	.LBE25:
 709 040e FFF7FEFF 		bl	dbg_check_lock
 710              	.LVL103:
 711 0412 616A     		ldr	r1, [r4, #36]
 712 0414 4A1F     		subs	r2, r1, #5
 713 0416 5142     		rsbs	r1, r2, #0
 714 0418 5141     		adcs	r1, r1, r2
 715 041a 1E20     		movs	r0, #30
 716 041c FFF7FEFF 		bl	_test_assert
 717              	.LVL104:
 718 0420 88B9     		cbnz	r0, .L29
 719              		.loc 1 179 0 is_stmt 0 discriminator 2
 720 0422 FFF7FEFF 		bl	dbg_check_unlock
 721              	.LVL105:
 722              	.LBB26:
 723 0426 2B46     		mov	r3, r5
 724              	@ 179 "../../ChibiOS_2.6.5/test/testmbox.c" 1
 725 0428 83F31188 		msr     BASEPRI, r3
 726              	@ 0 "" 2
 727              		.thumb
 728              	.LBE26:
 729              	.LBB27:
 730              		.loc 1 180 0 is_stmt 1 discriminator 2
 731 042c 2023     		movs	r3, #32
 732              	@ 180 "../../ChibiOS_2.6.5/test/testmbox.c" 1
 733 042e 83F31188 		msr     BASEPRI, r3
 734              	@ 0 "" 2
 735              		.thumb
 736              	.LBE27:
 737 0432 FFF7FEFF 		bl	dbg_check_lock
 738              	.LVL106:
 739 0436 A169     		ldr	r1, [r4, #24]
 740 0438 B1FA81F1 		clz	r1, r1
 741 043c 1F20     		movs	r0, #31
ARM GAS  /tmp/ccFQWhDI.s 			page 14


 742 043e 4909     		lsrs	r1, r1, #5
 743 0440 FFF7FEFF 		bl	_test_assert
 744              	.LVL107:
 745 0444 50B1     		cbz	r0, .L14
 746              	.LVL108:
 747              	.L29:
 748              		.loc 1 180 0 is_stmt 0 discriminator 1
 749 0446 FFF7FEFF 		bl	dbg_check_unlock
 750              	.LVL109:
 751              	.LBB28:
 752 044a 2B46     		mov	r3, r5
 753              	@ 180 "../../ChibiOS_2.6.5/test/testmbox.c" 1
 754 044c 83F31188 		msr     BASEPRI, r3
 755              	@ 0 "" 2
 756              		.thumb
 757              	.LBE28:
 758 0450 02E6     		b	.L1
 759              	.L35:
 760 0452 00BF     		.align	2
 761              	.L34:
 762 0454 00000000 		.word	.LANCHOR0
 763 0458 00000000 		.word	.LC0
 764              	.LVL110:
 765              	.L14:
 766              		.loc 1 180 0 discriminator 2
 767 045c FFF7FEFF 		bl	dbg_check_unlock
 768              	.LVL111:
 769              	.LBB29:
 770 0460 2B46     		mov	r3, r5
 771              	@ 180 "../../ChibiOS_2.6.5/test/testmbox.c" 1
 772 0462 83F31188 		msr     BASEPRI, r3
 773              	@ 0 "" 2
 774              		.thumb
 775              	.LBE29:
 776              		.loc 1 181 0 is_stmt 1 discriminator 2
 777 0466 E168     		ldr	r1, [r4, #12]
 778 0468 A368     		ldr	r3, [r4, #8]
 779 046a CB1A     		subs	r3, r1, r3
 780 046c 5942     		rsbs	r1, r3, #0
 781 046e 5941     		adcs	r1, r1, r3
 782 0470 2020     		movs	r0, #32
 783 0472 FFF7FEFF 		bl	_test_assert
 784              	.LVL112:
 785 0476 0028     		cmp	r0, #0
 786 0478 7FF4EEAD 		bne	.L1
 787              	.LBB30:
 788              		.loc 1 183 0
 789 047c 2023     		movs	r3, #32
 790              	@ 183 "../../ChibiOS_2.6.5/test/testmbox.c" 1
 791 047e 83F31188 		msr     BASEPRI, r3
 792              	@ 0 "" 2
 793              		.thumb
 794              	.LBE30:
 795 0482 FFF7FEFF 		bl	dbg_check_lock
 796              	.LVL113:
 797              		.loc 1 184 0
 798 0486 4521     		movs	r1, #69
ARM GAS  /tmp/ccFQWhDI.s 			page 15


 799 0488 2046     		mov	r0, r4
 800 048a FFF7FEFF 		bl	chMBPostAheadI
 801              	.LVL114:
 802              		.loc 1 185 0
 803 048e B0FA80F1 		clz	r1, r0
 804 0492 2120     		movs	r0, #33
 805              	.LVL115:
 806 0494 4909     		lsrs	r1, r1, #5
 807 0496 FFF7FEFF 		bl	_test_assert
 808              	.LVL116:
 809 049a 0028     		cmp	r0, #0
 810 049c 7FF4DCAD 		bne	.L1
 811              		.loc 1 186 0
 812 04a0 4421     		movs	r1, #68
 813 04a2 2046     		mov	r0, r4
 814 04a4 FFF7FEFF 		bl	chMBPostAheadI
 815              	.LVL117:
 816              		.loc 1 187 0
 817 04a8 B0FA80F1 		clz	r1, r0
 818 04ac 2220     		movs	r0, #34
 819              	.LVL118:
 820 04ae 4909     		lsrs	r1, r1, #5
 821 04b0 FFF7FEFF 		bl	_test_assert
 822              	.LVL119:
 823 04b4 0028     		cmp	r0, #0
 824 04b6 7FF4CFAD 		bne	.L1
 825              		.loc 1 188 0
 826 04ba 4321     		movs	r1, #67
 827 04bc 2046     		mov	r0, r4
 828 04be FFF7FEFF 		bl	chMBPostAheadI
 829              	.LVL120:
 830              		.loc 1 189 0
 831 04c2 B0FA80F1 		clz	r1, r0
 832 04c6 2320     		movs	r0, #35
 833              	.LVL121:
 834 04c8 4909     		lsrs	r1, r1, #5
 835 04ca FFF7FEFF 		bl	_test_assert
 836              	.LVL122:
 837 04ce 0028     		cmp	r0, #0
 838 04d0 7FF4C2AD 		bne	.L1
 839              		.loc 1 190 0
 840 04d4 4221     		movs	r1, #66
 841 04d6 2046     		mov	r0, r4
 842 04d8 FFF7FEFF 		bl	chMBPostAheadI
 843              	.LVL123:
 844              		.loc 1 191 0
 845 04dc B0FA80F1 		clz	r1, r0
 846 04e0 2420     		movs	r0, #36
 847              	.LVL124:
 848 04e2 4909     		lsrs	r1, r1, #5
 849 04e4 FFF7FEFF 		bl	_test_assert
 850              	.LVL125:
 851 04e8 0028     		cmp	r0, #0
 852 04ea 7FF4B5AD 		bne	.L1
 853              		.loc 1 192 0
 854 04ee 694C     		ldr	r4, .L36
 855 04f0 4121     		movs	r1, #65
ARM GAS  /tmp/ccFQWhDI.s 			page 16


 856 04f2 2046     		mov	r0, r4
 857 04f4 FFF7FEFF 		bl	chMBPostAheadI
 858              	.LVL126:
 859 04f8 0546     		mov	r5, r0
 860              	.LVL127:
 861              		.loc 1 193 0
 862 04fa FFF7FEFF 		bl	dbg_check_unlock
 863              	.LVL128:
 864              	.LBB31:
 865 04fe 0023     		movs	r3, #0
 866              	@ 193 "../../ChibiOS_2.6.5/test/testmbox.c" 1
 867 0500 83F31188 		msr     BASEPRI, r3
 868              	@ 0 "" 2
 869              		.thumb
 870              	.LBE31:
 871              		.loc 1 194 0
 872 0504 2520     		movs	r0, #37
 873 0506 B5FA85F1 		clz	r1, r5
 874 050a 4909     		lsrs	r1, r1, #5
 875 050c FFF7FEFF 		bl	_test_assert
 876              	.LVL129:
 877 0510 0028     		cmp	r0, #0
 878 0512 7FF4A1AD 		bne	.L1
 879              		.loc 1 195 0
 880 0516 E168     		ldr	r1, [r4, #12]
 881 0518 A368     		ldr	r3, [r4, #8]
 882 051a C3EB010C 		rsb	ip, r3, r1
 883 051e DCF10001 		rsbs	r1, ip, #0
 884 0522 41EB0C01 		adc	r1, r1, ip
 885 0526 2620     		movs	r0, #38
 886 0528 FFF7FEFF 		bl	_test_assert
 887              	.LVL130:
 888 052c 0028     		cmp	r0, #0
 889 052e 7FF493AD 		bne	.L1
 890 0532 0524     		movs	r4, #5
 891              	.LVL131:
 892              	.L15:
 893              	.LBB32:
 894              		.loc 1 197 0
 895 0534 2023     		movs	r3, #32
 896              	@ 197 "../../ChibiOS_2.6.5/test/testmbox.c" 1
 897 0536 83F31188 		msr     BASEPRI, r3
 898              	@ 0 "" 2
 899              		.thumb
 900              	.LBE32:
 901              		.loc 1 198 0
 902 053a 564D     		ldr	r5, .L36
 903              		.loc 1 197 0
 904 053c FFF7FEFF 		bl	dbg_check_lock
 905              	.LVL132:
 906              		.loc 1 198 0
 907 0540 01A9     		add	r1, sp, #4
 908 0542 2846     		mov	r0, r5
 909 0544 FFF7FEFF 		bl	chMBFetchI
 910              	.LVL133:
 911 0548 0646     		mov	r6, r0
 912              	.LVL134:
ARM GAS  /tmp/ccFQWhDI.s 			page 17


 913              		.loc 1 199 0
 914 054a FFF7FEFF 		bl	dbg_check_unlock
 915              	.LVL135:
 916              	.LBB33:
 917 054e 0023     		movs	r3, #0
 918              	@ 199 "../../ChibiOS_2.6.5/test/testmbox.c" 1
 919 0550 83F31188 		msr     BASEPRI, r3
 920              	@ 0 "" 2
 921              		.thumb
 922              	.LBE33:
 923              		.loc 1 200 0
 924 0554 2720     		movs	r0, #39
 925 0556 B6FA86F1 		clz	r1, r6
 926 055a 4909     		lsrs	r1, r1, #5
 927 055c FFF7FEFF 		bl	_test_assert
 928              	.LVL136:
 929 0560 0028     		cmp	r0, #0
 930 0562 7FF479AD 		bne	.L1
 931              		.loc 1 201 0 discriminator 2
 932 0566 9DF80400 		ldrb	r0, [sp, #4]	@ zero_extendqisi2
 933 056a FFF7FEFF 		bl	test_emit_token
 934              	.LVL137:
 935              		.loc 1 196 0 discriminator 2
 936 056e 013C     		subs	r4, r4, #1
 937              	.LVL138:
 938 0570 E0D1     		bne	.L15
 939              		.loc 1 203 0
 940 0572 2820     		movs	r0, #40
 941 0574 4849     		ldr	r1, .L36+4
 942 0576 FFF7FEFF 		bl	_test_assert_sequence
 943              	.LVL139:
 944 057a 0028     		cmp	r0, #0
 945 057c 7FF46CAD 		bne	.L1
 946              	.LBB34:
 947              		.loc 1 204 0
 948 0580 2023     		movs	r3, #32
 949              	@ 204 "../../ChibiOS_2.6.5/test/testmbox.c" 1
 950 0582 83F31188 		msr     BASEPRI, r3
 951              	@ 0 "" 2
 952              		.thumb
 953              	.LBE34:
 954 0586 FFF7FEFF 		bl	dbg_check_lock
 955              	.LVL140:
 956 058a 696A     		ldr	r1, [r5, #36]
 957 058c A1F1050E 		sub	lr, r1, #5
 958 0590 DEF10001 		rsbs	r1, lr, #0
 959 0594 41EB0E01 		adc	r1, r1, lr
 960 0598 2920     		movs	r0, #41
 961 059a FFF7FEFF 		bl	_test_assert
 962              	.LVL141:
 963 059e 0028     		cmp	r0, #0
 964 05a0 71D1     		bne	.L28
 965              		.loc 1 204 0 is_stmt 0 discriminator 2
 966 05a2 FFF7FEFF 		bl	dbg_check_unlock
 967              	.LVL142:
 968              	.LBB35:
 969 05a6 2346     		mov	r3, r4
ARM GAS  /tmp/ccFQWhDI.s 			page 18


 970              	@ 204 "../../ChibiOS_2.6.5/test/testmbox.c" 1
 971 05a8 83F31188 		msr     BASEPRI, r3
 972              	@ 0 "" 2
 973              		.thumb
 974              	.LBE35:
 975              	.LBB36:
 976              		.loc 1 205 0 is_stmt 1 discriminator 2
 977 05ac 2023     		movs	r3, #32
 978              	@ 205 "../../ChibiOS_2.6.5/test/testmbox.c" 1
 979 05ae 83F31188 		msr     BASEPRI, r3
 980              	@ 0 "" 2
 981              		.thumb
 982              	.LBE36:
 983 05b2 FFF7FEFF 		bl	dbg_check_lock
 984              	.LVL143:
 985 05b6 A969     		ldr	r1, [r5, #24]
 986 05b8 B1FA81F1 		clz	r1, r1
 987 05bc 2A20     		movs	r0, #42
 988 05be 4909     		lsrs	r1, r1, #5
 989 05c0 FFF7FEFF 		bl	_test_assert
 990              	.LVL144:
 991 05c4 0028     		cmp	r0, #0
 992 05c6 5ED1     		bne	.L28
 993 05c8 FFF7FEFF 		bl	dbg_check_unlock
 994              	.LVL145:
 995              	.LBB37:
 996 05cc 2346     		mov	r3, r4
 997              	@ 205 "../../ChibiOS_2.6.5/test/testmbox.c" 1
 998 05ce 83F31188 		msr     BASEPRI, r3
 999              	@ 0 "" 2
 1000              		.thumb
 1001              	.LBE37:
 1002              		.loc 1 206 0 discriminator 2
 1003 05d2 E968     		ldr	r1, [r5, #12]
 1004 05d4 AB68     		ldr	r3, [r5, #8]
 1005 05d6 CF1A     		subs	r7, r1, r3
 1006 05d8 7942     		rsbs	r1, r7, #0
 1007 05da 7941     		adcs	r1, r1, r7
 1008 05dc 2B20     		movs	r0, #43
 1009 05de FFF7FEFF 		bl	_test_assert
 1010              	.LVL146:
 1011 05e2 0028     		cmp	r0, #0
 1012 05e4 7FF438AD 		bne	.L1
 1013              		.loc 1 211 0
 1014 05e8 2846     		mov	r0, r5
 1015 05ea FFF7FEFF 		bl	chMBReset
 1016              	.LVL147:
 1017              	.LBB38:
 1018              		.loc 1 216 0
 1019 05ee 2023     		movs	r3, #32
 1020              	@ 216 "../../ChibiOS_2.6.5/test/testmbox.c" 1
 1021 05f0 83F31188 		msr     BASEPRI, r3
 1022              	@ 0 "" 2
 1023              		.thumb
 1024              	.LBE38:
 1025 05f4 FFF7FEFF 		bl	dbg_check_lock
 1026              	.LVL148:
ARM GAS  /tmp/ccFQWhDI.s 			page 19


 1027 05f8 696A     		ldr	r1, [r5, #36]
 1028 05fa 4E1F     		subs	r6, r1, #5
 1029              	.LVL149:
 1030 05fc 7142     		rsbs	r1, r6, #0
 1031 05fe 7141     		adcs	r1, r1, r6
 1032 0600 2C20     		movs	r0, #44
 1033 0602 FFF7FEFF 		bl	_test_assert
 1034              	.LVL150:
 1035 0606 0028     		cmp	r0, #0
 1036 0608 3DD1     		bne	.L28
 1037              		.loc 1 216 0 is_stmt 0 discriminator 2
 1038 060a FFF7FEFF 		bl	dbg_check_unlock
 1039              	.LVL151:
 1040              	.LBB39:
 1041 060e 2346     		mov	r3, r4
 1042              	@ 216 "../../ChibiOS_2.6.5/test/testmbox.c" 1
 1043 0610 83F31188 		msr     BASEPRI, r3
 1044              	@ 0 "" 2
 1045              		.thumb
 1046              	.LBE39:
 1047              	.LBB40:
 1048              		.loc 1 217 0 is_stmt 1 discriminator 2
 1049 0614 2023     		movs	r3, #32
 1050              	@ 217 "../../ChibiOS_2.6.5/test/testmbox.c" 1
 1051 0616 83F31188 		msr     BASEPRI, r3
 1052              	@ 0 "" 2
 1053              		.thumb
 1054              	.LBE40:
 1055 061a FFF7FEFF 		bl	dbg_check_lock
 1056              	.LVL152:
 1057 061e A969     		ldr	r1, [r5, #24]
 1058 0620 B1FA81F1 		clz	r1, r1
 1059 0624 2D20     		movs	r0, #45
 1060 0626 4909     		lsrs	r1, r1, #5
 1061 0628 FFF7FEFF 		bl	_test_assert
 1062              	.LVL153:
 1063 062c 58BB     		cbnz	r0, .L28
 1064 062e FFF7FEFF 		bl	dbg_check_unlock
 1065              	.LVL154:
 1066              	.LBB41:
 1067 0632 2346     		mov	r3, r4
 1068              	@ 217 "../../ChibiOS_2.6.5/test/testmbox.c" 1
 1069 0634 83F31188 		msr     BASEPRI, r3
 1070              	@ 0 "" 2
 1071              		.thumb
 1072              	.LBE41:
 1073              	.LBB42:
 1074              		.loc 1 218 0 discriminator 2
 1075 0638 2023     		movs	r3, #32
 1076              	@ 218 "../../ChibiOS_2.6.5/test/testmbox.c" 1
 1077 063a 83F31188 		msr     BASEPRI, r3
 1078              	@ 0 "" 2
 1079              		.thumb
 1080              	.LBE42:
 1081 063e FFF7FEFF 		bl	dbg_check_lock
 1082              	.LVL155:
 1083 0642 2968     		ldr	r1, [r5]
ARM GAS  /tmp/ccFQWhDI.s 			page 20


 1084 0644 AB68     		ldr	r3, [r5, #8]
 1085 0646 CA1A     		subs	r2, r1, r3
 1086 0648 5142     		rsbs	r1, r2, #0
 1087 064a 5141     		adcs	r1, r1, r2
 1088 064c 2E20     		movs	r0, #46
 1089 064e FFF7FEFF 		bl	_test_assert
 1090              	.LVL156:
 1091 0652 C0B9     		cbnz	r0, .L28
 1092 0654 FFF7FEFF 		bl	dbg_check_unlock
 1093              	.LVL157:
 1094              	.LBB43:
 1095 0658 2346     		mov	r3, r4
 1096              	@ 218 "../../ChibiOS_2.6.5/test/testmbox.c" 1
 1097 065a 83F31188 		msr     BASEPRI, r3
 1098              	@ 0 "" 2
 1099              		.thumb
 1100              	.LBE43:
 1101              	.LBB44:
 1102              		.loc 1 219 0 discriminator 2
 1103 065e 2023     		movs	r3, #32
 1104              	@ 219 "../../ChibiOS_2.6.5/test/testmbox.c" 1
 1105 0660 83F31188 		msr     BASEPRI, r3
 1106              	@ 0 "" 2
 1107              		.thumb
 1108              	.LBE44:
 1109 0664 FFF7FEFF 		bl	dbg_check_lock
 1110              	.LVL158:
 1111 0668 2968     		ldr	r1, [r5]
 1112 066a EB68     		ldr	r3, [r5, #12]
 1113 066c CB1A     		subs	r3, r1, r3
 1114 066e 5942     		rsbs	r1, r3, #0
 1115 0670 4FF02F00 		mov	r0, #47
 1116 0674 5941     		adcs	r1, r1, r3
 1117 0676 FFF7FEFF 		bl	_test_assert
 1118              	.LVL159:
 1119              	.L21:
 1120 067a FFF7FEFF 		bl	dbg_check_unlock
 1121              	.LVL160:
 1122              	.LBB45:
 1123 067e 0023     		movs	r3, #0
 1124              	@ 219 "../../ChibiOS_2.6.5/test/testmbox.c" 1
 1125 0680 83F31188 		msr     BASEPRI, r3
 1126              	@ 0 "" 2
 1127              		.thumb
 1128              	.LBE45:
 1129 0684 E8E4     		b	.L1
 1130              	.L28:
 1131              		.loc 1 218 0 discriminator 1
 1132 0686 FFF7FEFF 		bl	dbg_check_unlock
 1133              	.LVL161:
 1134              	.LBB46:
 1135 068a 2346     		mov	r3, r4
 1136              	@ 218 "../../ChibiOS_2.6.5/test/testmbox.c" 1
 1137 068c 83F31188 		msr     BASEPRI, r3
 1138              	@ 0 "" 2
 1139              		.thumb
 1140              	.LBE46:
ARM GAS  /tmp/ccFQWhDI.s 			page 21


 1141 0690 E2E4     		b	.L1
 1142              	.L37:
 1143 0692 00BF     		.align	2
 1144              	.L36:
 1145 0694 00000000 		.word	.LANCHOR0
 1146 0698 00000000 		.word	.LC0
 1147              		.cfi_endproc
 1148              	.LFE8:
 1149              		.size	mbox1_execute, .-mbox1_execute
 1150              		.section	.text.mbox1_setup,"ax",%progbits
 1151              		.align	2
 1152              		.p2align 4,,15
 1153              		.thumb
 1154              		.thumb_func
 1155              		.type	mbox1_setup, %function
 1156              	mbox1_setup:
 1157              	.LFB7:
 1158              		.loc 1 71 0
 1159              		.cfi_startproc
 1160              		@ args = 0, pretend = 0, frame = 0
 1161              		@ frame_needed = 0, uses_anonymous_args = 0
 1162              		@ link register save eliminated.
 1163              		.loc 1 73 0
 1164 0000 0248     		ldr	r0, .L39
 1165 0002 0349     		ldr	r1, .L39+4
 1166 0004 0522     		movs	r2, #5
 1167 0006 FFF7FEBF 		b	chMBInit
 1168              	.LVL162:
 1169              	.L40:
 1170 000a 00BF     		.align	2
 1171              	.L39:
 1172 000c 00000000 		.word	.LANCHOR0
 1173 0010 00000000 		.word	test
 1174              		.cfi_endproc
 1175              	.LFE7:
 1176              		.size	mbox1_setup, .-mbox1_setup
 1177              		.global	patternmbox
 1178              		.global	testmbox1
 1179              		.section	.data.mb1,"aw",%progbits
 1180              		.align	2
 1181              		.set	.LANCHOR0,. + 0
 1182              		.type	mb1, %object
 1183              		.size	mb1, 40
 1184              	mb1:
 1185 0000 00000000 		.word	test
 1186 0004 14000000 		.word	test+20
 1187 0008 00000000 		.word	test
 1188 000c 00000000 		.word	test
 1189 0010 10000000 		.word	mb1+16
 1190 0014 10000000 		.word	mb1+16
 1191 0018 00000000 		.word	0
 1192 001c 1C000000 		.word	mb1+28
 1193 0020 1C000000 		.word	mb1+28
 1194 0024 05000000 		.word	5
 1195              		.section	.rodata.patternmbox,"a",%progbits
 1196              		.align	2
 1197              		.type	patternmbox, %object
ARM GAS  /tmp/ccFQWhDI.s 			page 22


 1198              		.size	patternmbox, 8
 1199              	patternmbox:
 1200 0000 00000000 		.word	testmbox1
 1201 0004 00000000 		.word	0
 1202              		.section	.rodata.str1.4,"aMS",%progbits,1
 1203              		.align	2
 1204              	.LC0:
 1205 0000 41424344 		.ascii	"ABCDE\000"
 1205      4500
 1206 0006 0000     		.space	2
 1207              	.LC1:
 1208 0008 4D61696C 		.ascii	"Mailboxes, queuing and timeouts\000"
 1208      626F7865 
 1208      732C2071 
 1208      75657569 
 1208      6E672061 
 1209              		.section	.rodata.testmbox1,"a",%progbits
 1210              		.align	2
 1211              		.type	testmbox1, %object
 1212              		.size	testmbox1, 16
 1213              	testmbox1:
 1214 0000 08000000 		.word	.LC1
 1215 0004 00000000 		.word	mbox1_setup
 1216 0008 00000000 		.word	0
 1217 000c 00000000 		.word	mbox1_execute
 1218              		.text
 1219              	.Letext0:
 1220              		.file 2 "/usr/include/newlib/machine/_default_types.h"
 1221              		.file 3 "/usr/include/newlib/sys/_stdint.h"
 1222              		.file 4 "../../ChibiOS_2.6.5/os/ports/GCC/ARMCMx/chtypes.h"
 1223              		.file 5 "../../ChibiOS_2.6.5/os/kernel/include/chlists.h"
 1224              		.file 6 "../../ChibiOS_2.6.5/os/kernel/include/chthreads.h"
 1225              		.file 7 "../../ChibiOS_2.6.5/os/ports/GCC/ARMCMx/chcore_v7m.h"
 1226              		.file 8 "../../ChibiOS_2.6.5/os/kernel/include/chsem.h"
 1227              		.file 9 "../../ChibiOS_2.6.5/os/kernel/include/chmtx.h"
 1228              		.file 10 "../../ChibiOS_2.6.5/os/kernel/include/chmboxes.h"
 1229              		.file 11 "../../ChibiOS_2.6.5/test/test.h"
 1230              		.file 12 "../../ChibiOS_2.6.5/os/kernel/include/chdebug.h"
 1231              		.section	.debug_info,"",%progbits
 1232              	.Ldebug_info0:
 1233 0000 6F140000 		.4byte	0x146f
 1234 0004 0400     		.2byte	0x4
 1235 0006 00000000 		.4byte	.Ldebug_abbrev0
 1236 000a 04       		.byte	0x4
 1237 000b 01       		.uleb128 0x1
 1238 000c 58000000 		.4byte	.LASF100
 1239 0010 01       		.byte	0x1
 1240 0011 8F010000 		.4byte	.LASF101
 1241 0015 B8030000 		.4byte	.LASF102
 1242 0019 00000000 		.4byte	.Ldebug_ranges0+0
 1243 001d 00000000 		.4byte	0
 1244 0021 00000000 		.4byte	.Ldebug_line0
 1245 0025 02       		.uleb128 0x2
 1246 0026 04       		.byte	0x4
 1247 0027 05       		.byte	0x5
 1248 0028 696E7400 		.ascii	"int\000"
 1249 002c 03       		.uleb128 0x3
ARM GAS  /tmp/ccFQWhDI.s 			page 23


 1250 002d 04       		.byte	0x4
 1251 002e 07       		.byte	0x7
 1252 002f FB010000 		.4byte	.LASF0
 1253 0033 03       		.uleb128 0x3
 1254 0034 01       		.byte	0x1
 1255 0035 06       		.byte	0x6
 1256 0036 37010000 		.4byte	.LASF1
 1257 003a 04       		.uleb128 0x4
 1258 003b 16000000 		.4byte	.LASF5
 1259 003f 02       		.byte	0x2
 1260 0040 1D       		.byte	0x1d
 1261 0041 45000000 		.4byte	0x45
 1262 0045 03       		.uleb128 0x3
 1263 0046 01       		.byte	0x1
 1264 0047 08       		.byte	0x8
 1265 0048 7D030000 		.4byte	.LASF2
 1266 004c 03       		.uleb128 0x3
 1267 004d 02       		.byte	0x2
 1268 004e 05       		.byte	0x5
 1269 004f 9C030000 		.4byte	.LASF3
 1270 0053 03       		.uleb128 0x3
 1271 0054 02       		.byte	0x2
 1272 0055 07       		.byte	0x7
 1273 0056 55020000 		.4byte	.LASF4
 1274 005a 04       		.uleb128 0x4
 1275 005b 74040000 		.4byte	.LASF6
 1276 005f 02       		.byte	0x2
 1277 0060 3F       		.byte	0x3f
 1278 0061 65000000 		.4byte	0x65
 1279 0065 03       		.uleb128 0x3
 1280 0066 04       		.byte	0x4
 1281 0067 05       		.byte	0x5
 1282 0068 7D010000 		.4byte	.LASF7
 1283 006c 04       		.uleb128 0x4
 1284 006d CA010000 		.4byte	.LASF8
 1285 0071 02       		.byte	0x2
 1286 0072 41       		.byte	0x41
 1287 0073 77000000 		.4byte	0x77
 1288 0077 03       		.uleb128 0x3
 1289 0078 04       		.byte	0x4
 1290 0079 07       		.byte	0x7
 1291 007a 1B020000 		.4byte	.LASF9
 1292 007e 03       		.uleb128 0x3
 1293 007f 08       		.byte	0x8
 1294 0080 05       		.byte	0x5
 1295 0081 29010000 		.4byte	.LASF10
 1296 0085 04       		.uleb128 0x4
 1297 0086 45030000 		.4byte	.LASF11
 1298 008a 02       		.byte	0x2
 1299 008b 5B       		.byte	0x5b
 1300 008c 90000000 		.4byte	0x90
 1301 0090 03       		.uleb128 0x3
 1302 0091 08       		.byte	0x8
 1303 0092 07       		.byte	0x7
 1304 0093 41000000 		.4byte	.LASF12
 1305 0097 04       		.uleb128 0x4
 1306 0098 D8040000 		.4byte	.LASF13
ARM GAS  /tmp/ccFQWhDI.s 			page 24


 1307 009c 03       		.byte	0x3
 1308 009d 14       		.byte	0x14
 1309 009e 3A000000 		.4byte	0x3a
 1310 00a2 04       		.uleb128 0x4
 1311 00a3 75030000 		.4byte	.LASF14
 1312 00a7 03       		.byte	0x3
 1313 00a8 1F       		.byte	0x1f
 1314 00a9 5A000000 		.4byte	0x5a
 1315 00ad 04       		.uleb128 0x4
 1316 00ae 4A040000 		.4byte	.LASF15
 1317 00b2 03       		.byte	0x3
 1318 00b3 20       		.byte	0x20
 1319 00b4 6C000000 		.4byte	0x6c
 1320 00b8 04       		.uleb128 0x4
 1321 00b9 0D000000 		.4byte	.LASF16
 1322 00bd 03       		.byte	0x3
 1323 00be 26       		.byte	0x26
 1324 00bf 85000000 		.4byte	0x85
 1325 00c3 04       		.uleb128 0x4
 1326 00c4 4B010000 		.4byte	.LASF17
 1327 00c8 04       		.byte	0x4
 1328 00c9 2B       		.byte	0x2b
 1329 00ca CE000000 		.4byte	0xce
 1330 00ce 03       		.uleb128 0x3
 1331 00cf 01       		.byte	0x1
 1332 00d0 02       		.byte	0x2
 1333 00d1 6F030000 		.4byte	.LASF18
 1334 00d5 04       		.uleb128 0x4
 1335 00d6 79020000 		.4byte	.LASF19
 1336 00da 04       		.byte	0x4
 1337 00db 2C       		.byte	0x2c
 1338 00dc 97000000 		.4byte	0x97
 1339 00e0 04       		.uleb128 0x4
 1340 00e1 86010000 		.4byte	.LASF20
 1341 00e5 04       		.byte	0x4
 1342 00e6 2D       		.byte	0x2d
 1343 00e7 97000000 		.4byte	0x97
 1344 00eb 04       		.uleb128 0x4
 1345 00ec 50030000 		.4byte	.LASF21
 1346 00f0 04       		.byte	0x4
 1347 00f1 2E       		.byte	0x2e
 1348 00f2 97000000 		.4byte	0x97
 1349 00f6 04       		.uleb128 0x4
 1350 00f7 6A010000 		.4byte	.LASF22
 1351 00fb 04       		.byte	0x4
 1352 00fc 2F       		.byte	0x2f
 1353 00fd 97000000 		.4byte	0x97
 1354 0101 04       		.uleb128 0x4
 1355 0102 67030000 		.4byte	.LASF23
 1356 0106 04       		.byte	0x4
 1357 0107 30       		.byte	0x30
 1358 0108 AD000000 		.4byte	0xad
 1359 010c 04       		.uleb128 0x4
 1360 010d 73020000 		.4byte	.LASF24
 1361 0111 04       		.byte	0x4
 1362 0112 31       		.byte	0x31
 1363 0113 A2000000 		.4byte	0xa2
ARM GAS  /tmp/ccFQWhDI.s 			page 25


 1364 0117 04       		.uleb128 0x4
 1365 0118 99020000 		.4byte	.LASF25
 1366 011c 04       		.byte	0x4
 1367 011d 33       		.byte	0x33
 1368 011e AD000000 		.4byte	0xad
 1369 0122 04       		.uleb128 0x4
 1370 0123 5F040000 		.4byte	.LASF26
 1371 0127 04       		.byte	0x4
 1372 0128 35       		.byte	0x35
 1373 0129 AD000000 		.4byte	0xad
 1374 012d 04       		.uleb128 0x4
 1375 012e EA010000 		.4byte	.LASF27
 1376 0132 04       		.byte	0x4
 1377 0133 36       		.byte	0x36
 1378 0134 A2000000 		.4byte	0xa2
 1379 0138 04       		.uleb128 0x4
 1380 0139 2F040000 		.4byte	.LASF28
 1381 013d 05       		.byte	0x5
 1382 013e 2A       		.byte	0x2a
 1383 013f 43010000 		.4byte	0x143
 1384 0143 05       		.uleb128 0x5
 1385 0144 2F040000 		.4byte	.LASF28
 1386 0148 4C       		.byte	0x4c
 1387 0149 06       		.byte	0x6
 1388 014a 5E       		.byte	0x5e
 1389 014b 4C020000 		.4byte	0x24c
 1390 014f 06       		.uleb128 0x6
 1391 0150 20040000 		.4byte	.LASF29
 1392 0154 06       		.byte	0x6
 1393 0155 5F       		.byte	0x5f
 1394 0156 6D020000 		.4byte	0x26d
 1395 015a 00       		.byte	0
 1396 015b 06       		.uleb128 0x6
 1397 015c 58030000 		.4byte	.LASF30
 1398 0160 06       		.byte	0x6
 1399 0161 61       		.byte	0x61
 1400 0162 6D020000 		.4byte	0x26d
 1401 0166 04       		.byte	0x4
 1402 0167 06       		.uleb128 0x6
 1403 0168 22010000 		.4byte	.LASF31
 1404 016c 06       		.byte	0x6
 1405 016d 63       		.byte	0x63
 1406 016e 01010000 		.4byte	0x101
 1407 0172 08       		.byte	0x8
 1408 0173 06       		.uleb128 0x6
 1409 0174 03050000 		.4byte	.LASF32
 1410 0178 06       		.byte	0x6
 1411 0179 64       		.byte	0x64
 1412 017a 32030000 		.4byte	0x332
 1413 017e 0C       		.byte	0xc
 1414 017f 06       		.uleb128 0x6
 1415 0180 BA010000 		.4byte	.LASF33
 1416 0184 06       		.byte	0x6
 1417 0185 66       		.byte	0x66
 1418 0186 6D020000 		.4byte	0x26d
 1419 018a 10       		.byte	0x10
 1420 018b 06       		.uleb128 0x6
ARM GAS  /tmp/ccFQWhDI.s 			page 26


 1421 018c DC020000 		.4byte	.LASF34
 1422 0190 06       		.byte	0x6
 1423 0191 67       		.byte	0x67
 1424 0192 6D020000 		.4byte	0x26d
 1425 0196 14       		.byte	0x14
 1426 0197 06       		.uleb128 0x6
 1427 0198 E7040000 		.4byte	.LASF35
 1428 019c 06       		.byte	0x6
 1429 019d 6E       		.byte	0x6e
 1430 019e 68040000 		.4byte	0x468
 1431 01a2 18       		.byte	0x18
 1432 01a3 06       		.uleb128 0x6
 1433 01a4 F0010000 		.4byte	.LASF36
 1434 01a8 06       		.byte	0x6
 1435 01a9 74       		.byte	0x74
 1436 01aa 7A040000 		.4byte	0x47a
 1437 01ae 1C       		.byte	0x1c
 1438 01af 06       		.uleb128 0x6
 1439 01b0 A6030000 		.4byte	.LASF37
 1440 01b4 06       		.byte	0x6
 1441 01b5 79       		.byte	0x79
 1442 01b6 E0000000 		.4byte	0xe0
 1443 01ba 20       		.byte	0x20
 1444 01bb 06       		.uleb128 0x6
 1445 01bc 27040000 		.4byte	.LASF38
 1446 01c0 06       		.byte	0x6
 1447 01c1 7D       		.byte	0x7d
 1448 01c2 D5000000 		.4byte	0xd5
 1449 01c6 21       		.byte	0x21
 1450 01c7 06       		.uleb128 0x6
 1451 01c8 D1040000 		.4byte	.LASF39
 1452 01cc 06       		.byte	0x6
 1453 01cd 82       		.byte	0x82
 1454 01ce EB000000 		.4byte	0xeb
 1455 01d2 22       		.byte	0x22
 1456 01d3 06       		.uleb128 0x6
 1457 01d4 AE030000 		.4byte	.LASF40
 1458 01d8 06       		.byte	0x6
 1459 01d9 88       		.byte	0x88
 1460 01da F6000000 		.4byte	0xf6
 1461 01de 23       		.byte	0x23
 1462 01df 06       		.uleb128 0x6
 1463 01e0 7E040000 		.4byte	.LASF41
 1464 01e4 06       		.byte	0x6
 1465 01e5 8F       		.byte	0x8f
 1466 01e6 5A030000 		.4byte	0x35a
 1467 01ea 24       		.byte	0x24
 1468 01eb 07       		.uleb128 0x7
 1469 01ec 705F7500 		.ascii	"p_u\000"
 1470 01f0 06       		.byte	0x6
 1471 01f1 B4       		.byte	0xb4
 1472 01f2 33040000 		.4byte	0x433
 1473 01f6 28       		.byte	0x28
 1474 01f7 06       		.uleb128 0x6
 1475 01f8 09050000 		.4byte	.LASF42
 1476 01fc 06       		.byte	0x6
 1477 01fd B9       		.byte	0xb9
ARM GAS  /tmp/ccFQWhDI.s 			page 27


 1478 01fe 93020000 		.4byte	0x293
 1479 0202 2C       		.byte	0x2c
 1480 0203 06       		.uleb128 0x6
 1481 0204 9A040000 		.4byte	.LASF43
 1482 0208 06       		.byte	0x6
 1483 0209 BF       		.byte	0xbf
 1484 020a 73020000 		.4byte	0x273
 1485 020e 30       		.byte	0x30
 1486 020f 06       		.uleb128 0x6
 1487 0210 00000000 		.4byte	.LASF44
 1488 0214 06       		.byte	0x6
 1489 0215 C3       		.byte	0xc3
 1490 0216 0C010000 		.4byte	0x10c
 1491 021a 38       		.byte	0x38
 1492 021b 06       		.uleb128 0x6
 1493 021c 3F040000 		.4byte	.LASF45
 1494 0220 06       		.byte	0x6
 1495 0221 C9       		.byte	0xc9
 1496 0222 17010000 		.4byte	0x117
 1497 0226 3C       		.byte	0x3c
 1498 0227 06       		.uleb128 0x6
 1499 0228 92030000 		.4byte	.LASF46
 1500 022c 06       		.byte	0x6
 1501 022d D0       		.byte	0xd0
 1502 022e 80040000 		.4byte	0x480
 1503 0232 40       		.byte	0x40
 1504 0233 06       		.uleb128 0x6
 1505 0234 69040000 		.4byte	.LASF47
 1506 0238 06       		.byte	0x6
 1507 0239 D4       		.byte	0xd4
 1508 023a 01010000 		.4byte	0x101
 1509 023e 44       		.byte	0x44
 1510 023f 06       		.uleb128 0x6
 1511 0240 43010000 		.4byte	.LASF48
 1512 0244 06       		.byte	0x6
 1513 0245 DA       		.byte	0xda
 1514 0246 A9020000 		.4byte	0x2a9
 1515 024a 48       		.byte	0x48
 1516 024b 00       		.byte	0
 1517 024c 08       		.uleb128 0x8
 1518 024d 08       		.byte	0x8
 1519 024e 05       		.byte	0x5
 1520 024f 61       		.byte	0x61
 1521 0250 6D020000 		.4byte	0x26d
 1522 0254 06       		.uleb128 0x6
 1523 0255 20040000 		.4byte	.LASF29
 1524 0259 05       		.byte	0x5
 1525 025a 62       		.byte	0x62
 1526 025b 6D020000 		.4byte	0x26d
 1527 025f 00       		.byte	0
 1528 0260 06       		.uleb128 0x6
 1529 0261 58030000 		.4byte	.LASF30
 1530 0265 05       		.byte	0x5
 1531 0266 64       		.byte	0x64
 1532 0267 6D020000 		.4byte	0x26d
 1533 026b 04       		.byte	0x4
 1534 026c 00       		.byte	0
ARM GAS  /tmp/ccFQWhDI.s 			page 28


 1535 026d 09       		.uleb128 0x9
 1536 026e 04       		.byte	0x4
 1537 026f 38010000 		.4byte	0x138
 1538 0273 04       		.uleb128 0x4
 1539 0274 E4020000 		.4byte	.LASF49
 1540 0278 05       		.byte	0x5
 1541 0279 66       		.byte	0x66
 1542 027a 4C020000 		.4byte	0x24c
 1543 027e 08       		.uleb128 0x8
 1544 027f 04       		.byte	0x4
 1545 0280 05       		.byte	0x5
 1546 0281 6B       		.byte	0x6b
 1547 0282 93020000 		.4byte	0x293
 1548 0286 06       		.uleb128 0x6
 1549 0287 20040000 		.4byte	.LASF29
 1550 028b 05       		.byte	0x5
 1551 028c 6D       		.byte	0x6d
 1552 028d 6D020000 		.4byte	0x26d
 1553 0291 00       		.byte	0
 1554 0292 00       		.byte	0
 1555 0293 04       		.uleb128 0x4
 1556 0294 8D020000 		.4byte	.LASF50
 1557 0298 05       		.byte	0x5
 1558 0299 70       		.byte	0x70
 1559 029a 7E020000 		.4byte	0x27e
 1560 029e 04       		.uleb128 0x4
 1561 029f D5010000 		.4byte	.LASF51
 1562 02a3 07       		.byte	0x7
 1563 02a4 E5       		.byte	0xe5
 1564 02a5 A9020000 		.4byte	0x2a9
 1565 02a9 0A       		.uleb128 0xa
 1566 02aa 04       		.byte	0x4
 1567 02ab 04       		.uleb128 0x4
 1568 02ac B5020000 		.4byte	.LASF52
 1569 02b0 07       		.byte	0x7
 1570 02b1 EB       		.byte	0xeb
 1571 02b2 B8000000 		.4byte	0xb8
 1572 02b6 0B       		.uleb128 0xb
 1573 02b7 93040000 		.4byte	.LASF53
 1574 02bb 24       		.byte	0x24
 1575 02bc 07       		.byte	0x7
 1576 02bd 0C01     		.2byte	0x10c
 1577 02bf 32030000 		.4byte	0x332
 1578 02c3 0C       		.uleb128 0xc
 1579 02c4 723400   		.ascii	"r4\000"
 1580 02c7 07       		.byte	0x7
 1581 02c8 1F01     		.2byte	0x11f
 1582 02ca 9E020000 		.4byte	0x29e
 1583 02ce 00       		.byte	0
 1584 02cf 0C       		.uleb128 0xc
 1585 02d0 723500   		.ascii	"r5\000"
 1586 02d3 07       		.byte	0x7
 1587 02d4 2001     		.2byte	0x120
 1588 02d6 9E020000 		.4byte	0x29e
 1589 02da 04       		.byte	0x4
 1590 02db 0C       		.uleb128 0xc
 1591 02dc 723600   		.ascii	"r6\000"
ARM GAS  /tmp/ccFQWhDI.s 			page 29


 1592 02df 07       		.byte	0x7
 1593 02e0 2101     		.2byte	0x121
 1594 02e2 9E020000 		.4byte	0x29e
 1595 02e6 08       		.byte	0x8
 1596 02e7 0C       		.uleb128 0xc
 1597 02e8 723700   		.ascii	"r7\000"
 1598 02eb 07       		.byte	0x7
 1599 02ec 2201     		.2byte	0x122
 1600 02ee 9E020000 		.4byte	0x29e
 1601 02f2 0C       		.byte	0xc
 1602 02f3 0C       		.uleb128 0xc
 1603 02f4 723800   		.ascii	"r8\000"
 1604 02f7 07       		.byte	0x7
 1605 02f8 2301     		.2byte	0x123
 1606 02fa 9E020000 		.4byte	0x29e
 1607 02fe 10       		.byte	0x10
 1608 02ff 0C       		.uleb128 0xc
 1609 0300 723900   		.ascii	"r9\000"
 1610 0303 07       		.byte	0x7
 1611 0304 2401     		.2byte	0x124
 1612 0306 9E020000 		.4byte	0x29e
 1613 030a 14       		.byte	0x14
 1614 030b 0C       		.uleb128 0xc
 1615 030c 72313000 		.ascii	"r10\000"
 1616 0310 07       		.byte	0x7
 1617 0311 2501     		.2byte	0x125
 1618 0313 9E020000 		.4byte	0x29e
 1619 0317 18       		.byte	0x18
 1620 0318 0C       		.uleb128 0xc
 1621 0319 72313100 		.ascii	"r11\000"
 1622 031d 07       		.byte	0x7
 1623 031e 2601     		.2byte	0x126
 1624 0320 9E020000 		.4byte	0x29e
 1625 0324 1C       		.byte	0x1c
 1626 0325 0C       		.uleb128 0xc
 1627 0326 6C7200   		.ascii	"lr\000"
 1628 0329 07       		.byte	0x7
 1629 032a 2701     		.2byte	0x127
 1630 032c 9E020000 		.4byte	0x29e
 1631 0330 20       		.byte	0x20
 1632 0331 00       		.byte	0
 1633 0332 0B       		.uleb128 0xb
 1634 0333 4D020000 		.4byte	.LASF54
 1635 0337 04       		.byte	0x4
 1636 0338 07       		.byte	0x7
 1637 0339 3101     		.2byte	0x131
 1638 033b 4D030000 		.4byte	0x34d
 1639 033f 0C       		.uleb128 0xc
 1640 0340 72313300 		.ascii	"r13\000"
 1641 0344 07       		.byte	0x7
 1642 0345 3201     		.2byte	0x132
 1643 0347 4D030000 		.4byte	0x34d
 1644 034b 00       		.byte	0
 1645 034c 00       		.byte	0
 1646 034d 09       		.uleb128 0x9
 1647 034e 04       		.byte	0x4
 1648 034f B6020000 		.4byte	0x2b6
ARM GAS  /tmp/ccFQWhDI.s 			page 30


 1649 0353 03       		.uleb128 0x3
 1650 0354 04       		.byte	0x4
 1651 0355 07       		.byte	0x7
 1652 0356 C0020000 		.4byte	.LASF55
 1653 035a 0D       		.uleb128 0xd
 1654 035b 22010000 		.4byte	0x122
 1655 035f 05       		.uleb128 0x5
 1656 0360 AF040000 		.4byte	.LASF56
 1657 0364 0C       		.byte	0xc
 1658 0365 08       		.byte	0x8
 1659 0366 2C       		.byte	0x2c
 1660 0367 84030000 		.4byte	0x384
 1661 036b 06       		.uleb128 0x6
 1662 036c C2010000 		.4byte	.LASF57
 1663 0370 08       		.byte	0x8
 1664 0371 2D       		.byte	0x2d
 1665 0372 73020000 		.4byte	0x273
 1666 0376 00       		.byte	0
 1667 0377 06       		.uleb128 0x6
 1668 0378 47020000 		.4byte	.LASF58
 1669 037c 08       		.byte	0x8
 1670 037d 2F       		.byte	0x2f
 1671 037e 2D010000 		.4byte	0x12d
 1672 0382 08       		.byte	0x8
 1673 0383 00       		.byte	0
 1674 0384 04       		.uleb128 0x4
 1675 0385 AF040000 		.4byte	.LASF56
 1676 0389 08       		.byte	0x8
 1677 038a 30       		.byte	0x30
 1678 038b 5F030000 		.4byte	0x35f
 1679 038f 05       		.uleb128 0x5
 1680 0390 A5020000 		.4byte	.LASF59
 1681 0394 10       		.byte	0x10
 1682 0395 09       		.byte	0x9
 1683 0396 2C       		.byte	0x2c
 1684 0397 C0030000 		.4byte	0x3c0
 1685 039b 06       		.uleb128 0x6
 1686 039c 52010000 		.4byte	.LASF60
 1687 03a0 09       		.byte	0x9
 1688 03a1 2D       		.byte	0x2d
 1689 03a2 73020000 		.4byte	0x273
 1690 03a6 00       		.byte	0
 1691 03a7 06       		.uleb128 0x6
 1692 03a8 FB040000 		.4byte	.LASF61
 1693 03ac 09       		.byte	0x9
 1694 03ad 2F       		.byte	0x2f
 1695 03ae 6D020000 		.4byte	0x26d
 1696 03b2 08       		.byte	0x8
 1697 03b3 06       		.uleb128 0x6
 1698 03b4 58040000 		.4byte	.LASF62
 1699 03b8 09       		.byte	0x9
 1700 03b9 31       		.byte	0x31
 1701 03ba C0030000 		.4byte	0x3c0
 1702 03be 0C       		.byte	0xc
 1703 03bf 00       		.byte	0
 1704 03c0 09       		.uleb128 0x9
 1705 03c1 04       		.byte	0x4
ARM GAS  /tmp/ccFQWhDI.s 			page 31


 1706 03c2 8F030000 		.4byte	0x38f
 1707 03c6 04       		.uleb128 0x4
 1708 03c7 A5020000 		.4byte	.LASF59
 1709 03cb 09       		.byte	0x9
 1710 03cc 33       		.byte	0x33
 1711 03cd 8F030000 		.4byte	0x38f
 1712 03d1 08       		.uleb128 0x8
 1713 03d2 28       		.byte	0x28
 1714 03d3 0A       		.byte	0xa
 1715 03d4 33       		.byte	0x33
 1716 03d5 22040000 		.4byte	0x422
 1717 03d9 06       		.uleb128 0x6
 1718 03da 0D030000 		.4byte	.LASF63
 1719 03de 0A       		.byte	0xa
 1720 03df 34       		.byte	0x34
 1721 03e0 22040000 		.4byte	0x422
 1722 03e4 00       		.byte	0
 1723 03e5 06       		.uleb128 0x6
 1724 03e6 8B030000 		.4byte	.LASF64
 1725 03ea 0A       		.byte	0xa
 1726 03eb 36       		.byte	0x36
 1727 03ec 22040000 		.4byte	0x422
 1728 03f0 04       		.byte	0x4
 1729 03f1 06       		.uleb128 0x6
 1730 03f2 19010000 		.4byte	.LASF65
 1731 03f6 0A       		.byte	0xa
 1732 03f7 38       		.byte	0x38
 1733 03f8 22040000 		.4byte	0x422
 1734 03fc 08       		.byte	0x8
 1735 03fd 06       		.uleb128 0x6
 1736 03fe C9020000 		.4byte	.LASF66
 1737 0402 0A       		.byte	0xa
 1738 0403 39       		.byte	0x39
 1739 0404 22040000 		.4byte	0x422
 1740 0408 0C       		.byte	0xc
 1741 0409 06       		.uleb128 0x6
 1742 040a B9040000 		.4byte	.LASF67
 1743 040e 0A       		.byte	0xa
 1744 040f 3A       		.byte	0x3a
 1745 0410 84030000 		.4byte	0x384
 1746 0414 10       		.byte	0x10
 1747 0415 06       		.uleb128 0x6
 1748 0416 36020000 		.4byte	.LASF68
 1749 041a 0A       		.byte	0xa
 1750 041b 3C       		.byte	0x3c
 1751 041c 84030000 		.4byte	0x384
 1752 0420 1C       		.byte	0x1c
 1753 0421 00       		.byte	0
 1754 0422 09       		.uleb128 0x9
 1755 0423 04       		.byte	0x4
 1756 0424 0C010000 		.4byte	0x10c
 1757 0428 04       		.uleb128 0x4
 1758 0429 2A000000 		.4byte	.LASF69
 1759 042d 0A       		.byte	0xa
 1760 042e 3E       		.byte	0x3e
 1761 042f D1030000 		.4byte	0x3d1
 1762 0433 0E       		.uleb128 0xe
ARM GAS  /tmp/ccFQWhDI.s 			page 32


 1763 0434 04       		.byte	0x4
 1764 0435 06       		.byte	0x6
 1765 0436 96       		.byte	0x96
 1766 0437 68040000 		.4byte	0x468
 1767 043b 0F       		.uleb128 0xf
 1768 043c 06000000 		.4byte	.LASF70
 1769 0440 06       		.byte	0x6
 1770 0441 9D       		.byte	0x9d
 1771 0442 0C010000 		.4byte	0x10c
 1772 0446 0F       		.uleb128 0xf
 1773 0447 0B010000 		.4byte	.LASF71
 1774 044b 06       		.byte	0x6
 1775 044c A4       		.byte	0xa4
 1776 044d 0C010000 		.4byte	0x10c
 1777 0451 0F       		.uleb128 0xf
 1778 0452 E0040000 		.4byte	.LASF72
 1779 0456 06       		.byte	0x6
 1780 0457 AB       		.byte	0xab
 1781 0458 A9020000 		.4byte	0x2a9
 1782 045c 0F       		.uleb128 0xf
 1783 045d 19040000 		.4byte	.LASF73
 1784 0461 06       		.byte	0x6
 1785 0462 B2       		.byte	0xb2
 1786 0463 17010000 		.4byte	0x117
 1787 0467 00       		.byte	0
 1788 0468 09       		.uleb128 0x9
 1789 0469 04       		.byte	0x4
 1790 046a 6E040000 		.4byte	0x46e
 1791 046e 10       		.uleb128 0x10
 1792 046f 73040000 		.4byte	0x473
 1793 0473 03       		.uleb128 0x3
 1794 0474 01       		.byte	0x1
 1795 0475 08       		.byte	0x8
 1796 0476 53040000 		.4byte	.LASF74
 1797 047a 09       		.uleb128 0x9
 1798 047b 04       		.byte	0x4
 1799 047c AB020000 		.4byte	0x2ab
 1800 0480 09       		.uleb128 0x9
 1801 0481 04       		.byte	0x4
 1802 0482 C6030000 		.4byte	0x3c6
 1803 0486 05       		.uleb128 0x5
 1804 0487 36040000 		.4byte	.LASF75
 1805 048b 10       		.byte	0x10
 1806 048c 0B       		.byte	0xb
 1807 048d 3B       		.byte	0x3b
 1808 048e C3040000 		.4byte	0x4c3
 1809 0492 06       		.uleb128 0x6
 1810 0493 42020000 		.4byte	.LASF76
 1811 0497 0B       		.byte	0xb
 1812 0498 3C       		.byte	0x3c
 1813 0499 68040000 		.4byte	0x468
 1814 049d 00       		.byte	0
 1815 049e 06       		.uleb128 0x6
 1816 049f F1020000 		.4byte	.LASF77
 1817 04a3 0B       		.byte	0xb
 1818 04a4 3D       		.byte	0x3d
 1819 04a5 C4040000 		.4byte	0x4c4
ARM GAS  /tmp/ccFQWhDI.s 			page 33


 1820 04a9 04       		.byte	0x4
 1821 04aa 06       		.uleb128 0x6
 1822 04ab 2D020000 		.4byte	.LASF78
 1823 04af 0B       		.byte	0xb
 1824 04b0 3E       		.byte	0x3e
 1825 04b1 C4040000 		.4byte	0x4c4
 1826 04b5 08       		.byte	0x8
 1827 04b6 06       		.uleb128 0x6
 1828 04b7 5F030000 		.4byte	.LASF79
 1829 04bb 0B       		.byte	0xb
 1830 04bc 3F       		.byte	0x3f
 1831 04bd C4040000 		.4byte	0x4c4
 1832 04c1 0C       		.byte	0xc
 1833 04c2 00       		.byte	0
 1834 04c3 11       		.uleb128 0x11
 1835 04c4 09       		.uleb128 0x9
 1836 04c5 04       		.byte	0x4
 1837 04c6 C3040000 		.4byte	0x4c3
 1838 04ca 12       		.uleb128 0x12
 1839 04cb 9006     		.2byte	0x690
 1840 04cd 0B       		.byte	0xb
 1841 04ce 44       		.byte	0x44
 1842 04cf 0F050000 		.4byte	0x50f
 1843 04d3 07       		.uleb128 0x7
 1844 04d4 543000   		.ascii	"T0\000"
 1845 04d7 0B       		.byte	0xb
 1846 04d8 45       		.byte	0x45
 1847 04d9 0F050000 		.4byte	0x50f
 1848 04dd 00       		.byte	0
 1849 04de 13       		.uleb128 0x13
 1850 04df 543100   		.ascii	"T1\000"
 1851 04e2 0B       		.byte	0xb
 1852 04e3 46       		.byte	0x46
 1853 04e4 0F050000 		.4byte	0x50f
 1854 04e8 5001     		.2byte	0x150
 1855 04ea 13       		.uleb128 0x13
 1856 04eb 543200   		.ascii	"T2\000"
 1857 04ee 0B       		.byte	0xb
 1858 04ef 47       		.byte	0x47
 1859 04f0 0F050000 		.4byte	0x50f
 1860 04f4 A002     		.2byte	0x2a0
 1861 04f6 13       		.uleb128 0x13
 1862 04f7 543300   		.ascii	"T3\000"
 1863 04fa 0B       		.byte	0xb
 1864 04fb 48       		.byte	0x48
 1865 04fc 0F050000 		.4byte	0x50f
 1866 0500 F003     		.2byte	0x3f0
 1867 0502 13       		.uleb128 0x13
 1868 0503 543400   		.ascii	"T4\000"
 1869 0506 0B       		.byte	0xb
 1870 0507 49       		.byte	0x49
 1871 0508 0F050000 		.4byte	0x50f
 1872 050c 4005     		.2byte	0x540
 1873 050e 00       		.byte	0
 1874 050f 14       		.uleb128 0x14
 1875 0510 AB020000 		.4byte	0x2ab
 1876 0514 1F050000 		.4byte	0x51f
ARM GAS  /tmp/ccFQWhDI.s 			page 34


 1877 0518 15       		.uleb128 0x15
 1878 0519 53030000 		.4byte	0x353
 1879 051d 29       		.byte	0x29
 1880 051e 00       		.byte	0
 1881 051f 16       		.uleb128 0x16
 1882 0520 C4040000 		.4byte	.LASF103
 1883 0524 9006     		.2byte	0x690
 1884 0526 0B       		.byte	0xb
 1885 0527 43       		.byte	0x43
 1886 0528 42050000 		.4byte	0x542
 1887 052c 17       		.uleb128 0x17
 1888 052d 776100   		.ascii	"wa\000"
 1889 0530 0B       		.byte	0xb
 1890 0531 4A       		.byte	0x4a
 1891 0532 CA040000 		.4byte	0x4ca
 1892 0536 0F       		.uleb128 0xf
 1893 0537 B3010000 		.4byte	.LASF80
 1894 053b 0B       		.byte	0xb
 1895 053c 4B       		.byte	0x4b
 1896 053d 42050000 		.4byte	0x542
 1897 0541 00       		.byte	0
 1898 0542 14       		.uleb128 0x14
 1899 0543 97000000 		.4byte	0x97
 1900 0547 53050000 		.4byte	0x553
 1901 054b 18       		.uleb128 0x18
 1902 054c 53030000 		.4byte	0x353
 1903 0550 8F06     		.2byte	0x68f
 1904 0552 00       		.byte	0
 1905 0553 19       		.uleb128 0x19
 1906 0554 17030000 		.4byte	.LASF83
 1907 0558 01       		.byte	0x1
 1908 0559 4C       		.byte	0x4c
 1909 055a 00000000 		.4byte	.LFB8
 1910 055e 9C060000 		.4byte	.LFE8-.LFB8
 1911 0562 01       		.uleb128 0x1
 1912 0563 9C       		.byte	0x9c
 1913 0564 B4120000 		.4byte	0x12b4
 1914 0568 1A       		.uleb128 0x1a
 1915 0569 11020000 		.4byte	.LASF81
 1916 056d 01       		.byte	0x1
 1917 056e 4D       		.byte	0x4d
 1918 056f 0C010000 		.4byte	0x10c
 1919 0573 00000000 		.4byte	.LLST0
 1920 0577 1B       		.uleb128 0x1b
 1921 0578 16020000 		.4byte	.LASF82
 1922 057c 01       		.byte	0x1
 1923 057d 4D       		.byte	0x4d
 1924 057e 0C010000 		.4byte	0x10c
 1925 0582 02       		.uleb128 0x2
 1926 0583 91       		.byte	0x91
 1927 0584 64       		.sleb128 -28
 1928 0585 1C       		.uleb128 0x1c
 1929 0586 6900     		.ascii	"i\000"
 1930 0588 01       		.byte	0x1
 1931 0589 4E       		.byte	0x4e
 1932 058a 2C000000 		.4byte	0x2c
 1933 058e 84010000 		.4byte	.LLST1
ARM GAS  /tmp/ccFQWhDI.s 			page 35


 1934 0592 1D       		.uleb128 0x1d
 1935 0593 7C000000 		.4byte	.LBB2
 1936 0597 06000000 		.4byte	.LBE2-.LBB2
 1937 059b AD050000 		.4byte	0x5ad
 1938 059f 1E       		.uleb128 0x1e
 1939 05a0 746D7000 		.ascii	"tmp\000"
 1940 05a4 01       		.byte	0x1
 1941 05a5 64       		.byte	0x64
 1942 05a6 AD000000 		.4byte	0xad
 1943 05aa 01       		.uleb128 0x1
 1944 05ab 53       		.byte	0x53
 1945 05ac 00       		.byte	0
 1946 05ad 1D       		.uleb128 0x1d
 1947 05ae 94000000 		.4byte	.LBB3
 1948 05b2 06000000 		.4byte	.LBE3-.LBB3
 1949 05b6 C8050000 		.4byte	0x5c8
 1950 05ba 1E       		.uleb128 0x1e
 1951 05bb 746D7000 		.ascii	"tmp\000"
 1952 05bf 01       		.byte	0x1
 1953 05c0 66       		.byte	0x66
 1954 05c1 AD000000 		.4byte	0xad
 1955 05c5 01       		.uleb128 0x1
 1956 05c6 53       		.byte	0x53
 1957 05c7 00       		.byte	0
 1958 05c8 1D       		.uleb128 0x1d
 1959 05c9 CE000000 		.4byte	.LBB4
 1960 05cd 06000000 		.4byte	.LBE4-.LBB4
 1961 05d1 E3050000 		.4byte	0x5e3
 1962 05d5 1E       		.uleb128 0x1e
 1963 05d6 746D7000 		.ascii	"tmp\000"
 1964 05da 01       		.byte	0x1
 1965 05db 6A       		.byte	0x6a
 1966 05dc AD000000 		.4byte	0xad
 1967 05e0 01       		.uleb128 0x1
 1968 05e1 53       		.byte	0x53
 1969 05e2 00       		.byte	0
 1970 05e3 1D       		.uleb128 0x1d
 1971 05e4 E6000000 		.4byte	.LBB5
 1972 05e8 06000000 		.4byte	.LBE5-.LBB5
 1973 05ec FE050000 		.4byte	0x5fe
 1974 05f0 1E       		.uleb128 0x1e
 1975 05f1 746D7000 		.ascii	"tmp\000"
 1976 05f5 01       		.byte	0x1
 1977 05f6 6C       		.byte	0x6c
 1978 05f7 AD000000 		.4byte	0xad
 1979 05fb 01       		.uleb128 0x1
 1980 05fc 53       		.byte	0x53
 1981 05fd 00       		.byte	0
 1982 05fe 1D       		.uleb128 0x1d
 1983 05ff 02010000 		.4byte	.LBB6
 1984 0603 06000000 		.4byte	.LBE6-.LBB6
 1985 0607 19060000 		.4byte	0x619
 1986 060b 1E       		.uleb128 0x1e
 1987 060c 746D7000 		.ascii	"tmp\000"
 1988 0610 01       		.byte	0x1
 1989 0611 72       		.byte	0x72
 1990 0612 AD000000 		.4byte	0xad
ARM GAS  /tmp/ccFQWhDI.s 			page 36


 1991 0616 01       		.uleb128 0x1
 1992 0617 53       		.byte	0x53
 1993 0618 00       		.byte	0
 1994 0619 1D       		.uleb128 0x1d
 1995 061a 22010000 		.4byte	.LBB7
 1996 061e 06000000 		.4byte	.LBE7-.LBB7
 1997 0622 34060000 		.4byte	0x634
 1998 0626 1E       		.uleb128 0x1e
 1999 0627 746D7000 		.ascii	"tmp\000"
 2000 062b 01       		.byte	0x1
 2001 062c 72       		.byte	0x72
 2002 062d AD000000 		.4byte	0xad
 2003 0631 01       		.uleb128 0x1
 2004 0632 53       		.byte	0x53
 2005 0633 00       		.byte	0
 2006 0634 1D       		.uleb128 0x1d
 2007 0635 34010000 		.4byte	.LBB8
 2008 0639 06000000 		.4byte	.LBE8-.LBB8
 2009 063d 4F060000 		.4byte	0x64f
 2010 0641 1E       		.uleb128 0x1e
 2011 0642 746D7000 		.ascii	"tmp\000"
 2012 0646 01       		.byte	0x1
 2013 0647 72       		.byte	0x72
 2014 0648 AD000000 		.4byte	0xad
 2015 064c 01       		.uleb128 0x1
 2016 064d 53       		.byte	0x53
 2017 064e 00       		.byte	0
 2018 064f 1D       		.uleb128 0x1d
 2019 0650 3A010000 		.4byte	.LBB9
 2020 0654 06000000 		.4byte	.LBE9-.LBB9
 2021 0658 6A060000 		.4byte	0x66a
 2022 065c 1E       		.uleb128 0x1e
 2023 065d 746D7000 		.ascii	"tmp\000"
 2024 0661 01       		.byte	0x1
 2025 0662 73       		.byte	0x73
 2026 0663 AD000000 		.4byte	0xad
 2027 0667 01       		.uleb128 0x1
 2028 0668 53       		.byte	0x53
 2029 0669 00       		.byte	0
 2030 066a 1D       		.uleb128 0x1d
 2031 066b 5E010000 		.4byte	.LBB10
 2032 066f 06000000 		.4byte	.LBE10-.LBB10
 2033 0673 85060000 		.4byte	0x685
 2034 0677 1E       		.uleb128 0x1e
 2035 0678 746D7000 		.ascii	"tmp\000"
 2036 067c 01       		.byte	0x1
 2037 067d 73       		.byte	0x73
 2038 067e AD000000 		.4byte	0xad
 2039 0682 01       		.uleb128 0x1
 2040 0683 53       		.byte	0x53
 2041 0684 00       		.byte	0
 2042 0685 1D       		.uleb128 0x1d
 2043 0686 64010000 		.4byte	.LBB11
 2044 068a 06000000 		.4byte	.LBE11-.LBB11
 2045 068e A0060000 		.4byte	0x6a0
 2046 0692 1E       		.uleb128 0x1e
 2047 0693 746D7000 		.ascii	"tmp\000"
ARM GAS  /tmp/ccFQWhDI.s 			page 37


 2048 0697 01       		.byte	0x1
 2049 0698 74       		.byte	0x74
 2050 0699 AD000000 		.4byte	0xad
 2051 069d 01       		.uleb128 0x1
 2052 069e 53       		.byte	0x53
 2053 069f 00       		.byte	0
 2054 06a0 1D       		.uleb128 0x1d
 2055 06a1 88010000 		.4byte	.LBB12
 2056 06a5 08000000 		.4byte	.LBE12-.LBB12
 2057 06a9 BB060000 		.4byte	0x6bb
 2058 06ad 1E       		.uleb128 0x1e
 2059 06ae 746D7000 		.ascii	"tmp\000"
 2060 06b2 01       		.byte	0x1
 2061 06b3 74       		.byte	0x74
 2062 06b4 AD000000 		.4byte	0xad
 2063 06b8 01       		.uleb128 0x1
 2064 06b9 53       		.byte	0x53
 2065 06ba 00       		.byte	0
 2066 06bb 1D       		.uleb128 0x1d
 2067 06bc 54020000 		.4byte	.LBB13
 2068 06c0 06000000 		.4byte	.LBE13-.LBB13
 2069 06c4 D6060000 		.4byte	0x6d6
 2070 06c8 1E       		.uleb128 0x1e
 2071 06c9 746D7000 		.ascii	"tmp\000"
 2072 06cd 01       		.byte	0x1
 2073 06ce 8F       		.byte	0x8f
 2074 06cf AD000000 		.4byte	0xad
 2075 06d3 01       		.uleb128 0x1
 2076 06d4 53       		.byte	0x53
 2077 06d5 00       		.byte	0
 2078 06d6 1D       		.uleb128 0x1d
 2079 06d7 6C020000 		.4byte	.LBB14
 2080 06db 06000000 		.4byte	.LBE14-.LBB14
 2081 06df F1060000 		.4byte	0x6f1
 2082 06e3 1E       		.uleb128 0x1e
 2083 06e4 746D7000 		.ascii	"tmp\000"
 2084 06e8 01       		.byte	0x1
 2085 06e9 91       		.byte	0x91
 2086 06ea AD000000 		.4byte	0xad
 2087 06ee 01       		.uleb128 0x1
 2088 06ef 53       		.byte	0x53
 2089 06f0 00       		.byte	0
 2090 06f1 1D       		.uleb128 0x1d
 2091 06f2 8A020000 		.4byte	.LBB15
 2092 06f6 06000000 		.4byte	.LBE15-.LBB15
 2093 06fa 0C070000 		.4byte	0x70c
 2094 06fe 1E       		.uleb128 0x1e
 2095 06ff 746D7000 		.ascii	"tmp\000"
 2096 0703 01       		.byte	0x1
 2097 0704 97       		.byte	0x97
 2098 0705 AD000000 		.4byte	0xad
 2099 0709 01       		.uleb128 0x1
 2100 070a 53       		.byte	0x53
 2101 070b 00       		.byte	0
 2102 070c 1D       		.uleb128 0x1d
 2103 070d AC020000 		.4byte	.LBB16
 2104 0711 06000000 		.4byte	.LBE16-.LBB16
ARM GAS  /tmp/ccFQWhDI.s 			page 38


 2105 0715 27070000 		.4byte	0x727
 2106 0719 1E       		.uleb128 0x1e
 2107 071a 746D7000 		.ascii	"tmp\000"
 2108 071e 01       		.byte	0x1
 2109 071f 97       		.byte	0x97
 2110 0720 AD000000 		.4byte	0xad
 2111 0724 01       		.uleb128 0x1
 2112 0725 53       		.byte	0x53
 2113 0726 00       		.byte	0
 2114 0727 1D       		.uleb128 0x1d
 2115 0728 B2020000 		.4byte	.LBB17
 2116 072c 06000000 		.4byte	.LBE17-.LBB17
 2117 0730 42070000 		.4byte	0x742
 2118 0734 1E       		.uleb128 0x1e
 2119 0735 746D7000 		.ascii	"tmp\000"
 2120 0739 01       		.byte	0x1
 2121 073a 98       		.byte	0x98
 2122 073b AD000000 		.4byte	0xad
 2123 073f 01       		.uleb128 0x1
 2124 0740 53       		.byte	0x53
 2125 0741 00       		.byte	0
 2126 0742 1D       		.uleb128 0x1d
 2127 0743 D8020000 		.4byte	.LBB18
 2128 0747 06000000 		.4byte	.LBE18-.LBB18
 2129 074b 5D070000 		.4byte	0x75d
 2130 074f 1E       		.uleb128 0x1e
 2131 0750 746D7000 		.ascii	"tmp\000"
 2132 0754 01       		.byte	0x1
 2133 0755 98       		.byte	0x98
 2134 0756 AD000000 		.4byte	0xad
 2135 075a 01       		.uleb128 0x1
 2136 075b 53       		.byte	0x53
 2137 075c 00       		.byte	0
 2138 075d 1D       		.uleb128 0x1d
 2139 075e DE020000 		.4byte	.LBB19
 2140 0762 06000000 		.4byte	.LBE19-.LBB19
 2141 0766 78070000 		.4byte	0x778
 2142 076a 1E       		.uleb128 0x1e
 2143 076b 746D7000 		.ascii	"tmp\000"
 2144 076f 01       		.byte	0x1
 2145 0770 99       		.byte	0x99
 2146 0771 AD000000 		.4byte	0xad
 2147 0775 01       		.uleb128 0x1
 2148 0776 53       		.byte	0x53
 2149 0777 00       		.byte	0
 2150 0778 1D       		.uleb128 0x1d
 2151 0779 04030000 		.4byte	.LBB20
 2152 077d 06000000 		.4byte	.LBE20-.LBB20
 2153 0781 93070000 		.4byte	0x793
 2154 0785 1E       		.uleb128 0x1e
 2155 0786 746D7000 		.ascii	"tmp\000"
 2156 078a 01       		.byte	0x1
 2157 078b 99       		.byte	0x99
 2158 078c AD000000 		.4byte	0xad
 2159 0790 01       		.uleb128 0x1
 2160 0791 53       		.byte	0x53
 2161 0792 00       		.byte	0
ARM GAS  /tmp/ccFQWhDI.s 			page 39


 2162 0793 1D       		.uleb128 0x1d
 2163 0794 0A030000 		.4byte	.LBB21
 2164 0798 06000000 		.4byte	.LBE21-.LBB21
 2165 079c AE070000 		.4byte	0x7ae
 2166 07a0 1E       		.uleb128 0x1e
 2167 07a1 746D7000 		.ascii	"tmp\000"
 2168 07a5 01       		.byte	0x1
 2169 07a6 9E       		.byte	0x9e
 2170 07a7 AD000000 		.4byte	0xad
 2171 07ab 01       		.uleb128 0x1
 2172 07ac 53       		.byte	0x53
 2173 07ad 00       		.byte	0
 2174 07ae 1D       		.uleb128 0x1d
 2175 07af 8C030000 		.4byte	.LBB22
 2176 07b3 06000000 		.4byte	.LBE22-.LBB22
 2177 07b7 C9070000 		.4byte	0x7c9
 2178 07bb 1E       		.uleb128 0x1e
 2179 07bc 746D7000 		.ascii	"tmp\000"
 2180 07c0 01       		.byte	0x1
 2181 07c1 A8       		.byte	0xa8
 2182 07c2 AD000000 		.4byte	0xad
 2183 07c6 01       		.uleb128 0x1
 2184 07c7 53       		.byte	0x53
 2185 07c8 00       		.byte	0
 2186 07c9 1D       		.uleb128 0x1d
 2187 07ca BC030000 		.4byte	.LBB23
 2188 07ce 06000000 		.4byte	.LBE23-.LBB23
 2189 07d2 E4070000 		.4byte	0x7e4
 2190 07d6 1E       		.uleb128 0x1e
 2191 07d7 746D7000 		.ascii	"tmp\000"
 2192 07db 01       		.byte	0x1
 2193 07dc AC       		.byte	0xac
 2194 07dd AD000000 		.4byte	0xad
 2195 07e1 01       		.uleb128 0x1
 2196 07e2 53       		.byte	0x53
 2197 07e3 00       		.byte	0
 2198 07e4 1D       		.uleb128 0x1d
 2199 07e5 D6030000 		.4byte	.LBB24
 2200 07e9 06000000 		.4byte	.LBE24-.LBB24
 2201 07ed FF070000 		.4byte	0x7ff
 2202 07f1 1E       		.uleb128 0x1e
 2203 07f2 746D7000 		.ascii	"tmp\000"
 2204 07f6 01       		.byte	0x1
 2205 07f7 AE       		.byte	0xae
 2206 07f8 AD000000 		.4byte	0xad
 2207 07fc 01       		.uleb128 0x1
 2208 07fd 53       		.byte	0x53
 2209 07fe 00       		.byte	0
 2210 07ff 1D       		.uleb128 0x1d
 2211 0800 08040000 		.4byte	.LBB25
 2212 0804 06000000 		.4byte	.LBE25-.LBB25
 2213 0808 1A080000 		.4byte	0x81a
 2214 080c 1E       		.uleb128 0x1e
 2215 080d 746D7000 		.ascii	"tmp\000"
 2216 0811 01       		.byte	0x1
 2217 0812 B3       		.byte	0xb3
 2218 0813 AD000000 		.4byte	0xad
ARM GAS  /tmp/ccFQWhDI.s 			page 40


 2219 0817 01       		.uleb128 0x1
 2220 0818 53       		.byte	0x53
 2221 0819 00       		.byte	0
 2222 081a 1D       		.uleb128 0x1d
 2223 081b 26040000 		.4byte	.LBB26
 2224 081f 06000000 		.4byte	.LBE26-.LBB26
 2225 0823 35080000 		.4byte	0x835
 2226 0827 1E       		.uleb128 0x1e
 2227 0828 746D7000 		.ascii	"tmp\000"
 2228 082c 01       		.byte	0x1
 2229 082d B3       		.byte	0xb3
 2230 082e AD000000 		.4byte	0xad
 2231 0832 01       		.uleb128 0x1
 2232 0833 53       		.byte	0x53
 2233 0834 00       		.byte	0
 2234 0835 1D       		.uleb128 0x1d
 2235 0836 2C040000 		.4byte	.LBB27
 2236 083a 06000000 		.4byte	.LBE27-.LBB27
 2237 083e 50080000 		.4byte	0x850
 2238 0842 1E       		.uleb128 0x1e
 2239 0843 746D7000 		.ascii	"tmp\000"
 2240 0847 01       		.byte	0x1
 2241 0848 B4       		.byte	0xb4
 2242 0849 AD000000 		.4byte	0xad
 2243 084d 01       		.uleb128 0x1
 2244 084e 53       		.byte	0x53
 2245 084f 00       		.byte	0
 2246 0850 1D       		.uleb128 0x1d
 2247 0851 4A040000 		.4byte	.LBB28
 2248 0855 06000000 		.4byte	.LBE28-.LBB28
 2249 0859 6B080000 		.4byte	0x86b
 2250 085d 1E       		.uleb128 0x1e
 2251 085e 746D7000 		.ascii	"tmp\000"
 2252 0862 01       		.byte	0x1
 2253 0863 B4       		.byte	0xb4
 2254 0864 AD000000 		.4byte	0xad
 2255 0868 01       		.uleb128 0x1
 2256 0869 53       		.byte	0x53
 2257 086a 00       		.byte	0
 2258 086b 1D       		.uleb128 0x1d
 2259 086c 60040000 		.4byte	.LBB29
 2260 0870 06000000 		.4byte	.LBE29-.LBB29
 2261 0874 86080000 		.4byte	0x886
 2262 0878 1E       		.uleb128 0x1e
 2263 0879 746D7000 		.ascii	"tmp\000"
 2264 087d 01       		.byte	0x1
 2265 087e B4       		.byte	0xb4
 2266 087f AD000000 		.4byte	0xad
 2267 0883 01       		.uleb128 0x1
 2268 0884 53       		.byte	0x53
 2269 0885 00       		.byte	0
 2270 0886 1D       		.uleb128 0x1d
 2271 0887 7C040000 		.4byte	.LBB30
 2272 088b 06000000 		.4byte	.LBE30-.LBB30
 2273 088f A1080000 		.4byte	0x8a1
 2274 0893 1E       		.uleb128 0x1e
 2275 0894 746D7000 		.ascii	"tmp\000"
ARM GAS  /tmp/ccFQWhDI.s 			page 41


 2276 0898 01       		.byte	0x1
 2277 0899 B7       		.byte	0xb7
 2278 089a AD000000 		.4byte	0xad
 2279 089e 01       		.uleb128 0x1
 2280 089f 53       		.byte	0x53
 2281 08a0 00       		.byte	0
 2282 08a1 1D       		.uleb128 0x1d
 2283 08a2 FE040000 		.4byte	.LBB31
 2284 08a6 06000000 		.4byte	.LBE31-.LBB31
 2285 08aa BC080000 		.4byte	0x8bc
 2286 08ae 1E       		.uleb128 0x1e
 2287 08af 746D7000 		.ascii	"tmp\000"
 2288 08b3 01       		.byte	0x1
 2289 08b4 C1       		.byte	0xc1
 2290 08b5 AD000000 		.4byte	0xad
 2291 08b9 01       		.uleb128 0x1
 2292 08ba 53       		.byte	0x53
 2293 08bb 00       		.byte	0
 2294 08bc 1D       		.uleb128 0x1d
 2295 08bd 34050000 		.4byte	.LBB32
 2296 08c1 06000000 		.4byte	.LBE32-.LBB32
 2297 08c5 D7080000 		.4byte	0x8d7
 2298 08c9 1E       		.uleb128 0x1e
 2299 08ca 746D7000 		.ascii	"tmp\000"
 2300 08ce 01       		.byte	0x1
 2301 08cf C5       		.byte	0xc5
 2302 08d0 AD000000 		.4byte	0xad
 2303 08d4 01       		.uleb128 0x1
 2304 08d5 53       		.byte	0x53
 2305 08d6 00       		.byte	0
 2306 08d7 1D       		.uleb128 0x1d
 2307 08d8 4E050000 		.4byte	.LBB33
 2308 08dc 06000000 		.4byte	.LBE33-.LBB33
 2309 08e0 F2080000 		.4byte	0x8f2
 2310 08e4 1E       		.uleb128 0x1e
 2311 08e5 746D7000 		.ascii	"tmp\000"
 2312 08e9 01       		.byte	0x1
 2313 08ea C7       		.byte	0xc7
 2314 08eb AD000000 		.4byte	0xad
 2315 08ef 01       		.uleb128 0x1
 2316 08f0 53       		.byte	0x53
 2317 08f1 00       		.byte	0
 2318 08f2 1D       		.uleb128 0x1d
 2319 08f3 80050000 		.4byte	.LBB34
 2320 08f7 06000000 		.4byte	.LBE34-.LBB34
 2321 08fb 0D090000 		.4byte	0x90d
 2322 08ff 1E       		.uleb128 0x1e
 2323 0900 746D7000 		.ascii	"tmp\000"
 2324 0904 01       		.byte	0x1
 2325 0905 CC       		.byte	0xcc
 2326 0906 AD000000 		.4byte	0xad
 2327 090a 01       		.uleb128 0x1
 2328 090b 53       		.byte	0x53
 2329 090c 00       		.byte	0
 2330 090d 1D       		.uleb128 0x1d
 2331 090e A6050000 		.4byte	.LBB35
 2332 0912 06000000 		.4byte	.LBE35-.LBB35
ARM GAS  /tmp/ccFQWhDI.s 			page 42


 2333 0916 28090000 		.4byte	0x928
 2334 091a 1E       		.uleb128 0x1e
 2335 091b 746D7000 		.ascii	"tmp\000"
 2336 091f 01       		.byte	0x1
 2337 0920 CC       		.byte	0xcc
 2338 0921 AD000000 		.4byte	0xad
 2339 0925 01       		.uleb128 0x1
 2340 0926 53       		.byte	0x53
 2341 0927 00       		.byte	0
 2342 0928 1D       		.uleb128 0x1d
 2343 0929 AC050000 		.4byte	.LBB36
 2344 092d 06000000 		.4byte	.LBE36-.LBB36
 2345 0931 43090000 		.4byte	0x943
 2346 0935 1E       		.uleb128 0x1e
 2347 0936 746D7000 		.ascii	"tmp\000"
 2348 093a 01       		.byte	0x1
 2349 093b CD       		.byte	0xcd
 2350 093c AD000000 		.4byte	0xad
 2351 0940 01       		.uleb128 0x1
 2352 0941 53       		.byte	0x53
 2353 0942 00       		.byte	0
 2354 0943 1D       		.uleb128 0x1d
 2355 0944 CC050000 		.4byte	.LBB37
 2356 0948 06000000 		.4byte	.LBE37-.LBB37
 2357 094c 5E090000 		.4byte	0x95e
 2358 0950 1E       		.uleb128 0x1e
 2359 0951 746D7000 		.ascii	"tmp\000"
 2360 0955 01       		.byte	0x1
 2361 0956 CD       		.byte	0xcd
 2362 0957 AD000000 		.4byte	0xad
 2363 095b 01       		.uleb128 0x1
 2364 095c 53       		.byte	0x53
 2365 095d 00       		.byte	0
 2366 095e 1D       		.uleb128 0x1d
 2367 095f EE050000 		.4byte	.LBB38
 2368 0963 06000000 		.4byte	.LBE38-.LBB38
 2369 0967 79090000 		.4byte	0x979
 2370 096b 1E       		.uleb128 0x1e
 2371 096c 746D7000 		.ascii	"tmp\000"
 2372 0970 01       		.byte	0x1
 2373 0971 D8       		.byte	0xd8
 2374 0972 AD000000 		.4byte	0xad
 2375 0976 01       		.uleb128 0x1
 2376 0977 53       		.byte	0x53
 2377 0978 00       		.byte	0
 2378 0979 1D       		.uleb128 0x1d
 2379 097a 0E060000 		.4byte	.LBB39
 2380 097e 06000000 		.4byte	.LBE39-.LBB39
 2381 0982 94090000 		.4byte	0x994
 2382 0986 1E       		.uleb128 0x1e
 2383 0987 746D7000 		.ascii	"tmp\000"
 2384 098b 01       		.byte	0x1
 2385 098c D8       		.byte	0xd8
 2386 098d AD000000 		.4byte	0xad
 2387 0991 01       		.uleb128 0x1
 2388 0992 53       		.byte	0x53
 2389 0993 00       		.byte	0
ARM GAS  /tmp/ccFQWhDI.s 			page 43


 2390 0994 1D       		.uleb128 0x1d
 2391 0995 14060000 		.4byte	.LBB40
 2392 0999 06000000 		.4byte	.LBE40-.LBB40
 2393 099d AF090000 		.4byte	0x9af
 2394 09a1 1E       		.uleb128 0x1e
 2395 09a2 746D7000 		.ascii	"tmp\000"
 2396 09a6 01       		.byte	0x1
 2397 09a7 D9       		.byte	0xd9
 2398 09a8 AD000000 		.4byte	0xad
 2399 09ac 01       		.uleb128 0x1
 2400 09ad 53       		.byte	0x53
 2401 09ae 00       		.byte	0
 2402 09af 1D       		.uleb128 0x1d
 2403 09b0 32060000 		.4byte	.LBB41
 2404 09b4 06000000 		.4byte	.LBE41-.LBB41
 2405 09b8 CA090000 		.4byte	0x9ca
 2406 09bc 1E       		.uleb128 0x1e
 2407 09bd 746D7000 		.ascii	"tmp\000"
 2408 09c1 01       		.byte	0x1
 2409 09c2 D9       		.byte	0xd9
 2410 09c3 AD000000 		.4byte	0xad
 2411 09c7 01       		.uleb128 0x1
 2412 09c8 53       		.byte	0x53
 2413 09c9 00       		.byte	0
 2414 09ca 1D       		.uleb128 0x1d
 2415 09cb 38060000 		.4byte	.LBB42
 2416 09cf 06000000 		.4byte	.LBE42-.LBB42
 2417 09d3 E5090000 		.4byte	0x9e5
 2418 09d7 1E       		.uleb128 0x1e
 2419 09d8 746D7000 		.ascii	"tmp\000"
 2420 09dc 01       		.byte	0x1
 2421 09dd DA       		.byte	0xda
 2422 09de AD000000 		.4byte	0xad
 2423 09e2 01       		.uleb128 0x1
 2424 09e3 53       		.byte	0x53
 2425 09e4 00       		.byte	0
 2426 09e5 1D       		.uleb128 0x1d
 2427 09e6 58060000 		.4byte	.LBB43
 2428 09ea 06000000 		.4byte	.LBE43-.LBB43
 2429 09ee 000A0000 		.4byte	0xa00
 2430 09f2 1E       		.uleb128 0x1e
 2431 09f3 746D7000 		.ascii	"tmp\000"
 2432 09f7 01       		.byte	0x1
 2433 09f8 DA       		.byte	0xda
 2434 09f9 AD000000 		.4byte	0xad
 2435 09fd 01       		.uleb128 0x1
 2436 09fe 53       		.byte	0x53
 2437 09ff 00       		.byte	0
 2438 0a00 1D       		.uleb128 0x1d
 2439 0a01 5E060000 		.4byte	.LBB44
 2440 0a05 06000000 		.4byte	.LBE44-.LBB44
 2441 0a09 1B0A0000 		.4byte	0xa1b
 2442 0a0d 1E       		.uleb128 0x1e
 2443 0a0e 746D7000 		.ascii	"tmp\000"
 2444 0a12 01       		.byte	0x1
 2445 0a13 DB       		.byte	0xdb
 2446 0a14 AD000000 		.4byte	0xad
ARM GAS  /tmp/ccFQWhDI.s 			page 44


 2447 0a18 01       		.uleb128 0x1
 2448 0a19 53       		.byte	0x53
 2449 0a1a 00       		.byte	0
 2450 0a1b 1D       		.uleb128 0x1d
 2451 0a1c 7E060000 		.4byte	.LBB45
 2452 0a20 06000000 		.4byte	.LBE45-.LBB45
 2453 0a24 360A0000 		.4byte	0xa36
 2454 0a28 1E       		.uleb128 0x1e
 2455 0a29 746D7000 		.ascii	"tmp\000"
 2456 0a2d 01       		.byte	0x1
 2457 0a2e DB       		.byte	0xdb
 2458 0a2f AD000000 		.4byte	0xad
 2459 0a33 01       		.uleb128 0x1
 2460 0a34 53       		.byte	0x53
 2461 0a35 00       		.byte	0
 2462 0a36 1D       		.uleb128 0x1d
 2463 0a37 8A060000 		.4byte	.LBB46
 2464 0a3b 06000000 		.4byte	.LBE46-.LBB46
 2465 0a3f 510A0000 		.4byte	0xa51
 2466 0a43 1E       		.uleb128 0x1e
 2467 0a44 746D7000 		.ascii	"tmp\000"
 2468 0a48 01       		.byte	0x1
 2469 0a49 DA       		.byte	0xda
 2470 0a4a AD000000 		.4byte	0xad
 2471 0a4e 01       		.uleb128 0x1
 2472 0a4f 53       		.byte	0x53
 2473 0a50 00       		.byte	0
 2474 0a51 1F       		.uleb128 0x1f
 2475 0a52 18000000 		.4byte	.LVL0
 2476 0a56 40130000 		.4byte	0x1340
 2477 0a5a 640A0000 		.4byte	0xa64
 2478 0a5e 20       		.uleb128 0x20
 2479 0a5f 01       		.uleb128 0x1
 2480 0a60 50       		.byte	0x50
 2481 0a61 01       		.uleb128 0x1
 2482 0a62 31       		.byte	0x31
 2483 0a63 00       		.byte	0
 2484 0a64 1F       		.uleb128 0x1f
 2485 0a65 2A000000 		.4byte	.LVL2
 2486 0a69 5A130000 		.4byte	0x135a
 2487 0a6d 840A0000 		.4byte	0xa84
 2488 0a71 20       		.uleb128 0x20
 2489 0a72 01       		.uleb128 0x1
 2490 0a73 52       		.byte	0x52
 2491 0a74 02       		.uleb128 0x2
 2492 0a75 09       		.byte	0x9
 2493 0a76 FF       		.byte	0xff
 2494 0a77 20       		.uleb128 0x20
 2495 0a78 01       		.uleb128 0x1
 2496 0a79 51       		.byte	0x51
 2497 0a7a 02       		.uleb128 0x2
 2498 0a7b 74       		.byte	0x74
 2499 0a7c 00       		.sleb128 0
 2500 0a7d 20       		.uleb128 0x20
 2501 0a7e 01       		.uleb128 0x1
 2502 0a7f 50       		.byte	0x50
 2503 0a80 02       		.uleb128 0x2
ARM GAS  /tmp/ccFQWhDI.s 			page 45


 2504 0a81 75       		.byte	0x75
 2505 0a82 00       		.sleb128 0
 2506 0a83 00       		.byte	0
 2507 0a84 1F       		.uleb128 0x1f
 2508 0a85 36000000 		.4byte	.LVL4
 2509 0a89 40130000 		.4byte	0x1340
 2510 0a8d 970A0000 		.4byte	0xa97
 2511 0a91 20       		.uleb128 0x20
 2512 0a92 01       		.uleb128 0x1
 2513 0a93 50       		.byte	0x50
 2514 0a94 01       		.uleb128 0x1
 2515 0a95 32       		.byte	0x32
 2516 0a96 00       		.byte	0
 2517 0a97 1F       		.uleb128 0x1f
 2518 0a98 4A000000 		.4byte	.LVL6
 2519 0a9c 7F130000 		.4byte	0x137f
 2520 0aa0 B70A0000 		.4byte	0xab7
 2521 0aa4 20       		.uleb128 0x20
 2522 0aa5 01       		.uleb128 0x1
 2523 0aa6 52       		.byte	0x52
 2524 0aa7 02       		.uleb128 0x2
 2525 0aa8 09       		.byte	0x9
 2526 0aa9 FF       		.byte	0xff
 2527 0aaa 20       		.uleb128 0x20
 2528 0aab 01       		.uleb128 0x1
 2529 0aac 51       		.byte	0x51
 2530 0aad 02       		.uleb128 0x2
 2531 0aae 08       		.byte	0x8
 2532 0aaf 41       		.byte	0x41
 2533 0ab0 20       		.uleb128 0x20
 2534 0ab1 01       		.uleb128 0x1
 2535 0ab2 50       		.byte	0x50
 2536 0ab3 02       		.uleb128 0x2
 2537 0ab4 75       		.byte	0x75
 2538 0ab5 00       		.sleb128 0
 2539 0ab6 00       		.byte	0
 2540 0ab7 1F       		.uleb128 0x1f
 2541 0ab8 56000000 		.4byte	.LVL8
 2542 0abc 40130000 		.4byte	0x1340
 2543 0ac0 CA0A0000 		.4byte	0xaca
 2544 0ac4 20       		.uleb128 0x20
 2545 0ac5 01       		.uleb128 0x1
 2546 0ac6 50       		.byte	0x50
 2547 0ac7 01       		.uleb128 0x1
 2548 0ac8 33       		.byte	0x33
 2549 0ac9 00       		.byte	0
 2550 0aca 1F       		.uleb128 0x1f
 2551 0acb 66000000 		.4byte	.LVL11
 2552 0acf 5A130000 		.4byte	0x135a
 2553 0ad3 E90A0000 		.4byte	0xae9
 2554 0ad7 20       		.uleb128 0x20
 2555 0ad8 01       		.uleb128 0x1
 2556 0ad9 52       		.byte	0x52
 2557 0ada 01       		.uleb128 0x1
 2558 0adb 31       		.byte	0x31
 2559 0adc 20       		.uleb128 0x20
 2560 0add 01       		.uleb128 0x1
ARM GAS  /tmp/ccFQWhDI.s 			page 46


 2561 0ade 51       		.byte	0x51
 2562 0adf 02       		.uleb128 0x2
 2563 0ae0 08       		.byte	0x8
 2564 0ae1 58       		.byte	0x58
 2565 0ae2 20       		.uleb128 0x20
 2566 0ae3 01       		.uleb128 0x1
 2567 0ae4 50       		.byte	0x50
 2568 0ae5 02       		.uleb128 0x2
 2569 0ae6 75       		.byte	0x75
 2570 0ae7 00       		.sleb128 0
 2571 0ae8 00       		.byte	0
 2572 0ae9 1F       		.uleb128 0x1f
 2573 0aea 76000000 		.4byte	.LVL14
 2574 0aee 40130000 		.4byte	0x1340
 2575 0af2 FC0A0000 		.4byte	0xafc
 2576 0af6 20       		.uleb128 0x20
 2577 0af7 01       		.uleb128 0x1
 2578 0af8 50       		.byte	0x50
 2579 0af9 01       		.uleb128 0x1
 2580 0afa 34       		.byte	0x34
 2581 0afb 00       		.byte	0
 2582 0afc 21       		.uleb128 0x21
 2583 0afd 86000000 		.4byte	.LVL16
 2584 0b01 9E130000 		.4byte	0x139e
 2585 0b05 1F       		.uleb128 0x1f
 2586 0b06 8E000000 		.4byte	.LVL17
 2587 0b0a A5130000 		.4byte	0x13a5
 2588 0b0e 1F0B0000 		.4byte	0xb1f
 2589 0b12 20       		.uleb128 0x20
 2590 0b13 01       		.uleb128 0x1
 2591 0b14 51       		.byte	0x51
 2592 0b15 02       		.uleb128 0x2
 2593 0b16 08       		.byte	0x8
 2594 0b17 58       		.byte	0x58
 2595 0b18 20       		.uleb128 0x20
 2596 0b19 01       		.uleb128 0x1
 2597 0b1a 50       		.byte	0x50
 2598 0b1b 02       		.uleb128 0x2
 2599 0b1c 75       		.byte	0x75
 2600 0b1d 00       		.sleb128 0
 2601 0b1e 00       		.byte	0
 2602 0b1f 21       		.uleb128 0x21
 2603 0b20 94000000 		.4byte	.LVL19
 2604 0b24 BF130000 		.4byte	0x13bf
 2605 0b28 1F       		.uleb128 0x1f
 2606 0b29 AA000000 		.4byte	.LVL20
 2607 0b2d 40130000 		.4byte	0x1340
 2608 0b31 440B0000 		.4byte	0xb44
 2609 0b35 20       		.uleb128 0x20
 2610 0b36 01       		.uleb128 0x1
 2611 0b37 51       		.byte	0x51
 2612 0b38 05       		.uleb128 0x5
 2613 0b39 77       		.byte	0x77
 2614 0b3a 00       		.sleb128 0
 2615 0b3b 09       		.byte	0x9
 2616 0b3c FF       		.byte	0xff
 2617 0b3d 29       		.byte	0x29
ARM GAS  /tmp/ccFQWhDI.s 			page 47


 2618 0b3e 20       		.uleb128 0x20
 2619 0b3f 01       		.uleb128 0x1
 2620 0b40 50       		.byte	0x50
 2621 0b41 01       		.uleb128 0x1
 2622 0b42 35       		.byte	0x35
 2623 0b43 00       		.byte	0
 2624 0b44 1F       		.uleb128 0x1f
 2625 0b45 B8000000 		.4byte	.LVL21
 2626 0b49 7F130000 		.4byte	0x137f
 2627 0b4d 630B0000 		.4byte	0xb63
 2628 0b51 20       		.uleb128 0x20
 2629 0b52 01       		.uleb128 0x1
 2630 0b53 52       		.byte	0x52
 2631 0b54 01       		.uleb128 0x1
 2632 0b55 31       		.byte	0x31
 2633 0b56 20       		.uleb128 0x20
 2634 0b57 01       		.uleb128 0x1
 2635 0b58 51       		.byte	0x51
 2636 0b59 02       		.uleb128 0x2
 2637 0b5a 08       		.byte	0x8
 2638 0b5b 58       		.byte	0x58
 2639 0b5c 20       		.uleb128 0x20
 2640 0b5d 01       		.uleb128 0x1
 2641 0b5e 50       		.byte	0x50
 2642 0b5f 02       		.uleb128 0x2
 2643 0b60 75       		.byte	0x75
 2644 0b61 00       		.sleb128 0
 2645 0b62 00       		.byte	0
 2646 0b63 1F       		.uleb128 0x1f
 2647 0b64 C8000000 		.4byte	.LVL24
 2648 0b68 40130000 		.4byte	0x1340
 2649 0b6c 760B0000 		.4byte	0xb76
 2650 0b70 20       		.uleb128 0x20
 2651 0b71 01       		.uleb128 0x1
 2652 0b72 50       		.byte	0x50
 2653 0b73 01       		.uleb128 0x1
 2654 0b74 36       		.byte	0x36
 2655 0b75 00       		.byte	0
 2656 0b76 21       		.uleb128 0x21
 2657 0b77 D8000000 		.4byte	.LVL25
 2658 0b7b 9E130000 		.4byte	0x139e
 2659 0b7f 1F       		.uleb128 0x1f
 2660 0b80 E0000000 		.4byte	.LVL26
 2661 0b84 C6130000 		.4byte	0x13c6
 2662 0b88 990B0000 		.4byte	0xb99
 2663 0b8c 20       		.uleb128 0x20
 2664 0b8d 01       		.uleb128 0x1
 2665 0b8e 51       		.byte	0x51
 2666 0b8f 02       		.uleb128 0x2
 2667 0b90 08       		.byte	0x8
 2668 0b91 58       		.byte	0x58
 2669 0b92 20       		.uleb128 0x20
 2670 0b93 01       		.uleb128 0x1
 2671 0b94 50       		.byte	0x50
 2672 0b95 02       		.uleb128 0x2
 2673 0b96 75       		.byte	0x75
 2674 0b97 00       		.sleb128 0
ARM GAS  /tmp/ccFQWhDI.s 			page 48


 2675 0b98 00       		.byte	0
 2676 0b99 21       		.uleb128 0x21
 2677 0b9a E6000000 		.4byte	.LVL28
 2678 0b9e BF130000 		.4byte	0x13bf
 2679 0ba2 1F       		.uleb128 0x1f
 2680 0ba3 FC000000 		.4byte	.LVL29
 2681 0ba7 40130000 		.4byte	0x1340
 2682 0bab BE0B0000 		.4byte	0xbbe
 2683 0baf 20       		.uleb128 0x20
 2684 0bb0 01       		.uleb128 0x1
 2685 0bb1 51       		.byte	0x51
 2686 0bb2 05       		.uleb128 0x5
 2687 0bb3 77       		.byte	0x77
 2688 0bb4 00       		.sleb128 0
 2689 0bb5 09       		.byte	0x9
 2690 0bb6 FF       		.byte	0xff
 2691 0bb7 29       		.byte	0x29
 2692 0bb8 20       		.uleb128 0x20
 2693 0bb9 01       		.uleb128 0x1
 2694 0bba 50       		.byte	0x50
 2695 0bbb 01       		.uleb128 0x1
 2696 0bbc 37       		.byte	0x37
 2697 0bbd 00       		.byte	0
 2698 0bbe 21       		.uleb128 0x21
 2699 0bbf 0C010000 		.4byte	.LVL31
 2700 0bc3 9E130000 		.4byte	0x139e
 2701 0bc7 1F       		.uleb128 0x1f
 2702 0bc8 1A010000 		.4byte	.LVL32
 2703 0bcc 40130000 		.4byte	0x1340
 2704 0bd0 DA0B0000 		.4byte	0xbda
 2705 0bd4 20       		.uleb128 0x20
 2706 0bd5 01       		.uleb128 0x1
 2707 0bd6 50       		.byte	0x50
 2708 0bd7 01       		.uleb128 0x1
 2709 0bd8 38       		.byte	0x38
 2710 0bd9 00       		.byte	0
 2711 0bda 21       		.uleb128 0x21
 2712 0bdb 22010000 		.4byte	.LVL33
 2713 0bdf BF130000 		.4byte	0x13bf
 2714 0be3 21       		.uleb128 0x21
 2715 0be4 34010000 		.4byte	.LVL34
 2716 0be8 BF130000 		.4byte	0x13bf
 2717 0bec 21       		.uleb128 0x21
 2718 0bed 44010000 		.4byte	.LVL35
 2719 0bf1 9E130000 		.4byte	0x139e
 2720 0bf5 1F       		.uleb128 0x1f
 2721 0bf6 52010000 		.4byte	.LVL36
 2722 0bfa 40130000 		.4byte	0x1340
 2723 0bfe 100C0000 		.4byte	0xc10
 2724 0c02 20       		.uleb128 0x20
 2725 0c03 01       		.uleb128 0x1
 2726 0c04 51       		.byte	0x51
 2727 0c05 04       		.uleb128 0x4
 2728 0c06 77       		.byte	0x77
 2729 0c07 00       		.sleb128 0
 2730 0c08 30       		.byte	0x30
 2731 0c09 29       		.byte	0x29
ARM GAS  /tmp/ccFQWhDI.s 			page 49


 2732 0c0a 20       		.uleb128 0x20
 2733 0c0b 01       		.uleb128 0x1
 2734 0c0c 50       		.byte	0x50
 2735 0c0d 01       		.uleb128 0x1
 2736 0c0e 39       		.byte	0x39
 2737 0c0f 00       		.byte	0
 2738 0c10 21       		.uleb128 0x21
 2739 0c11 5E010000 		.4byte	.LVL37
 2740 0c15 BF130000 		.4byte	0x13bf
 2741 0c19 21       		.uleb128 0x21
 2742 0c1a 6E010000 		.4byte	.LVL38
 2743 0c1e 9E130000 		.4byte	0x139e
 2744 0c22 1F       		.uleb128 0x1f
 2745 0c23 7E010000 		.4byte	.LVL39
 2746 0c27 40130000 		.4byte	0x1340
 2747 0c2b 3D0C0000 		.4byte	0xc3d
 2748 0c2f 20       		.uleb128 0x20
 2749 0c30 01       		.uleb128 0x1
 2750 0c31 51       		.byte	0x51
 2751 0c32 04       		.uleb128 0x4
 2752 0c33 74       		.byte	0x74
 2753 0c34 00       		.sleb128 0
 2754 0c35 30       		.byte	0x30
 2755 0c36 29       		.byte	0x29
 2756 0c37 20       		.uleb128 0x20
 2757 0c38 01       		.uleb128 0x1
 2758 0c39 50       		.byte	0x50
 2759 0c3a 01       		.uleb128 0x1
 2760 0c3b 3A       		.byte	0x3a
 2761 0c3c 00       		.byte	0
 2762 0c3d 21       		.uleb128 0x21
 2763 0c3e 88010000 		.4byte	.LVL40
 2764 0c42 BF130000 		.4byte	0x13bf
 2765 0c46 1F       		.uleb128 0x1f
 2766 0c47 9E010000 		.4byte	.LVL43
 2767 0c4b E0130000 		.4byte	0x13e0
 2768 0c4f 660C0000 		.4byte	0xc66
 2769 0c53 20       		.uleb128 0x20
 2770 0c54 01       		.uleb128 0x1
 2771 0c55 52       		.byte	0x52
 2772 0c56 02       		.uleb128 0x2
 2773 0c57 09       		.byte	0x9
 2774 0c58 FF       		.byte	0xff
 2775 0c59 20       		.uleb128 0x20
 2776 0c5a 01       		.uleb128 0x1
 2777 0c5b 51       		.byte	0x51
 2778 0c5c 02       		.uleb128 0x2
 2779 0c5d 91       		.byte	0x91
 2780 0c5e 64       		.sleb128 -28
 2781 0c5f 20       		.uleb128 0x20
 2782 0c60 01       		.uleb128 0x1
 2783 0c61 50       		.byte	0x50
 2784 0c62 02       		.uleb128 0x2
 2785 0c63 74       		.byte	0x74
 2786 0c64 00       		.sleb128 0
 2787 0c65 00       		.byte	0
 2788 0c66 1F       		.uleb128 0x1f
ARM GAS  /tmp/ccFQWhDI.s 			page 50


 2789 0c67 AA010000 		.4byte	.LVL45
 2790 0c6b 40130000 		.4byte	0x1340
 2791 0c6f 790C0000 		.4byte	0xc79
 2792 0c73 20       		.uleb128 0x20
 2793 0c74 01       		.uleb128 0x1
 2794 0c75 50       		.byte	0x50
 2795 0c76 01       		.uleb128 0x1
 2796 0c77 3B       		.byte	0x3b
 2797 0c78 00       		.byte	0
 2798 0c79 21       		.uleb128 0x21
 2799 0c7a B8010000 		.4byte	.LVL46
 2800 0c7e FF130000 		.4byte	0x13ff
 2801 0c82 1F       		.uleb128 0x1f
 2802 0c83 C4010000 		.4byte	.LVL48
 2803 0c87 10140000 		.4byte	0x1410
 2804 0c8b 9E0C0000 		.4byte	0xc9e
 2805 0c8f 20       		.uleb128 0x20
 2806 0c90 01       		.uleb128 0x1
 2807 0c91 51       		.byte	0x51
 2808 0c92 05       		.uleb128 0x5
 2809 0c93 03       		.byte	0x3
 2810 0c94 00000000 		.4byte	.LC0
 2811 0c98 20       		.uleb128 0x20
 2812 0c99 01       		.uleb128 0x1
 2813 0c9a 50       		.byte	0x50
 2814 0c9b 01       		.uleb128 0x1
 2815 0c9c 3C       		.byte	0x3c
 2816 0c9d 00       		.byte	0
 2817 0c9e 1F       		.uleb128 0x1f
 2818 0c9f D6010000 		.4byte	.LVL49
 2819 0ca3 5A130000 		.4byte	0x135a
 2820 0ca7 BE0C0000 		.4byte	0xcbe
 2821 0cab 20       		.uleb128 0x20
 2822 0cac 01       		.uleb128 0x1
 2823 0cad 52       		.byte	0x52
 2824 0cae 02       		.uleb128 0x2
 2825 0caf 09       		.byte	0x9
 2826 0cb0 FF       		.byte	0xff
 2827 0cb1 20       		.uleb128 0x20
 2828 0cb2 01       		.uleb128 0x1
 2829 0cb3 51       		.byte	0x51
 2830 0cb4 02       		.uleb128 0x2
 2831 0cb5 08       		.byte	0x8
 2832 0cb6 47       		.byte	0x47
 2833 0cb7 20       		.uleb128 0x20
 2834 0cb8 01       		.uleb128 0x1
 2835 0cb9 50       		.byte	0x50
 2836 0cba 02       		.uleb128 0x2
 2837 0cbb 74       		.byte	0x74
 2838 0cbc 00       		.sleb128 0
 2839 0cbd 00       		.byte	0
 2840 0cbe 1F       		.uleb128 0x1f
 2841 0cbf E2010000 		.4byte	.LVL51
 2842 0cc3 40130000 		.4byte	0x1340
 2843 0cc7 D10C0000 		.4byte	0xcd1
 2844 0ccb 20       		.uleb128 0x20
 2845 0ccc 01       		.uleb128 0x1
ARM GAS  /tmp/ccFQWhDI.s 			page 51


 2846 0ccd 50       		.byte	0x50
 2847 0cce 01       		.uleb128 0x1
 2848 0ccf 3D       		.byte	0x3d
 2849 0cd0 00       		.byte	0
 2850 0cd1 1F       		.uleb128 0x1f
 2851 0cd2 F4010000 		.4byte	.LVL52
 2852 0cd6 E0130000 		.4byte	0x13e0
 2853 0cda F10C0000 		.4byte	0xcf1
 2854 0cde 20       		.uleb128 0x20
 2855 0cdf 01       		.uleb128 0x1
 2856 0ce0 52       		.byte	0x52
 2857 0ce1 02       		.uleb128 0x2
 2858 0ce2 09       		.byte	0x9
 2859 0ce3 FF       		.byte	0xff
 2860 0ce4 20       		.uleb128 0x20
 2861 0ce5 01       		.uleb128 0x1
 2862 0ce6 51       		.byte	0x51
 2863 0ce7 02       		.uleb128 0x2
 2864 0ce8 91       		.byte	0x91
 2865 0ce9 64       		.sleb128 -28
 2866 0cea 20       		.uleb128 0x20
 2867 0ceb 01       		.uleb128 0x1
 2868 0cec 50       		.byte	0x50
 2869 0ced 02       		.uleb128 0x2
 2870 0cee 74       		.byte	0x74
 2871 0cef 00       		.sleb128 0
 2872 0cf0 00       		.byte	0
 2873 0cf1 1F       		.uleb128 0x1f
 2874 0cf2 00020000 		.4byte	.LVL54
 2875 0cf6 40130000 		.4byte	0x1340
 2876 0cfa 040D0000 		.4byte	0xd04
 2877 0cfe 20       		.uleb128 0x20
 2878 0cff 01       		.uleb128 0x1
 2879 0d00 50       		.byte	0x50
 2880 0d01 01       		.uleb128 0x1
 2881 0d02 3E       		.byte	0x3e
 2882 0d03 00       		.byte	0
 2883 0d04 1F       		.uleb128 0x1f
 2884 0d05 16020000 		.4byte	.LVL55
 2885 0d09 40130000 		.4byte	0x1340
 2886 0d0d 170D0000 		.4byte	0xd17
 2887 0d11 20       		.uleb128 0x20
 2888 0d12 01       		.uleb128 0x1
 2889 0d13 50       		.byte	0x50
 2890 0d14 01       		.uleb128 0x1
 2891 0d15 3F       		.byte	0x3f
 2892 0d16 00       		.byte	0
 2893 0d17 1F       		.uleb128 0x1f
 2894 0d18 2C020000 		.4byte	.LVL56
 2895 0d1c 40130000 		.4byte	0x1340
 2896 0d20 2A0D0000 		.4byte	0xd2a
 2897 0d24 20       		.uleb128 0x20
 2898 0d25 01       		.uleb128 0x1
 2899 0d26 50       		.byte	0x50
 2900 0d27 01       		.uleb128 0x1
 2901 0d28 40       		.byte	0x40
 2902 0d29 00       		.byte	0
ARM GAS  /tmp/ccFQWhDI.s 			page 52


 2903 0d2a 1F       		.uleb128 0x1f
 2904 0d2b 3C020000 		.4byte	.LVL57
 2905 0d2f E0130000 		.4byte	0x13e0
 2906 0d33 490D0000 		.4byte	0xd49
 2907 0d37 20       		.uleb128 0x20
 2908 0d38 01       		.uleb128 0x1
 2909 0d39 52       		.byte	0x52
 2910 0d3a 01       		.uleb128 0x1
 2911 0d3b 31       		.byte	0x31
 2912 0d3c 20       		.uleb128 0x20
 2913 0d3d 01       		.uleb128 0x1
 2914 0d3e 51       		.byte	0x51
 2915 0d3f 02       		.uleb128 0x2
 2916 0d40 91       		.byte	0x91
 2917 0d41 64       		.sleb128 -28
 2918 0d42 20       		.uleb128 0x20
 2919 0d43 01       		.uleb128 0x1
 2920 0d44 50       		.byte	0x50
 2921 0d45 02       		.uleb128 0x2
 2922 0d46 74       		.byte	0x74
 2923 0d47 00       		.sleb128 0
 2924 0d48 00       		.byte	0
 2925 0d49 1F       		.uleb128 0x1f
 2926 0d4a 4E020000 		.4byte	.LVL59
 2927 0d4e 40130000 		.4byte	0x1340
 2928 0d52 5C0D0000 		.4byte	0xd5c
 2929 0d56 20       		.uleb128 0x20
 2930 0d57 01       		.uleb128 0x1
 2931 0d58 50       		.byte	0x50
 2932 0d59 01       		.uleb128 0x1
 2933 0d5a 41       		.byte	0x41
 2934 0d5b 00       		.byte	0
 2935 0d5c 21       		.uleb128 0x21
 2936 0d5d 5E020000 		.4byte	.LVL60
 2937 0d61 9E130000 		.4byte	0x139e
 2938 0d65 1F       		.uleb128 0x1f
 2939 0d66 66020000 		.4byte	.LVL61
 2940 0d6a 30140000 		.4byte	0x1430
 2941 0d6e 7F0D0000 		.4byte	0xd7f
 2942 0d72 20       		.uleb128 0x20
 2943 0d73 01       		.uleb128 0x1
 2944 0d74 51       		.byte	0x51
 2945 0d75 02       		.uleb128 0x2
 2946 0d76 91       		.byte	0x91
 2947 0d77 64       		.sleb128 -28
 2948 0d78 20       		.uleb128 0x20
 2949 0d79 01       		.uleb128 0x1
 2950 0d7a 50       		.byte	0x50
 2951 0d7b 02       		.uleb128 0x2
 2952 0d7c 74       		.byte	0x74
 2953 0d7d 00       		.sleb128 0
 2954 0d7e 00       		.byte	0
 2955 0d7f 21       		.uleb128 0x21
 2956 0d80 6C020000 		.4byte	.LVL63
 2957 0d84 BF130000 		.4byte	0x13bf
 2958 0d88 1F       		.uleb128 0x1f
 2959 0d89 84020000 		.4byte	.LVL64
ARM GAS  /tmp/ccFQWhDI.s 			page 53


 2960 0d8d 40130000 		.4byte	0x1340
 2961 0d91 A40D0000 		.4byte	0xda4
 2962 0d95 20       		.uleb128 0x20
 2963 0d96 01       		.uleb128 0x1
 2964 0d97 51       		.byte	0x51
 2965 0d98 05       		.uleb128 0x5
 2966 0d99 77       		.byte	0x77
 2967 0d9a 00       		.sleb128 0
 2968 0d9b 09       		.byte	0x9
 2969 0d9c FF       		.byte	0xff
 2970 0d9d 29       		.byte	0x29
 2971 0d9e 20       		.uleb128 0x20
 2972 0d9f 01       		.uleb128 0x1
 2973 0da0 50       		.byte	0x50
 2974 0da1 01       		.uleb128 0x1
 2975 0da2 42       		.byte	0x42
 2976 0da3 00       		.byte	0
 2977 0da4 21       		.uleb128 0x21
 2978 0da5 94020000 		.4byte	.LVL65
 2979 0da9 9E130000 		.4byte	0x139e
 2980 0dad 1F       		.uleb128 0x1f
 2981 0dae A2020000 		.4byte	.LVL67
 2982 0db2 40130000 		.4byte	0x1340
 2983 0db6 C80D0000 		.4byte	0xdc8
 2984 0dba 20       		.uleb128 0x20
 2985 0dbb 01       		.uleb128 0x1
 2986 0dbc 51       		.byte	0x51
 2987 0dbd 04       		.uleb128 0x4
 2988 0dbe 77       		.byte	0x77
 2989 0dbf 00       		.sleb128 0
 2990 0dc0 30       		.byte	0x30
 2991 0dc1 29       		.byte	0x29
 2992 0dc2 20       		.uleb128 0x20
 2993 0dc3 01       		.uleb128 0x1
 2994 0dc4 50       		.byte	0x50
 2995 0dc5 01       		.uleb128 0x1
 2996 0dc6 43       		.byte	0x43
 2997 0dc7 00       		.byte	0
 2998 0dc8 21       		.uleb128 0x21
 2999 0dc9 AC020000 		.4byte	.LVL68
 3000 0dcd BF130000 		.4byte	0x13bf
 3001 0dd1 21       		.uleb128 0x21
 3002 0dd2 BC020000 		.4byte	.LVL69
 3003 0dd6 9E130000 		.4byte	0x139e
 3004 0dda 1F       		.uleb128 0x1f
 3005 0ddb CA020000 		.4byte	.LVL70
 3006 0ddf 40130000 		.4byte	0x1340
 3007 0de3 ED0D0000 		.4byte	0xded
 3008 0de7 20       		.uleb128 0x20
 3009 0de8 01       		.uleb128 0x1
 3010 0de9 50       		.byte	0x50
 3011 0dea 01       		.uleb128 0x1
 3012 0deb 44       		.byte	0x44
 3013 0dec 00       		.byte	0
 3014 0ded 21       		.uleb128 0x21
 3015 0dee D8020000 		.4byte	.LVL72
 3016 0df2 BF130000 		.4byte	0x13bf
ARM GAS  /tmp/ccFQWhDI.s 			page 54


 3017 0df6 21       		.uleb128 0x21
 3018 0df7 E8020000 		.4byte	.LVL73
 3019 0dfb 9E130000 		.4byte	0x139e
 3020 0dff 1F       		.uleb128 0x1f
 3021 0e00 F8020000 		.4byte	.LVL74
 3022 0e04 40130000 		.4byte	0x1340
 3023 0e08 1A0E0000 		.4byte	0xe1a
 3024 0e0c 20       		.uleb128 0x20
 3025 0e0d 01       		.uleb128 0x1
 3026 0e0e 51       		.byte	0x51
 3027 0e0f 04       		.uleb128 0x4
 3028 0e10 76       		.byte	0x76
 3029 0e11 00       		.sleb128 0
 3030 0e12 30       		.byte	0x30
 3031 0e13 29       		.byte	0x29
 3032 0e14 20       		.uleb128 0x20
 3033 0e15 01       		.uleb128 0x1
 3034 0e16 50       		.byte	0x50
 3035 0e17 01       		.uleb128 0x1
 3036 0e18 45       		.byte	0x45
 3037 0e19 00       		.byte	0
 3038 0e1a 21       		.uleb128 0x21
 3039 0e1b 04030000 		.4byte	.LVL75
 3040 0e1f BF130000 		.4byte	0x13bf
 3041 0e23 21       		.uleb128 0x21
 3042 0e24 14030000 		.4byte	.LVL76
 3043 0e28 9E130000 		.4byte	0x139e
 3044 0e2c 1F       		.uleb128 0x1f
 3045 0e2d 1C030000 		.4byte	.LVL77
 3046 0e31 A5130000 		.4byte	0x13a5
 3047 0e35 460E0000 		.4byte	0xe46
 3048 0e39 20       		.uleb128 0x20
 3049 0e3a 01       		.uleb128 0x1
 3050 0e3b 51       		.byte	0x51
 3051 0e3c 02       		.uleb128 0x2
 3052 0e3d 08       		.byte	0x8
 3053 0e3e 41       		.byte	0x41
 3054 0e3f 20       		.uleb128 0x20
 3055 0e40 01       		.uleb128 0x1
 3056 0e41 50       		.byte	0x50
 3057 0e42 02       		.uleb128 0x2
 3058 0e43 74       		.byte	0x74
 3059 0e44 00       		.sleb128 0
 3060 0e45 00       		.byte	0
 3061 0e46 1F       		.uleb128 0x1f
 3062 0e47 28030000 		.4byte	.LVL79
 3063 0e4b 40130000 		.4byte	0x1340
 3064 0e4f 590E0000 		.4byte	0xe59
 3065 0e53 20       		.uleb128 0x20
 3066 0e54 01       		.uleb128 0x1
 3067 0e55 50       		.byte	0x50
 3068 0e56 01       		.uleb128 0x1
 3069 0e57 46       		.byte	0x46
 3070 0e58 00       		.byte	0
 3071 0e59 1F       		.uleb128 0x1f
 3072 0e5a 36030000 		.4byte	.LVL80
 3073 0e5e A5130000 		.4byte	0x13a5
ARM GAS  /tmp/ccFQWhDI.s 			page 55


 3074 0e62 730E0000 		.4byte	0xe73
 3075 0e66 20       		.uleb128 0x20
 3076 0e67 01       		.uleb128 0x1
 3077 0e68 51       		.byte	0x51
 3078 0e69 02       		.uleb128 0x2
 3079 0e6a 08       		.byte	0x8
 3080 0e6b 42       		.byte	0x42
 3081 0e6c 20       		.uleb128 0x20
 3082 0e6d 01       		.uleb128 0x1
 3083 0e6e 50       		.byte	0x50
 3084 0e6f 02       		.uleb128 0x2
 3085 0e70 74       		.byte	0x74
 3086 0e71 00       		.sleb128 0
 3087 0e72 00       		.byte	0
 3088 0e73 1F       		.uleb128 0x1f
 3089 0e74 42030000 		.4byte	.LVL82
 3090 0e78 40130000 		.4byte	0x1340
 3091 0e7c 860E0000 		.4byte	0xe86
 3092 0e80 20       		.uleb128 0x20
 3093 0e81 01       		.uleb128 0x1
 3094 0e82 50       		.byte	0x50
 3095 0e83 01       		.uleb128 0x1
 3096 0e84 47       		.byte	0x47
 3097 0e85 00       		.byte	0
 3098 0e86 1F       		.uleb128 0x1f
 3099 0e87 50030000 		.4byte	.LVL83
 3100 0e8b A5130000 		.4byte	0x13a5
 3101 0e8f A00E0000 		.4byte	0xea0
 3102 0e93 20       		.uleb128 0x20
 3103 0e94 01       		.uleb128 0x1
 3104 0e95 51       		.byte	0x51
 3105 0e96 02       		.uleb128 0x2
 3106 0e97 08       		.byte	0x8
 3107 0e98 43       		.byte	0x43
 3108 0e99 20       		.uleb128 0x20
 3109 0e9a 01       		.uleb128 0x1
 3110 0e9b 50       		.byte	0x50
 3111 0e9c 02       		.uleb128 0x2
 3112 0e9d 74       		.byte	0x74
 3113 0e9e 00       		.sleb128 0
 3114 0e9f 00       		.byte	0
 3115 0ea0 1F       		.uleb128 0x1f
 3116 0ea1 5C030000 		.4byte	.LVL85
 3117 0ea5 40130000 		.4byte	0x1340
 3118 0ea9 B30E0000 		.4byte	0xeb3
 3119 0ead 20       		.uleb128 0x20
 3120 0eae 01       		.uleb128 0x1
 3121 0eaf 50       		.byte	0x50
 3122 0eb0 01       		.uleb128 0x1
 3123 0eb1 48       		.byte	0x48
 3124 0eb2 00       		.byte	0
 3125 0eb3 1F       		.uleb128 0x1f
 3126 0eb4 6A030000 		.4byte	.LVL86
 3127 0eb8 A5130000 		.4byte	0x13a5
 3128 0ebc CD0E0000 		.4byte	0xecd
 3129 0ec0 20       		.uleb128 0x20
 3130 0ec1 01       		.uleb128 0x1
ARM GAS  /tmp/ccFQWhDI.s 			page 56


 3131 0ec2 51       		.byte	0x51
 3132 0ec3 02       		.uleb128 0x2
 3133 0ec4 08       		.byte	0x8
 3134 0ec5 44       		.byte	0x44
 3135 0ec6 20       		.uleb128 0x20
 3136 0ec7 01       		.uleb128 0x1
 3137 0ec8 50       		.byte	0x50
 3138 0ec9 02       		.uleb128 0x2
 3139 0eca 74       		.byte	0x74
 3140 0ecb 00       		.sleb128 0
 3141 0ecc 00       		.byte	0
 3142 0ecd 1F       		.uleb128 0x1f
 3143 0ece 76030000 		.4byte	.LVL88
 3144 0ed2 40130000 		.4byte	0x1340
 3145 0ed6 E00E0000 		.4byte	0xee0
 3146 0eda 20       		.uleb128 0x20
 3147 0edb 01       		.uleb128 0x1
 3148 0edc 50       		.byte	0x50
 3149 0edd 01       		.uleb128 0x1
 3150 0ede 49       		.byte	0x49
 3151 0edf 00       		.byte	0
 3152 0ee0 1F       		.uleb128 0x1f
 3153 0ee1 86030000 		.4byte	.LVL89
 3154 0ee5 A5130000 		.4byte	0x13a5
 3155 0ee9 FA0E0000 		.4byte	0xefa
 3156 0eed 20       		.uleb128 0x20
 3157 0eee 01       		.uleb128 0x1
 3158 0eef 51       		.byte	0x51
 3159 0ef0 02       		.uleb128 0x2
 3160 0ef1 08       		.byte	0x8
 3161 0ef2 45       		.byte	0x45
 3162 0ef3 20       		.uleb128 0x20
 3163 0ef4 01       		.uleb128 0x1
 3164 0ef5 50       		.byte	0x50
 3165 0ef6 02       		.uleb128 0x2
 3166 0ef7 74       		.byte	0x74
 3167 0ef8 00       		.sleb128 0
 3168 0ef9 00       		.byte	0
 3169 0efa 21       		.uleb128 0x21
 3170 0efb 8C030000 		.4byte	.LVL91
 3171 0eff BF130000 		.4byte	0x13bf
 3172 0f03 1F       		.uleb128 0x1f
 3173 0f04 9E030000 		.4byte	.LVL92
 3174 0f08 40130000 		.4byte	0x1340
 3175 0f0c 1E0F0000 		.4byte	0xf1e
 3176 0f10 20       		.uleb128 0x20
 3177 0f11 01       		.uleb128 0x1
 3178 0f12 51       		.byte	0x51
 3179 0f13 04       		.uleb128 0x4
 3180 0f14 76       		.byte	0x76
 3181 0f15 00       		.sleb128 0
 3182 0f16 30       		.byte	0x30
 3183 0f17 29       		.byte	0x29
 3184 0f18 20       		.uleb128 0x20
 3185 0f19 01       		.uleb128 0x1
 3186 0f1a 50       		.byte	0x50
 3187 0f1b 01       		.uleb128 0x1
ARM GAS  /tmp/ccFQWhDI.s 			page 57


 3188 0f1c 4A       		.byte	0x4a
 3189 0f1d 00       		.byte	0
 3190 0f1e 1F       		.uleb128 0x1f
 3191 0f1f B4030000 		.4byte	.LVL93
 3192 0f23 40130000 		.4byte	0x1340
 3193 0f27 390F0000 		.4byte	0xf39
 3194 0f2b 20       		.uleb128 0x20
 3195 0f2c 01       		.uleb128 0x1
 3196 0f2d 51       		.byte	0x51
 3197 0f2e 04       		.uleb128 0x4
 3198 0f2f 74       		.byte	0x74
 3199 0f30 00       		.sleb128 0
 3200 0f31 30       		.byte	0x30
 3201 0f32 29       		.byte	0x29
 3202 0f33 20       		.uleb128 0x20
 3203 0f34 01       		.uleb128 0x1
 3204 0f35 50       		.byte	0x50
 3205 0f36 01       		.uleb128 0x1
 3206 0f37 4B       		.byte	0x4b
 3207 0f38 00       		.byte	0
 3208 0f39 21       		.uleb128 0x21
 3209 0f3a C8030000 		.4byte	.LVL95
 3210 0f3e 9E130000 		.4byte	0x139e
 3211 0f42 1F       		.uleb128 0x1f
 3212 0f43 D0030000 		.4byte	.LVL96
 3213 0f47 30140000 		.4byte	0x1430
 3214 0f4b 5C0F0000 		.4byte	0xf5c
 3215 0f4f 20       		.uleb128 0x20
 3216 0f50 01       		.uleb128 0x1
 3217 0f51 51       		.byte	0x51
 3218 0f52 02       		.uleb128 0x2
 3219 0f53 91       		.byte	0x91
 3220 0f54 64       		.sleb128 -28
 3221 0f55 20       		.uleb128 0x20
 3222 0f56 01       		.uleb128 0x1
 3223 0f57 50       		.byte	0x50
 3224 0f58 02       		.uleb128 0x2
 3225 0f59 74       		.byte	0x74
 3226 0f5a 00       		.sleb128 0
 3227 0f5b 00       		.byte	0
 3228 0f5c 21       		.uleb128 0x21
 3229 0f5d D6030000 		.4byte	.LVL98
 3230 0f61 BF130000 		.4byte	0x13bf
 3231 0f65 1F       		.uleb128 0x1f
 3232 0f66 E8030000 		.4byte	.LVL99
 3233 0f6a 40130000 		.4byte	0x1340
 3234 0f6e 800F0000 		.4byte	0xf80
 3235 0f72 20       		.uleb128 0x20
 3236 0f73 01       		.uleb128 0x1
 3237 0f74 51       		.byte	0x51
 3238 0f75 04       		.uleb128 0x4
 3239 0f76 76       		.byte	0x76
 3240 0f77 00       		.sleb128 0
 3241 0f78 30       		.byte	0x30
 3242 0f79 29       		.byte	0x29
 3243 0f7a 20       		.uleb128 0x20
 3244 0f7b 01       		.uleb128 0x1
ARM GAS  /tmp/ccFQWhDI.s 			page 58


 3245 0f7c 50       		.byte	0x50
 3246 0f7d 01       		.uleb128 0x1
 3247 0f7e 4C       		.byte	0x4c
 3248 0f7f 00       		.byte	0
 3249 0f80 21       		.uleb128 0x21
 3250 0f81 F6030000 		.4byte	.LVL100
 3251 0f85 FF130000 		.4byte	0x13ff
 3252 0f89 1F       		.uleb128 0x1f
 3253 0f8a 02040000 		.4byte	.LVL102
 3254 0f8e 10140000 		.4byte	0x1410
 3255 0f92 A50F0000 		.4byte	0xfa5
 3256 0f96 20       		.uleb128 0x20
 3257 0f97 01       		.uleb128 0x1
 3258 0f98 51       		.byte	0x51
 3259 0f99 05       		.uleb128 0x5
 3260 0f9a 03       		.byte	0x3
 3261 0f9b 00000000 		.4byte	.LC0
 3262 0f9f 20       		.uleb128 0x20
 3263 0fa0 01       		.uleb128 0x1
 3264 0fa1 50       		.byte	0x50
 3265 0fa2 01       		.uleb128 0x1
 3266 0fa3 4D       		.byte	0x4d
 3267 0fa4 00       		.byte	0
 3268 0fa5 21       		.uleb128 0x21
 3269 0fa6 12040000 		.4byte	.LVL103
 3270 0faa 9E130000 		.4byte	0x139e
 3271 0fae 1F       		.uleb128 0x1f
 3272 0faf 20040000 		.4byte	.LVL104
 3273 0fb3 40130000 		.4byte	0x1340
 3274 0fb7 C10F0000 		.4byte	0xfc1
 3275 0fbb 20       		.uleb128 0x20
 3276 0fbc 01       		.uleb128 0x1
 3277 0fbd 50       		.byte	0x50
 3278 0fbe 01       		.uleb128 0x1
 3279 0fbf 4E       		.byte	0x4e
 3280 0fc0 00       		.byte	0
 3281 0fc1 21       		.uleb128 0x21
 3282 0fc2 26040000 		.4byte	.LVL105
 3283 0fc6 BF130000 		.4byte	0x13bf
 3284 0fca 21       		.uleb128 0x21
 3285 0fcb 36040000 		.4byte	.LVL106
 3286 0fcf 9E130000 		.4byte	0x139e
 3287 0fd3 1F       		.uleb128 0x1f
 3288 0fd4 44040000 		.4byte	.LVL107
 3289 0fd8 40130000 		.4byte	0x1340
 3290 0fdc E60F0000 		.4byte	0xfe6
 3291 0fe0 20       		.uleb128 0x20
 3292 0fe1 01       		.uleb128 0x1
 3293 0fe2 50       		.byte	0x50
 3294 0fe3 01       		.uleb128 0x1
 3295 0fe4 4F       		.byte	0x4f
 3296 0fe5 00       		.byte	0
 3297 0fe6 21       		.uleb128 0x21
 3298 0fe7 4A040000 		.4byte	.LVL109
 3299 0feb BF130000 		.4byte	0x13bf
 3300 0fef 21       		.uleb128 0x21
 3301 0ff0 60040000 		.4byte	.LVL111
ARM GAS  /tmp/ccFQWhDI.s 			page 59


 3302 0ff4 BF130000 		.4byte	0x13bf
 3303 0ff8 1F       		.uleb128 0x1f
 3304 0ff9 76040000 		.4byte	.LVL112
 3305 0ffd 40130000 		.4byte	0x1340
 3306 1001 0C100000 		.4byte	0x100c
 3307 1005 20       		.uleb128 0x20
 3308 1006 01       		.uleb128 0x1
 3309 1007 50       		.byte	0x50
 3310 1008 02       		.uleb128 0x2
 3311 1009 08       		.byte	0x8
 3312 100a 20       		.byte	0x20
 3313 100b 00       		.byte	0
 3314 100c 21       		.uleb128 0x21
 3315 100d 86040000 		.4byte	.LVL113
 3316 1011 9E130000 		.4byte	0x139e
 3317 1015 1F       		.uleb128 0x1f
 3318 1016 8E040000 		.4byte	.LVL114
 3319 101a C6130000 		.4byte	0x13c6
 3320 101e 2F100000 		.4byte	0x102f
 3321 1022 20       		.uleb128 0x20
 3322 1023 01       		.uleb128 0x1
 3323 1024 51       		.byte	0x51
 3324 1025 02       		.uleb128 0x2
 3325 1026 08       		.byte	0x8
 3326 1027 45       		.byte	0x45
 3327 1028 20       		.uleb128 0x20
 3328 1029 01       		.uleb128 0x1
 3329 102a 50       		.byte	0x50
 3330 102b 02       		.uleb128 0x2
 3331 102c 74       		.byte	0x74
 3332 102d 00       		.sleb128 0
 3333 102e 00       		.byte	0
 3334 102f 1F       		.uleb128 0x1f
 3335 1030 9A040000 		.4byte	.LVL116
 3336 1034 40130000 		.4byte	0x1340
 3337 1038 43100000 		.4byte	0x1043
 3338 103c 20       		.uleb128 0x20
 3339 103d 01       		.uleb128 0x1
 3340 103e 50       		.byte	0x50
 3341 103f 02       		.uleb128 0x2
 3342 1040 08       		.byte	0x8
 3343 1041 21       		.byte	0x21
 3344 1042 00       		.byte	0
 3345 1043 1F       		.uleb128 0x1f
 3346 1044 A8040000 		.4byte	.LVL117
 3347 1048 C6130000 		.4byte	0x13c6
 3348 104c 5D100000 		.4byte	0x105d
 3349 1050 20       		.uleb128 0x20
 3350 1051 01       		.uleb128 0x1
 3351 1052 51       		.byte	0x51
 3352 1053 02       		.uleb128 0x2
 3353 1054 08       		.byte	0x8
 3354 1055 44       		.byte	0x44
 3355 1056 20       		.uleb128 0x20
 3356 1057 01       		.uleb128 0x1
 3357 1058 50       		.byte	0x50
 3358 1059 02       		.uleb128 0x2
ARM GAS  /tmp/ccFQWhDI.s 			page 60


 3359 105a 74       		.byte	0x74
 3360 105b 00       		.sleb128 0
 3361 105c 00       		.byte	0
 3362 105d 1F       		.uleb128 0x1f
 3363 105e B4040000 		.4byte	.LVL119
 3364 1062 40130000 		.4byte	0x1340
 3365 1066 71100000 		.4byte	0x1071
 3366 106a 20       		.uleb128 0x20
 3367 106b 01       		.uleb128 0x1
 3368 106c 50       		.byte	0x50
 3369 106d 02       		.uleb128 0x2
 3370 106e 08       		.byte	0x8
 3371 106f 22       		.byte	0x22
 3372 1070 00       		.byte	0
 3373 1071 1F       		.uleb128 0x1f
 3374 1072 C2040000 		.4byte	.LVL120
 3375 1076 C6130000 		.4byte	0x13c6
 3376 107a 8B100000 		.4byte	0x108b
 3377 107e 20       		.uleb128 0x20
 3378 107f 01       		.uleb128 0x1
 3379 1080 51       		.byte	0x51
 3380 1081 02       		.uleb128 0x2
 3381 1082 08       		.byte	0x8
 3382 1083 43       		.byte	0x43
 3383 1084 20       		.uleb128 0x20
 3384 1085 01       		.uleb128 0x1
 3385 1086 50       		.byte	0x50
 3386 1087 02       		.uleb128 0x2
 3387 1088 74       		.byte	0x74
 3388 1089 00       		.sleb128 0
 3389 108a 00       		.byte	0
 3390 108b 1F       		.uleb128 0x1f
 3391 108c CE040000 		.4byte	.LVL122
 3392 1090 40130000 		.4byte	0x1340
 3393 1094 9F100000 		.4byte	0x109f
 3394 1098 20       		.uleb128 0x20
 3395 1099 01       		.uleb128 0x1
 3396 109a 50       		.byte	0x50
 3397 109b 02       		.uleb128 0x2
 3398 109c 08       		.byte	0x8
 3399 109d 23       		.byte	0x23
 3400 109e 00       		.byte	0
 3401 109f 1F       		.uleb128 0x1f
 3402 10a0 DC040000 		.4byte	.LVL123
 3403 10a4 C6130000 		.4byte	0x13c6
 3404 10a8 B9100000 		.4byte	0x10b9
 3405 10ac 20       		.uleb128 0x20
 3406 10ad 01       		.uleb128 0x1
 3407 10ae 51       		.byte	0x51
 3408 10af 02       		.uleb128 0x2
 3409 10b0 08       		.byte	0x8
 3410 10b1 42       		.byte	0x42
 3411 10b2 20       		.uleb128 0x20
 3412 10b3 01       		.uleb128 0x1
 3413 10b4 50       		.byte	0x50
 3414 10b5 02       		.uleb128 0x2
 3415 10b6 74       		.byte	0x74
ARM GAS  /tmp/ccFQWhDI.s 			page 61


 3416 10b7 00       		.sleb128 0
 3417 10b8 00       		.byte	0
 3418 10b9 1F       		.uleb128 0x1f
 3419 10ba E8040000 		.4byte	.LVL125
 3420 10be 40130000 		.4byte	0x1340
 3421 10c2 CD100000 		.4byte	0x10cd
 3422 10c6 20       		.uleb128 0x20
 3423 10c7 01       		.uleb128 0x1
 3424 10c8 50       		.byte	0x50
 3425 10c9 02       		.uleb128 0x2
 3426 10ca 08       		.byte	0x8
 3427 10cb 24       		.byte	0x24
 3428 10cc 00       		.byte	0
 3429 10cd 1F       		.uleb128 0x1f
 3430 10ce F8040000 		.4byte	.LVL126
 3431 10d2 C6130000 		.4byte	0x13c6
 3432 10d6 E7100000 		.4byte	0x10e7
 3433 10da 20       		.uleb128 0x20
 3434 10db 01       		.uleb128 0x1
 3435 10dc 51       		.byte	0x51
 3436 10dd 02       		.uleb128 0x2
 3437 10de 08       		.byte	0x8
 3438 10df 41       		.byte	0x41
 3439 10e0 20       		.uleb128 0x20
 3440 10e1 01       		.uleb128 0x1
 3441 10e2 50       		.byte	0x50
 3442 10e3 02       		.uleb128 0x2
 3443 10e4 74       		.byte	0x74
 3444 10e5 00       		.sleb128 0
 3445 10e6 00       		.byte	0
 3446 10e7 21       		.uleb128 0x21
 3447 10e8 FE040000 		.4byte	.LVL128
 3448 10ec BF130000 		.4byte	0x13bf
 3449 10f0 1F       		.uleb128 0x1f
 3450 10f1 10050000 		.4byte	.LVL129
 3451 10f5 40130000 		.4byte	0x1340
 3452 10f9 0C110000 		.4byte	0x110c
 3453 10fd 20       		.uleb128 0x20
 3454 10fe 01       		.uleb128 0x1
 3455 10ff 51       		.byte	0x51
 3456 1100 04       		.uleb128 0x4
 3457 1101 75       		.byte	0x75
 3458 1102 00       		.sleb128 0
 3459 1103 30       		.byte	0x30
 3460 1104 29       		.byte	0x29
 3461 1105 20       		.uleb128 0x20
 3462 1106 01       		.uleb128 0x1
 3463 1107 50       		.byte	0x50
 3464 1108 02       		.uleb128 0x2
 3465 1109 08       		.byte	0x8
 3466 110a 25       		.byte	0x25
 3467 110b 00       		.byte	0
 3468 110c 1F       		.uleb128 0x1f
 3469 110d 2C050000 		.4byte	.LVL130
 3470 1111 40130000 		.4byte	0x1340
 3471 1115 20110000 		.4byte	0x1120
 3472 1119 20       		.uleb128 0x20
ARM GAS  /tmp/ccFQWhDI.s 			page 62


 3473 111a 01       		.uleb128 0x1
 3474 111b 50       		.byte	0x50
 3475 111c 02       		.uleb128 0x2
 3476 111d 08       		.byte	0x8
 3477 111e 26       		.byte	0x26
 3478 111f 00       		.byte	0
 3479 1120 21       		.uleb128 0x21
 3480 1121 40050000 		.4byte	.LVL132
 3481 1125 9E130000 		.4byte	0x139e
 3482 1129 1F       		.uleb128 0x1f
 3483 112a 48050000 		.4byte	.LVL133
 3484 112e 30140000 		.4byte	0x1430
 3485 1132 43110000 		.4byte	0x1143
 3486 1136 20       		.uleb128 0x20
 3487 1137 01       		.uleb128 0x1
 3488 1138 51       		.byte	0x51
 3489 1139 02       		.uleb128 0x2
 3490 113a 91       		.byte	0x91
 3491 113b 64       		.sleb128 -28
 3492 113c 20       		.uleb128 0x20
 3493 113d 01       		.uleb128 0x1
 3494 113e 50       		.byte	0x50
 3495 113f 02       		.uleb128 0x2
 3496 1140 75       		.byte	0x75
 3497 1141 00       		.sleb128 0
 3498 1142 00       		.byte	0
 3499 1143 21       		.uleb128 0x21
 3500 1144 4E050000 		.4byte	.LVL135
 3501 1148 BF130000 		.4byte	0x13bf
 3502 114c 1F       		.uleb128 0x1f
 3503 114d 60050000 		.4byte	.LVL136
 3504 1151 40130000 		.4byte	0x1340
 3505 1155 68110000 		.4byte	0x1168
 3506 1159 20       		.uleb128 0x20
 3507 115a 01       		.uleb128 0x1
 3508 115b 51       		.byte	0x51
 3509 115c 04       		.uleb128 0x4
 3510 115d 76       		.byte	0x76
 3511 115e 00       		.sleb128 0
 3512 115f 30       		.byte	0x30
 3513 1160 29       		.byte	0x29
 3514 1161 20       		.uleb128 0x20
 3515 1162 01       		.uleb128 0x1
 3516 1163 50       		.byte	0x50
 3517 1164 02       		.uleb128 0x2
 3518 1165 08       		.byte	0x8
 3519 1166 27       		.byte	0x27
 3520 1167 00       		.byte	0
 3521 1168 21       		.uleb128 0x21
 3522 1169 6E050000 		.4byte	.LVL137
 3523 116d FF130000 		.4byte	0x13ff
 3524 1171 1F       		.uleb128 0x1f
 3525 1172 7A050000 		.4byte	.LVL139
 3526 1176 10140000 		.4byte	0x1410
 3527 117a 8E110000 		.4byte	0x118e
 3528 117e 20       		.uleb128 0x20
 3529 117f 01       		.uleb128 0x1
ARM GAS  /tmp/ccFQWhDI.s 			page 63


 3530 1180 51       		.byte	0x51
 3531 1181 05       		.uleb128 0x5
 3532 1182 03       		.byte	0x3
 3533 1183 00000000 		.4byte	.LC0
 3534 1187 20       		.uleb128 0x20
 3535 1188 01       		.uleb128 0x1
 3536 1189 50       		.byte	0x50
 3537 118a 02       		.uleb128 0x2
 3538 118b 08       		.byte	0x8
 3539 118c 28       		.byte	0x28
 3540 118d 00       		.byte	0
 3541 118e 21       		.uleb128 0x21
 3542 118f 8A050000 		.4byte	.LVL140
 3543 1193 9E130000 		.4byte	0x139e
 3544 1197 1F       		.uleb128 0x1f
 3545 1198 9E050000 		.4byte	.LVL141
 3546 119c 40130000 		.4byte	0x1340
 3547 11a0 AB110000 		.4byte	0x11ab
 3548 11a4 20       		.uleb128 0x20
 3549 11a5 01       		.uleb128 0x1
 3550 11a6 50       		.byte	0x50
 3551 11a7 02       		.uleb128 0x2
 3552 11a8 08       		.byte	0x8
 3553 11a9 29       		.byte	0x29
 3554 11aa 00       		.byte	0
 3555 11ab 21       		.uleb128 0x21
 3556 11ac A6050000 		.4byte	.LVL142
 3557 11b0 BF130000 		.4byte	0x13bf
 3558 11b4 21       		.uleb128 0x21
 3559 11b5 B6050000 		.4byte	.LVL143
 3560 11b9 9E130000 		.4byte	0x139e
 3561 11bd 1F       		.uleb128 0x1f
 3562 11be C4050000 		.4byte	.LVL144
 3563 11c2 40130000 		.4byte	0x1340
 3564 11c6 D1110000 		.4byte	0x11d1
 3565 11ca 20       		.uleb128 0x20
 3566 11cb 01       		.uleb128 0x1
 3567 11cc 50       		.byte	0x50
 3568 11cd 02       		.uleb128 0x2
 3569 11ce 08       		.byte	0x8
 3570 11cf 2A       		.byte	0x2a
 3571 11d0 00       		.byte	0
 3572 11d1 21       		.uleb128 0x21
 3573 11d2 CC050000 		.4byte	.LVL145
 3574 11d6 BF130000 		.4byte	0x13bf
 3575 11da 1F       		.uleb128 0x1f
 3576 11db E2050000 		.4byte	.LVL146
 3577 11df 40130000 		.4byte	0x1340
 3578 11e3 F6110000 		.4byte	0x11f6
 3579 11e7 20       		.uleb128 0x20
 3580 11e8 01       		.uleb128 0x1
 3581 11e9 51       		.byte	0x51
 3582 11ea 04       		.uleb128 0x4
 3583 11eb 77       		.byte	0x77
 3584 11ec 00       		.sleb128 0
 3585 11ed 30       		.byte	0x30
 3586 11ee 29       		.byte	0x29
ARM GAS  /tmp/ccFQWhDI.s 			page 64


 3587 11ef 20       		.uleb128 0x20
 3588 11f0 01       		.uleb128 0x1
 3589 11f1 50       		.byte	0x50
 3590 11f2 02       		.uleb128 0x2
 3591 11f3 08       		.byte	0x8
 3592 11f4 2B       		.byte	0x2b
 3593 11f5 00       		.byte	0
 3594 11f6 1F       		.uleb128 0x1f
 3595 11f7 EE050000 		.4byte	.LVL147
 3596 11fb 4A140000 		.4byte	0x144a
 3597 11ff 0A120000 		.4byte	0x120a
 3598 1203 20       		.uleb128 0x20
 3599 1204 01       		.uleb128 0x1
 3600 1205 50       		.byte	0x50
 3601 1206 02       		.uleb128 0x2
 3602 1207 75       		.byte	0x75
 3603 1208 00       		.sleb128 0
 3604 1209 00       		.byte	0
 3605 120a 21       		.uleb128 0x21
 3606 120b F8050000 		.4byte	.LVL148
 3607 120f 9E130000 		.4byte	0x139e
 3608 1213 1F       		.uleb128 0x1f
 3609 1214 06060000 		.4byte	.LVL150
 3610 1218 40130000 		.4byte	0x1340
 3611 121c 2F120000 		.4byte	0x122f
 3612 1220 20       		.uleb128 0x20
 3613 1221 01       		.uleb128 0x1
 3614 1222 51       		.byte	0x51
 3615 1223 04       		.uleb128 0x4
 3616 1224 76       		.byte	0x76
 3617 1225 00       		.sleb128 0
 3618 1226 30       		.byte	0x30
 3619 1227 29       		.byte	0x29
 3620 1228 20       		.uleb128 0x20
 3621 1229 01       		.uleb128 0x1
 3622 122a 50       		.byte	0x50
 3623 122b 02       		.uleb128 0x2
 3624 122c 08       		.byte	0x8
 3625 122d 2C       		.byte	0x2c
 3626 122e 00       		.byte	0
 3627 122f 21       		.uleb128 0x21
 3628 1230 0E060000 		.4byte	.LVL151
 3629 1234 BF130000 		.4byte	0x13bf
 3630 1238 21       		.uleb128 0x21
 3631 1239 1E060000 		.4byte	.LVL152
 3632 123d 9E130000 		.4byte	0x139e
 3633 1241 1F       		.uleb128 0x1f
 3634 1242 2C060000 		.4byte	.LVL153
 3635 1246 40130000 		.4byte	0x1340
 3636 124a 55120000 		.4byte	0x1255
 3637 124e 20       		.uleb128 0x20
 3638 124f 01       		.uleb128 0x1
 3639 1250 50       		.byte	0x50
 3640 1251 02       		.uleb128 0x2
 3641 1252 08       		.byte	0x8
 3642 1253 2D       		.byte	0x2d
 3643 1254 00       		.byte	0
ARM GAS  /tmp/ccFQWhDI.s 			page 65


 3644 1255 21       		.uleb128 0x21
 3645 1256 32060000 		.4byte	.LVL154
 3646 125a BF130000 		.4byte	0x13bf
 3647 125e 21       		.uleb128 0x21
 3648 125f 42060000 		.4byte	.LVL155
 3649 1263 9E130000 		.4byte	0x139e
 3650 1267 1F       		.uleb128 0x1f
 3651 1268 52060000 		.4byte	.LVL156
 3652 126c 40130000 		.4byte	0x1340
 3653 1270 7B120000 		.4byte	0x127b
 3654 1274 20       		.uleb128 0x20
 3655 1275 01       		.uleb128 0x1
 3656 1276 50       		.byte	0x50
 3657 1277 02       		.uleb128 0x2
 3658 1278 08       		.byte	0x8
 3659 1279 2E       		.byte	0x2e
 3660 127a 00       		.byte	0
 3661 127b 21       		.uleb128 0x21
 3662 127c 58060000 		.4byte	.LVL157
 3663 1280 BF130000 		.4byte	0x13bf
 3664 1284 21       		.uleb128 0x21
 3665 1285 68060000 		.4byte	.LVL158
 3666 1289 9E130000 		.4byte	0x139e
 3667 128d 1F       		.uleb128 0x1f
 3668 128e 7A060000 		.4byte	.LVL159
 3669 1292 40130000 		.4byte	0x1340
 3670 1296 A1120000 		.4byte	0x12a1
 3671 129a 20       		.uleb128 0x20
 3672 129b 01       		.uleb128 0x1
 3673 129c 50       		.byte	0x50
 3674 129d 02       		.uleb128 0x2
 3675 129e 08       		.byte	0x8
 3676 129f 2F       		.byte	0x2f
 3677 12a0 00       		.byte	0
 3678 12a1 21       		.uleb128 0x21
 3679 12a2 7E060000 		.4byte	.LVL160
 3680 12a6 BF130000 		.4byte	0x13bf
 3681 12aa 21       		.uleb128 0x21
 3682 12ab 8A060000 		.4byte	.LVL161
 3683 12af BF130000 		.4byte	0x13bf
 3684 12b3 00       		.byte	0
 3685 12b4 19       		.uleb128 0x19
 3686 12b5 81020000 		.4byte	.LASF84
 3687 12b9 01       		.byte	0x1
 3688 12ba 47       		.byte	0x47
 3689 12bb 00000000 		.4byte	.LFB7
 3690 12bf 14000000 		.4byte	.LFE7-.LFB7
 3691 12c3 01       		.uleb128 0x1
 3692 12c4 9C       		.byte	0x9c
 3693 12c5 E2120000 		.4byte	0x12e2
 3694 12c9 22       		.uleb128 0x22
 3695 12ca 0A000000 		.4byte	.LVL162
 3696 12ce 5B140000 		.4byte	0x145b
 3697 12d2 20       		.uleb128 0x20
 3698 12d3 01       		.uleb128 0x1
 3699 12d4 52       		.byte	0x52
 3700 12d5 01       		.uleb128 0x1
ARM GAS  /tmp/ccFQWhDI.s 			page 66


 3701 12d6 35       		.byte	0x35
 3702 12d7 20       		.uleb128 0x20
 3703 12d8 01       		.uleb128 0x1
 3704 12d9 50       		.byte	0x50
 3705 12da 05       		.uleb128 0x5
 3706 12db 03       		.byte	0x3
 3707 12dc 00000000 		.4byte	.LANCHOR0
 3708 12e0 00       		.byte	0
 3709 12e1 00       		.byte	0
 3710 12e2 1E       		.uleb128 0x1e
 3711 12e3 6D623100 		.ascii	"mb1\000"
 3712 12e7 01       		.byte	0x1
 3713 12e8 3C       		.byte	0x3c
 3714 12e9 28040000 		.4byte	0x428
 3715 12ed 05       		.uleb128 0x5
 3716 12ee 03       		.byte	0x3
 3717 12ef 00000000 		.4byte	mb1
 3718 12f3 23       		.uleb128 0x23
 3719 12f4 14010000 		.4byte	.LASF85
 3720 12f8 0B       		.byte	0xb
 3721 12f9 A6       		.byte	0xa6
 3722 12fa 1F050000 		.4byte	0x51f
 3723 12fe 24       		.uleb128 0x24
 3724 12ff AB020000 		.4byte	.LASF86
 3725 1303 01       		.byte	0x1
 3726 1304 DE       		.byte	0xde
 3727 1305 0F130000 		.4byte	0x130f
 3728 1309 05       		.uleb128 0x5
 3729 130a 03       		.byte	0x3
 3730 130b 00000000 		.4byte	testmbox1
 3731 130f 10       		.uleb128 0x10
 3732 1310 86040000 		.4byte	0x486
 3733 1314 14       		.uleb128 0x14
 3734 1315 24130000 		.4byte	0x1324
 3735 1319 24130000 		.4byte	0x1324
 3736 131d 15       		.uleb128 0x15
 3737 131e 53030000 		.4byte	0x353
 3738 1322 01       		.byte	0x1
 3739 1323 00       		.byte	0
 3740 1324 09       		.uleb128 0x9
 3741 1325 04       		.byte	0x4
 3742 1326 0F130000 		.4byte	0x130f
 3743 132a 24       		.uleb128 0x24
 3744 132b DE010000 		.4byte	.LASF87
 3745 132f 01       		.byte	0x1
 3746 1330 EA       		.byte	0xea
 3747 1331 3B130000 		.4byte	0x133b
 3748 1335 05       		.uleb128 0x5
 3749 1336 03       		.byte	0x3
 3750 1337 00000000 		.4byte	patternmbox
 3751 133b 10       		.uleb128 0x10
 3752 133c 14130000 		.4byte	0x1314
 3753 1340 25       		.uleb128 0x25
 3754 1341 EE040000 		.4byte	.LASF88
 3755 1345 0B       		.byte	0xb
 3756 1346 58       		.byte	0x58
 3757 1347 C3000000 		.4byte	0xc3
ARM GAS  /tmp/ccFQWhDI.s 			page 67


 3758 134b 5A130000 		.4byte	0x135a
 3759 134f 26       		.uleb128 0x26
 3760 1350 2C000000 		.4byte	0x2c
 3761 1354 26       		.uleb128 0x26
 3762 1355 C3000000 		.4byte	0xc3
 3763 1359 00       		.byte	0
 3764 135a 25       		.uleb128 0x25
 3765 135b 74010000 		.4byte	.LASF89
 3766 135f 0A       		.byte	0xa
 3767 1360 45       		.byte	0x45
 3768 1361 0C010000 		.4byte	0x10c
 3769 1365 79130000 		.4byte	0x1379
 3770 1369 26       		.uleb128 0x26
 3771 136a 79130000 		.4byte	0x1379
 3772 136e 26       		.uleb128 0x26
 3773 136f 0C010000 		.4byte	0x10c
 3774 1373 26       		.uleb128 0x26
 3775 1374 22010000 		.4byte	0x122
 3776 1378 00       		.byte	0
 3777 1379 09       		.uleb128 0x9
 3778 137a 04       		.byte	0x4
 3779 137b 28040000 		.4byte	0x428
 3780 137f 25       		.uleb128 0x25
 3781 1380 85040000 		.4byte	.LASF90
 3782 1384 0A       		.byte	0xa
 3783 1385 48       		.byte	0x48
 3784 1386 0C010000 		.4byte	0x10c
 3785 138a 9E130000 		.4byte	0x139e
 3786 138e 26       		.uleb128 0x26
 3787 138f 79130000 		.4byte	0x1379
 3788 1393 26       		.uleb128 0x26
 3789 1394 0C010000 		.4byte	0x10c
 3790 1398 26       		.uleb128 0x26
 3791 1399 22010000 		.4byte	0x122
 3792 139d 00       		.byte	0
 3793 139e 27       		.uleb128 0x27
 3794 139f 25030000 		.4byte	.LASF92
 3795 13a3 0C       		.byte	0xc
 3796 13a4 E7       		.byte	0xe7
 3797 13a5 25       		.uleb128 0x25
 3798 13a6 20000000 		.4byte	.LASF91
 3799 13aa 0A       		.byte	0xa
 3800 13ab 47       		.byte	0x47
 3801 13ac 0C010000 		.4byte	0x10c
 3802 13b0 BF130000 		.4byte	0x13bf
 3803 13b4 26       		.uleb128 0x26
 3804 13b5 79130000 		.4byte	0x1379
 3805 13b9 26       		.uleb128 0x26
 3806 13ba 0C010000 		.4byte	0x10c
 3807 13be 00       		.byte	0
 3808 13bf 27       		.uleb128 0x27
 3809 13c0 34030000 		.4byte	.LASF93
 3810 13c4 0C       		.byte	0xc
 3811 13c5 E8       		.byte	0xe8
 3812 13c6 25       		.uleb128 0x25
 3813 13c7 32000000 		.4byte	.LASF94
 3814 13cb 0A       		.byte	0xa
ARM GAS  /tmp/ccFQWhDI.s 			page 68


 3815 13cc 4A       		.byte	0x4a
 3816 13cd 0C010000 		.4byte	0x10c
 3817 13d1 E0130000 		.4byte	0x13e0
 3818 13d5 26       		.uleb128 0x26
 3819 13d6 79130000 		.4byte	0x1379
 3820 13da 26       		.uleb128 0x26
 3821 13db 0C010000 		.4byte	0x10c
 3822 13df 00       		.byte	0
 3823 13e0 25       		.uleb128 0x25
 3824 13e1 A5040000 		.4byte	.LASF95
 3825 13e5 0A       		.byte	0xa
 3826 13e6 4B       		.byte	0x4b
 3827 13e7 0C010000 		.4byte	0x10c
 3828 13eb FF130000 		.4byte	0x13ff
 3829 13ef 26       		.uleb128 0x26
 3830 13f0 79130000 		.4byte	0x1379
 3831 13f4 26       		.uleb128 0x26
 3832 13f5 22040000 		.4byte	0x422
 3833 13f9 26       		.uleb128 0x26
 3834 13fa 22010000 		.4byte	0x122
 3835 13fe 00       		.byte	0
 3836 13ff 28       		.uleb128 0x28
 3837 1400 5A010000 		.4byte	.LASF98
 3838 1404 0B       		.byte	0xb
 3839 1405 56       		.byte	0x56
 3840 1406 10140000 		.4byte	0x1410
 3841 140a 26       		.uleb128 0x26
 3842 140b 73040000 		.4byte	0x473
 3843 140f 00       		.byte	0
 3844 1410 25       		.uleb128 0x25
 3845 1411 F7020000 		.4byte	.LASF96
 3846 1415 0B       		.byte	0xb
 3847 1416 59       		.byte	0x59
 3848 1417 C3000000 		.4byte	0xc3
 3849 141b 2A140000 		.4byte	0x142a
 3850 141f 26       		.uleb128 0x26
 3851 1420 2C000000 		.4byte	0x2c
 3852 1424 26       		.uleb128 0x26
 3853 1425 2A140000 		.4byte	0x142a
 3854 1429 00       		.byte	0
 3855 142a 09       		.uleb128 0x9
 3856 142b 04       		.byte	0x4
 3857 142c 73040000 		.4byte	0x473
 3858 1430 25       		.uleb128 0x25
 3859 1431 68020000 		.4byte	.LASF97
 3860 1435 0A       		.byte	0xa
 3861 1436 4D       		.byte	0x4d
 3862 1437 0C010000 		.4byte	0x10c
 3863 143b 4A140000 		.4byte	0x144a
 3864 143f 26       		.uleb128 0x26
 3865 1440 79130000 		.4byte	0x1379
 3866 1444 26       		.uleb128 0x26
 3867 1445 22040000 		.4byte	0x422
 3868 1449 00       		.byte	0
 3869 144a 28       		.uleb128 0x28
 3870 144b D2020000 		.4byte	.LASF99
 3871 144f 0A       		.byte	0xa
ARM GAS  /tmp/ccFQWhDI.s 			page 69


 3872 1450 44       		.byte	0x44
 3873 1451 5B140000 		.4byte	0x145b
 3874 1455 26       		.uleb128 0x26
 3875 1456 79130000 		.4byte	0x1379
 3876 145a 00       		.byte	0
 3877 145b 29       		.uleb128 0x29
 3878 145c 08020000 		.4byte	.LASF104
 3879 1460 0A       		.byte	0xa
 3880 1461 43       		.byte	0x43
 3881 1462 26       		.uleb128 0x26
 3882 1463 79130000 		.4byte	0x1379
 3883 1467 26       		.uleb128 0x26
 3884 1468 22040000 		.4byte	0x422
 3885 146c 26       		.uleb128 0x26
 3886 146d 2D010000 		.4byte	0x12d
 3887 1471 00       		.byte	0
 3888 1472 00       		.byte	0
 3889              		.section	.debug_abbrev,"",%progbits
 3890              	.Ldebug_abbrev0:
 3891 0000 01       		.uleb128 0x1
 3892 0001 11       		.uleb128 0x11
 3893 0002 01       		.byte	0x1
 3894 0003 25       		.uleb128 0x25
 3895 0004 0E       		.uleb128 0xe
 3896 0005 13       		.uleb128 0x13
 3897 0006 0B       		.uleb128 0xb
 3898 0007 03       		.uleb128 0x3
 3899 0008 0E       		.uleb128 0xe
 3900 0009 1B       		.uleb128 0x1b
 3901 000a 0E       		.uleb128 0xe
 3902 000b 55       		.uleb128 0x55
 3903 000c 17       		.uleb128 0x17
 3904 000d 11       		.uleb128 0x11
 3905 000e 01       		.uleb128 0x1
 3906 000f 10       		.uleb128 0x10
 3907 0010 17       		.uleb128 0x17
 3908 0011 00       		.byte	0
 3909 0012 00       		.byte	0
 3910 0013 02       		.uleb128 0x2
 3911 0014 24       		.uleb128 0x24
 3912 0015 00       		.byte	0
 3913 0016 0B       		.uleb128 0xb
 3914 0017 0B       		.uleb128 0xb
 3915 0018 3E       		.uleb128 0x3e
 3916 0019 0B       		.uleb128 0xb
 3917 001a 03       		.uleb128 0x3
 3918 001b 08       		.uleb128 0x8
 3919 001c 00       		.byte	0
 3920 001d 00       		.byte	0
 3921 001e 03       		.uleb128 0x3
 3922 001f 24       		.uleb128 0x24
 3923 0020 00       		.byte	0
 3924 0021 0B       		.uleb128 0xb
 3925 0022 0B       		.uleb128 0xb
 3926 0023 3E       		.uleb128 0x3e
 3927 0024 0B       		.uleb128 0xb
 3928 0025 03       		.uleb128 0x3
ARM GAS  /tmp/ccFQWhDI.s 			page 70


 3929 0026 0E       		.uleb128 0xe
 3930 0027 00       		.byte	0
 3931 0028 00       		.byte	0
 3932 0029 04       		.uleb128 0x4
 3933 002a 16       		.uleb128 0x16
 3934 002b 00       		.byte	0
 3935 002c 03       		.uleb128 0x3
 3936 002d 0E       		.uleb128 0xe
 3937 002e 3A       		.uleb128 0x3a
 3938 002f 0B       		.uleb128 0xb
 3939 0030 3B       		.uleb128 0x3b
 3940 0031 0B       		.uleb128 0xb
 3941 0032 49       		.uleb128 0x49
 3942 0033 13       		.uleb128 0x13
 3943 0034 00       		.byte	0
 3944 0035 00       		.byte	0
 3945 0036 05       		.uleb128 0x5
 3946 0037 13       		.uleb128 0x13
 3947 0038 01       		.byte	0x1
 3948 0039 03       		.uleb128 0x3
 3949 003a 0E       		.uleb128 0xe
 3950 003b 0B       		.uleb128 0xb
 3951 003c 0B       		.uleb128 0xb
 3952 003d 3A       		.uleb128 0x3a
 3953 003e 0B       		.uleb128 0xb
 3954 003f 3B       		.uleb128 0x3b
 3955 0040 0B       		.uleb128 0xb
 3956 0041 01       		.uleb128 0x1
 3957 0042 13       		.uleb128 0x13
 3958 0043 00       		.byte	0
 3959 0044 00       		.byte	0
 3960 0045 06       		.uleb128 0x6
 3961 0046 0D       		.uleb128 0xd
 3962 0047 00       		.byte	0
 3963 0048 03       		.uleb128 0x3
 3964 0049 0E       		.uleb128 0xe
 3965 004a 3A       		.uleb128 0x3a
 3966 004b 0B       		.uleb128 0xb
 3967 004c 3B       		.uleb128 0x3b
 3968 004d 0B       		.uleb128 0xb
 3969 004e 49       		.uleb128 0x49
 3970 004f 13       		.uleb128 0x13
 3971 0050 38       		.uleb128 0x38
 3972 0051 0B       		.uleb128 0xb
 3973 0052 00       		.byte	0
 3974 0053 00       		.byte	0
 3975 0054 07       		.uleb128 0x7
 3976 0055 0D       		.uleb128 0xd
 3977 0056 00       		.byte	0
 3978 0057 03       		.uleb128 0x3
 3979 0058 08       		.uleb128 0x8
 3980 0059 3A       		.uleb128 0x3a
 3981 005a 0B       		.uleb128 0xb
 3982 005b 3B       		.uleb128 0x3b
 3983 005c 0B       		.uleb128 0xb
 3984 005d 49       		.uleb128 0x49
 3985 005e 13       		.uleb128 0x13
ARM GAS  /tmp/ccFQWhDI.s 			page 71


 3986 005f 38       		.uleb128 0x38
 3987 0060 0B       		.uleb128 0xb
 3988 0061 00       		.byte	0
 3989 0062 00       		.byte	0
 3990 0063 08       		.uleb128 0x8
 3991 0064 13       		.uleb128 0x13
 3992 0065 01       		.byte	0x1
 3993 0066 0B       		.uleb128 0xb
 3994 0067 0B       		.uleb128 0xb
 3995 0068 3A       		.uleb128 0x3a
 3996 0069 0B       		.uleb128 0xb
 3997 006a 3B       		.uleb128 0x3b
 3998 006b 0B       		.uleb128 0xb
 3999 006c 01       		.uleb128 0x1
 4000 006d 13       		.uleb128 0x13
 4001 006e 00       		.byte	0
 4002 006f 00       		.byte	0
 4003 0070 09       		.uleb128 0x9
 4004 0071 0F       		.uleb128 0xf
 4005 0072 00       		.byte	0
 4006 0073 0B       		.uleb128 0xb
 4007 0074 0B       		.uleb128 0xb
 4008 0075 49       		.uleb128 0x49
 4009 0076 13       		.uleb128 0x13
 4010 0077 00       		.byte	0
 4011 0078 00       		.byte	0
 4012 0079 0A       		.uleb128 0xa
 4013 007a 0F       		.uleb128 0xf
 4014 007b 00       		.byte	0
 4015 007c 0B       		.uleb128 0xb
 4016 007d 0B       		.uleb128 0xb
 4017 007e 00       		.byte	0
 4018 007f 00       		.byte	0
 4019 0080 0B       		.uleb128 0xb
 4020 0081 13       		.uleb128 0x13
 4021 0082 01       		.byte	0x1
 4022 0083 03       		.uleb128 0x3
 4023 0084 0E       		.uleb128 0xe
 4024 0085 0B       		.uleb128 0xb
 4025 0086 0B       		.uleb128 0xb
 4026 0087 3A       		.uleb128 0x3a
 4027 0088 0B       		.uleb128 0xb
 4028 0089 3B       		.uleb128 0x3b
 4029 008a 05       		.uleb128 0x5
 4030 008b 01       		.uleb128 0x1
 4031 008c 13       		.uleb128 0x13
 4032 008d 00       		.byte	0
 4033 008e 00       		.byte	0
 4034 008f 0C       		.uleb128 0xc
 4035 0090 0D       		.uleb128 0xd
 4036 0091 00       		.byte	0
 4037 0092 03       		.uleb128 0x3
 4038 0093 08       		.uleb128 0x8
 4039 0094 3A       		.uleb128 0x3a
 4040 0095 0B       		.uleb128 0xb
 4041 0096 3B       		.uleb128 0x3b
 4042 0097 05       		.uleb128 0x5
ARM GAS  /tmp/ccFQWhDI.s 			page 72


 4043 0098 49       		.uleb128 0x49
 4044 0099 13       		.uleb128 0x13
 4045 009a 38       		.uleb128 0x38
 4046 009b 0B       		.uleb128 0xb
 4047 009c 00       		.byte	0
 4048 009d 00       		.byte	0
 4049 009e 0D       		.uleb128 0xd
 4050 009f 35       		.uleb128 0x35
 4051 00a0 00       		.byte	0
 4052 00a1 49       		.uleb128 0x49
 4053 00a2 13       		.uleb128 0x13
 4054 00a3 00       		.byte	0
 4055 00a4 00       		.byte	0
 4056 00a5 0E       		.uleb128 0xe
 4057 00a6 17       		.uleb128 0x17
 4058 00a7 01       		.byte	0x1
 4059 00a8 0B       		.uleb128 0xb
 4060 00a9 0B       		.uleb128 0xb
 4061 00aa 3A       		.uleb128 0x3a
 4062 00ab 0B       		.uleb128 0xb
 4063 00ac 3B       		.uleb128 0x3b
 4064 00ad 0B       		.uleb128 0xb
 4065 00ae 01       		.uleb128 0x1
 4066 00af 13       		.uleb128 0x13
 4067 00b0 00       		.byte	0
 4068 00b1 00       		.byte	0
 4069 00b2 0F       		.uleb128 0xf
 4070 00b3 0D       		.uleb128 0xd
 4071 00b4 00       		.byte	0
 4072 00b5 03       		.uleb128 0x3
 4073 00b6 0E       		.uleb128 0xe
 4074 00b7 3A       		.uleb128 0x3a
 4075 00b8 0B       		.uleb128 0xb
 4076 00b9 3B       		.uleb128 0x3b
 4077 00ba 0B       		.uleb128 0xb
 4078 00bb 49       		.uleb128 0x49
 4079 00bc 13       		.uleb128 0x13
 4080 00bd 00       		.byte	0
 4081 00be 00       		.byte	0
 4082 00bf 10       		.uleb128 0x10
 4083 00c0 26       		.uleb128 0x26
 4084 00c1 00       		.byte	0
 4085 00c2 49       		.uleb128 0x49
 4086 00c3 13       		.uleb128 0x13
 4087 00c4 00       		.byte	0
 4088 00c5 00       		.byte	0
 4089 00c6 11       		.uleb128 0x11
 4090 00c7 15       		.uleb128 0x15
 4091 00c8 00       		.byte	0
 4092 00c9 27       		.uleb128 0x27
 4093 00ca 19       		.uleb128 0x19
 4094 00cb 00       		.byte	0
 4095 00cc 00       		.byte	0
 4096 00cd 12       		.uleb128 0x12
 4097 00ce 13       		.uleb128 0x13
 4098 00cf 01       		.byte	0x1
 4099 00d0 0B       		.uleb128 0xb
ARM GAS  /tmp/ccFQWhDI.s 			page 73


 4100 00d1 05       		.uleb128 0x5
 4101 00d2 3A       		.uleb128 0x3a
 4102 00d3 0B       		.uleb128 0xb
 4103 00d4 3B       		.uleb128 0x3b
 4104 00d5 0B       		.uleb128 0xb
 4105 00d6 01       		.uleb128 0x1
 4106 00d7 13       		.uleb128 0x13
 4107 00d8 00       		.byte	0
 4108 00d9 00       		.byte	0
 4109 00da 13       		.uleb128 0x13
 4110 00db 0D       		.uleb128 0xd
 4111 00dc 00       		.byte	0
 4112 00dd 03       		.uleb128 0x3
 4113 00de 08       		.uleb128 0x8
 4114 00df 3A       		.uleb128 0x3a
 4115 00e0 0B       		.uleb128 0xb
 4116 00e1 3B       		.uleb128 0x3b
 4117 00e2 0B       		.uleb128 0xb
 4118 00e3 49       		.uleb128 0x49
 4119 00e4 13       		.uleb128 0x13
 4120 00e5 38       		.uleb128 0x38
 4121 00e6 05       		.uleb128 0x5
 4122 00e7 00       		.byte	0
 4123 00e8 00       		.byte	0
 4124 00e9 14       		.uleb128 0x14
 4125 00ea 01       		.uleb128 0x1
 4126 00eb 01       		.byte	0x1
 4127 00ec 49       		.uleb128 0x49
 4128 00ed 13       		.uleb128 0x13
 4129 00ee 01       		.uleb128 0x1
 4130 00ef 13       		.uleb128 0x13
 4131 00f0 00       		.byte	0
 4132 00f1 00       		.byte	0
 4133 00f2 15       		.uleb128 0x15
 4134 00f3 21       		.uleb128 0x21
 4135 00f4 00       		.byte	0
 4136 00f5 49       		.uleb128 0x49
 4137 00f6 13       		.uleb128 0x13
 4138 00f7 2F       		.uleb128 0x2f
 4139 00f8 0B       		.uleb128 0xb
 4140 00f9 00       		.byte	0
 4141 00fa 00       		.byte	0
 4142 00fb 16       		.uleb128 0x16
 4143 00fc 17       		.uleb128 0x17
 4144 00fd 01       		.byte	0x1
 4145 00fe 03       		.uleb128 0x3
 4146 00ff 0E       		.uleb128 0xe
 4147 0100 0B       		.uleb128 0xb
 4148 0101 05       		.uleb128 0x5
 4149 0102 3A       		.uleb128 0x3a
 4150 0103 0B       		.uleb128 0xb
 4151 0104 3B       		.uleb128 0x3b
 4152 0105 0B       		.uleb128 0xb
 4153 0106 01       		.uleb128 0x1
 4154 0107 13       		.uleb128 0x13
 4155 0108 00       		.byte	0
 4156 0109 00       		.byte	0
ARM GAS  /tmp/ccFQWhDI.s 			page 74


 4157 010a 17       		.uleb128 0x17
 4158 010b 0D       		.uleb128 0xd
 4159 010c 00       		.byte	0
 4160 010d 03       		.uleb128 0x3
 4161 010e 08       		.uleb128 0x8
 4162 010f 3A       		.uleb128 0x3a
 4163 0110 0B       		.uleb128 0xb
 4164 0111 3B       		.uleb128 0x3b
 4165 0112 0B       		.uleb128 0xb
 4166 0113 49       		.uleb128 0x49
 4167 0114 13       		.uleb128 0x13
 4168 0115 00       		.byte	0
 4169 0116 00       		.byte	0
 4170 0117 18       		.uleb128 0x18
 4171 0118 21       		.uleb128 0x21
 4172 0119 00       		.byte	0
 4173 011a 49       		.uleb128 0x49
 4174 011b 13       		.uleb128 0x13
 4175 011c 2F       		.uleb128 0x2f
 4176 011d 05       		.uleb128 0x5
 4177 011e 00       		.byte	0
 4178 011f 00       		.byte	0
 4179 0120 19       		.uleb128 0x19
 4180 0121 2E       		.uleb128 0x2e
 4181 0122 01       		.byte	0x1
 4182 0123 03       		.uleb128 0x3
 4183 0124 0E       		.uleb128 0xe
 4184 0125 3A       		.uleb128 0x3a
 4185 0126 0B       		.uleb128 0xb
 4186 0127 3B       		.uleb128 0x3b
 4187 0128 0B       		.uleb128 0xb
 4188 0129 27       		.uleb128 0x27
 4189 012a 19       		.uleb128 0x19
 4190 012b 11       		.uleb128 0x11
 4191 012c 01       		.uleb128 0x1
 4192 012d 12       		.uleb128 0x12
 4193 012e 06       		.uleb128 0x6
 4194 012f 40       		.uleb128 0x40
 4195 0130 18       		.uleb128 0x18
 4196 0131 9742     		.uleb128 0x2117
 4197 0133 19       		.uleb128 0x19
 4198 0134 01       		.uleb128 0x1
 4199 0135 13       		.uleb128 0x13
 4200 0136 00       		.byte	0
 4201 0137 00       		.byte	0
 4202 0138 1A       		.uleb128 0x1a
 4203 0139 34       		.uleb128 0x34
 4204 013a 00       		.byte	0
 4205 013b 03       		.uleb128 0x3
 4206 013c 0E       		.uleb128 0xe
 4207 013d 3A       		.uleb128 0x3a
 4208 013e 0B       		.uleb128 0xb
 4209 013f 3B       		.uleb128 0x3b
 4210 0140 0B       		.uleb128 0xb
 4211 0141 49       		.uleb128 0x49
 4212 0142 13       		.uleb128 0x13
 4213 0143 02       		.uleb128 0x2
ARM GAS  /tmp/ccFQWhDI.s 			page 75


 4214 0144 17       		.uleb128 0x17
 4215 0145 00       		.byte	0
 4216 0146 00       		.byte	0
 4217 0147 1B       		.uleb128 0x1b
 4218 0148 34       		.uleb128 0x34
 4219 0149 00       		.byte	0
 4220 014a 03       		.uleb128 0x3
 4221 014b 0E       		.uleb128 0xe
 4222 014c 3A       		.uleb128 0x3a
 4223 014d 0B       		.uleb128 0xb
 4224 014e 3B       		.uleb128 0x3b
 4225 014f 0B       		.uleb128 0xb
 4226 0150 49       		.uleb128 0x49
 4227 0151 13       		.uleb128 0x13
 4228 0152 02       		.uleb128 0x2
 4229 0153 18       		.uleb128 0x18
 4230 0154 00       		.byte	0
 4231 0155 00       		.byte	0
 4232 0156 1C       		.uleb128 0x1c
 4233 0157 34       		.uleb128 0x34
 4234 0158 00       		.byte	0
 4235 0159 03       		.uleb128 0x3
 4236 015a 08       		.uleb128 0x8
 4237 015b 3A       		.uleb128 0x3a
 4238 015c 0B       		.uleb128 0xb
 4239 015d 3B       		.uleb128 0x3b
 4240 015e 0B       		.uleb128 0xb
 4241 015f 49       		.uleb128 0x49
 4242 0160 13       		.uleb128 0x13
 4243 0161 02       		.uleb128 0x2
 4244 0162 17       		.uleb128 0x17
 4245 0163 00       		.byte	0
 4246 0164 00       		.byte	0
 4247 0165 1D       		.uleb128 0x1d
 4248 0166 0B       		.uleb128 0xb
 4249 0167 01       		.byte	0x1
 4250 0168 11       		.uleb128 0x11
 4251 0169 01       		.uleb128 0x1
 4252 016a 12       		.uleb128 0x12
 4253 016b 06       		.uleb128 0x6
 4254 016c 01       		.uleb128 0x1
 4255 016d 13       		.uleb128 0x13
 4256 016e 00       		.byte	0
 4257 016f 00       		.byte	0
 4258 0170 1E       		.uleb128 0x1e
 4259 0171 34       		.uleb128 0x34
 4260 0172 00       		.byte	0
 4261 0173 03       		.uleb128 0x3
 4262 0174 08       		.uleb128 0x8
 4263 0175 3A       		.uleb128 0x3a
 4264 0176 0B       		.uleb128 0xb
 4265 0177 3B       		.uleb128 0x3b
 4266 0178 0B       		.uleb128 0xb
 4267 0179 49       		.uleb128 0x49
 4268 017a 13       		.uleb128 0x13
 4269 017b 02       		.uleb128 0x2
 4270 017c 18       		.uleb128 0x18
ARM GAS  /tmp/ccFQWhDI.s 			page 76


 4271 017d 00       		.byte	0
 4272 017e 00       		.byte	0
 4273 017f 1F       		.uleb128 0x1f
 4274 0180 898201   		.uleb128 0x4109
 4275 0183 01       		.byte	0x1
 4276 0184 11       		.uleb128 0x11
 4277 0185 01       		.uleb128 0x1
 4278 0186 31       		.uleb128 0x31
 4279 0187 13       		.uleb128 0x13
 4280 0188 01       		.uleb128 0x1
 4281 0189 13       		.uleb128 0x13
 4282 018a 00       		.byte	0
 4283 018b 00       		.byte	0
 4284 018c 20       		.uleb128 0x20
 4285 018d 8A8201   		.uleb128 0x410a
 4286 0190 00       		.byte	0
 4287 0191 02       		.uleb128 0x2
 4288 0192 18       		.uleb128 0x18
 4289 0193 9142     		.uleb128 0x2111
 4290 0195 18       		.uleb128 0x18
 4291 0196 00       		.byte	0
 4292 0197 00       		.byte	0
 4293 0198 21       		.uleb128 0x21
 4294 0199 898201   		.uleb128 0x4109
 4295 019c 00       		.byte	0
 4296 019d 11       		.uleb128 0x11
 4297 019e 01       		.uleb128 0x1
 4298 019f 31       		.uleb128 0x31
 4299 01a0 13       		.uleb128 0x13
 4300 01a1 00       		.byte	0
 4301 01a2 00       		.byte	0
 4302 01a3 22       		.uleb128 0x22
 4303 01a4 898201   		.uleb128 0x4109
 4304 01a7 01       		.byte	0x1
 4305 01a8 11       		.uleb128 0x11
 4306 01a9 01       		.uleb128 0x1
 4307 01aa 9542     		.uleb128 0x2115
 4308 01ac 19       		.uleb128 0x19
 4309 01ad 31       		.uleb128 0x31
 4310 01ae 13       		.uleb128 0x13
 4311 01af 00       		.byte	0
 4312 01b0 00       		.byte	0
 4313 01b1 23       		.uleb128 0x23
 4314 01b2 34       		.uleb128 0x34
 4315 01b3 00       		.byte	0
 4316 01b4 03       		.uleb128 0x3
 4317 01b5 0E       		.uleb128 0xe
 4318 01b6 3A       		.uleb128 0x3a
 4319 01b7 0B       		.uleb128 0xb
 4320 01b8 3B       		.uleb128 0x3b
 4321 01b9 0B       		.uleb128 0xb
 4322 01ba 49       		.uleb128 0x49
 4323 01bb 13       		.uleb128 0x13
 4324 01bc 3F       		.uleb128 0x3f
 4325 01bd 19       		.uleb128 0x19
 4326 01be 3C       		.uleb128 0x3c
 4327 01bf 19       		.uleb128 0x19
ARM GAS  /tmp/ccFQWhDI.s 			page 77


 4328 01c0 00       		.byte	0
 4329 01c1 00       		.byte	0
 4330 01c2 24       		.uleb128 0x24
 4331 01c3 34       		.uleb128 0x34
 4332 01c4 00       		.byte	0
 4333 01c5 03       		.uleb128 0x3
 4334 01c6 0E       		.uleb128 0xe
 4335 01c7 3A       		.uleb128 0x3a
 4336 01c8 0B       		.uleb128 0xb
 4337 01c9 3B       		.uleb128 0x3b
 4338 01ca 0B       		.uleb128 0xb
 4339 01cb 49       		.uleb128 0x49
 4340 01cc 13       		.uleb128 0x13
 4341 01cd 3F       		.uleb128 0x3f
 4342 01ce 19       		.uleb128 0x19
 4343 01cf 02       		.uleb128 0x2
 4344 01d0 18       		.uleb128 0x18
 4345 01d1 00       		.byte	0
 4346 01d2 00       		.byte	0
 4347 01d3 25       		.uleb128 0x25
 4348 01d4 2E       		.uleb128 0x2e
 4349 01d5 01       		.byte	0x1
 4350 01d6 3F       		.uleb128 0x3f
 4351 01d7 19       		.uleb128 0x19
 4352 01d8 03       		.uleb128 0x3
 4353 01d9 0E       		.uleb128 0xe
 4354 01da 3A       		.uleb128 0x3a
 4355 01db 0B       		.uleb128 0xb
 4356 01dc 3B       		.uleb128 0x3b
 4357 01dd 0B       		.uleb128 0xb
 4358 01de 27       		.uleb128 0x27
 4359 01df 19       		.uleb128 0x19
 4360 01e0 49       		.uleb128 0x49
 4361 01e1 13       		.uleb128 0x13
 4362 01e2 3C       		.uleb128 0x3c
 4363 01e3 19       		.uleb128 0x19
 4364 01e4 01       		.uleb128 0x1
 4365 01e5 13       		.uleb128 0x13
 4366 01e6 00       		.byte	0
 4367 01e7 00       		.byte	0
 4368 01e8 26       		.uleb128 0x26
 4369 01e9 05       		.uleb128 0x5
 4370 01ea 00       		.byte	0
 4371 01eb 49       		.uleb128 0x49
 4372 01ec 13       		.uleb128 0x13
 4373 01ed 00       		.byte	0
 4374 01ee 00       		.byte	0
 4375 01ef 27       		.uleb128 0x27
 4376 01f0 2E       		.uleb128 0x2e
 4377 01f1 00       		.byte	0
 4378 01f2 3F       		.uleb128 0x3f
 4379 01f3 19       		.uleb128 0x19
 4380 01f4 03       		.uleb128 0x3
 4381 01f5 0E       		.uleb128 0xe
 4382 01f6 3A       		.uleb128 0x3a
 4383 01f7 0B       		.uleb128 0xb
 4384 01f8 3B       		.uleb128 0x3b
ARM GAS  /tmp/ccFQWhDI.s 			page 78


 4385 01f9 0B       		.uleb128 0xb
 4386 01fa 27       		.uleb128 0x27
 4387 01fb 19       		.uleb128 0x19
 4388 01fc 3C       		.uleb128 0x3c
 4389 01fd 19       		.uleb128 0x19
 4390 01fe 00       		.byte	0
 4391 01ff 00       		.byte	0
 4392 0200 28       		.uleb128 0x28
 4393 0201 2E       		.uleb128 0x2e
 4394 0202 01       		.byte	0x1
 4395 0203 3F       		.uleb128 0x3f
 4396 0204 19       		.uleb128 0x19
 4397 0205 03       		.uleb128 0x3
 4398 0206 0E       		.uleb128 0xe
 4399 0207 3A       		.uleb128 0x3a
 4400 0208 0B       		.uleb128 0xb
 4401 0209 3B       		.uleb128 0x3b
 4402 020a 0B       		.uleb128 0xb
 4403 020b 27       		.uleb128 0x27
 4404 020c 19       		.uleb128 0x19
 4405 020d 3C       		.uleb128 0x3c
 4406 020e 19       		.uleb128 0x19
 4407 020f 01       		.uleb128 0x1
 4408 0210 13       		.uleb128 0x13
 4409 0211 00       		.byte	0
 4410 0212 00       		.byte	0
 4411 0213 29       		.uleb128 0x29
 4412 0214 2E       		.uleb128 0x2e
 4413 0215 01       		.byte	0x1
 4414 0216 3F       		.uleb128 0x3f
 4415 0217 19       		.uleb128 0x19
 4416 0218 03       		.uleb128 0x3
 4417 0219 0E       		.uleb128 0xe
 4418 021a 3A       		.uleb128 0x3a
 4419 021b 0B       		.uleb128 0xb
 4420 021c 3B       		.uleb128 0x3b
 4421 021d 0B       		.uleb128 0xb
 4422 021e 27       		.uleb128 0x27
 4423 021f 19       		.uleb128 0x19
 4424 0220 3C       		.uleb128 0x3c
 4425 0221 19       		.uleb128 0x19
 4426 0222 00       		.byte	0
 4427 0223 00       		.byte	0
 4428 0224 00       		.byte	0
 4429              		.section	.debug_loc,"",%progbits
 4430              	.Ldebug_loc0:
 4431              	.LLST0:
 4432 0000 2A000000 		.4byte	.LVL2
 4433 0004 30000000 		.4byte	.LVL3
 4434 0008 0100     		.2byte	0x1
 4435 000a 50       		.byte	0x50
 4436 000b 4A000000 		.4byte	.LVL6
 4437 000f 50000000 		.4byte	.LVL7
 4438 0013 0100     		.2byte	0x1
 4439 0015 50       		.byte	0x50
 4440 0016 66000000 		.4byte	.LVL11
 4441 001a 6C000000 		.4byte	.LVL12
ARM GAS  /tmp/ccFQWhDI.s 			page 79


 4442 001e 0100     		.2byte	0x1
 4443 0020 50       		.byte	0x50
 4444 0021 6C000000 		.4byte	.LVL12
 4445 0025 70000000 		.4byte	.LVL13
 4446 0029 0300     		.2byte	0x3
 4447 002b 71       		.byte	0x71
 4448 002c 7F       		.sleb128 -1
 4449 002d 9F       		.byte	0x9f
 4450 002e 90000000 		.4byte	.LVL18
 4451 0032 93000000 		.4byte	.LVL19-1
 4452 0036 0100     		.2byte	0x1
 4453 0038 50       		.byte	0x50
 4454 0039 93000000 		.4byte	.LVL19-1
 4455 003d B8000000 		.4byte	.LVL21
 4456 0041 0100     		.2byte	0x1
 4457 0043 57       		.byte	0x57
 4458 0044 B8000000 		.4byte	.LVL21
 4459 0048 BE000000 		.4byte	.LVL22
 4460 004c 0100     		.2byte	0x1
 4461 004e 50       		.byte	0x50
 4462 004f BE000000 		.4byte	.LVL22
 4463 0053 C2000000 		.4byte	.LVL23
 4464 0057 0300     		.2byte	0x3
 4465 0059 71       		.byte	0x71
 4466 005a 7F       		.sleb128 -1
 4467 005b 9F       		.byte	0x9f
 4468 005c E2000000 		.4byte	.LVL27
 4469 0060 E5000000 		.4byte	.LVL28-1
 4470 0064 0100     		.2byte	0x1
 4471 0066 50       		.byte	0x50
 4472 0067 E5000000 		.4byte	.LVL28-1
 4473 006b FE000000 		.4byte	.LVL30
 4474 006f 0100     		.2byte	0x1
 4475 0071 57       		.byte	0x57
 4476 0072 9E010000 		.4byte	.LVL43
 4477 0076 A4010000 		.4byte	.LVL44
 4478 007a 0100     		.2byte	0x1
 4479 007c 50       		.byte	0x50
 4480 007d D6010000 		.4byte	.LVL49
 4481 0081 DC010000 		.4byte	.LVL50
 4482 0085 0100     		.2byte	0x1
 4483 0087 50       		.byte	0x50
 4484 0088 F4010000 		.4byte	.LVL52
 4485 008c FA010000 		.4byte	.LVL53
 4486 0090 0100     		.2byte	0x1
 4487 0092 50       		.byte	0x50
 4488 0093 3C020000 		.4byte	.LVL57
 4489 0097 4A020000 		.4byte	.LVL58
 4490 009b 0100     		.2byte	0x1
 4491 009d 50       		.byte	0x50
 4492 009e 4A020000 		.4byte	.LVL58
 4493 00a2 4D020000 		.4byte	.LVL59-1
 4494 00a6 0300     		.2byte	0x3
 4495 00a8 7C       		.byte	0x7c
 4496 00a9 7F       		.sleb128 -1
 4497 00aa 9F       		.byte	0x9f
 4498 00ab 68020000 		.4byte	.LVL62
ARM GAS  /tmp/ccFQWhDI.s 			page 80


 4499 00af 6B020000 		.4byte	.LVL63-1
 4500 00b3 0100     		.2byte	0x1
 4501 00b5 50       		.byte	0x50
 4502 00b6 6B020000 		.4byte	.LVL63-1
 4503 00ba 98020000 		.4byte	.LVL66
 4504 00be 0100     		.2byte	0x1
 4505 00c0 57       		.byte	0x57
 4506 00c1 1C030000 		.4byte	.LVL77
 4507 00c5 22030000 		.4byte	.LVL78
 4508 00c9 0100     		.2byte	0x1
 4509 00cb 50       		.byte	0x50
 4510 00cc 36030000 		.4byte	.LVL80
 4511 00d0 3C030000 		.4byte	.LVL81
 4512 00d4 0100     		.2byte	0x1
 4513 00d6 50       		.byte	0x50
 4514 00d7 50030000 		.4byte	.LVL83
 4515 00db 56030000 		.4byte	.LVL84
 4516 00df 0100     		.2byte	0x1
 4517 00e1 50       		.byte	0x50
 4518 00e2 6A030000 		.4byte	.LVL86
 4519 00e6 70030000 		.4byte	.LVL87
 4520 00ea 0100     		.2byte	0x1
 4521 00ec 50       		.byte	0x50
 4522 00ed 88030000 		.4byte	.LVL90
 4523 00f1 8B030000 		.4byte	.LVL91-1
 4524 00f5 0100     		.2byte	0x1
 4525 00f7 50       		.byte	0x50
 4526 00f8 8B030000 		.4byte	.LVL91-1
 4527 00fc D2030000 		.4byte	.LVL97
 4528 0100 0100     		.2byte	0x1
 4529 0102 56       		.byte	0x56
 4530 0103 D2030000 		.4byte	.LVL97
 4531 0107 D5030000 		.4byte	.LVL98-1
 4532 010b 0100     		.2byte	0x1
 4533 010d 50       		.byte	0x50
 4534 010e D5030000 		.4byte	.LVL98-1
 4535 0112 46040000 		.4byte	.LVL108
 4536 0116 0100     		.2byte	0x1
 4537 0118 56       		.byte	0x56
 4538 0119 5C040000 		.4byte	.LVL110
 4539 011d 8E040000 		.4byte	.LVL114
 4540 0121 0100     		.2byte	0x1
 4541 0123 56       		.byte	0x56
 4542 0124 8E040000 		.4byte	.LVL114
 4543 0128 94040000 		.4byte	.LVL115
 4544 012c 0100     		.2byte	0x1
 4545 012e 50       		.byte	0x50
 4546 012f A8040000 		.4byte	.LVL117
 4547 0133 AE040000 		.4byte	.LVL118
 4548 0137 0100     		.2byte	0x1
 4549 0139 50       		.byte	0x50
 4550 013a C2040000 		.4byte	.LVL120
 4551 013e C8040000 		.4byte	.LVL121
 4552 0142 0100     		.2byte	0x1
 4553 0144 50       		.byte	0x50
 4554 0145 DC040000 		.4byte	.LVL123
 4555 0149 E2040000 		.4byte	.LVL124
ARM GAS  /tmp/ccFQWhDI.s 			page 81


 4556 014d 0100     		.2byte	0x1
 4557 014f 50       		.byte	0x50
 4558 0150 FA040000 		.4byte	.LVL127
 4559 0154 FD040000 		.4byte	.LVL128-1
 4560 0158 0100     		.2byte	0x1
 4561 015a 50       		.byte	0x50
 4562 015b FD040000 		.4byte	.LVL128-1
 4563 015f 34050000 		.4byte	.LVL131
 4564 0163 0100     		.2byte	0x1
 4565 0165 55       		.byte	0x55
 4566 0166 4A050000 		.4byte	.LVL134
 4567 016a 4D050000 		.4byte	.LVL135-1
 4568 016e 0100     		.2byte	0x1
 4569 0170 50       		.byte	0x50
 4570 0171 4D050000 		.4byte	.LVL135-1
 4571 0175 FC050000 		.4byte	.LVL149
 4572 0179 0100     		.2byte	0x1
 4573 017b 56       		.byte	0x56
 4574 017c 00000000 		.4byte	0
 4575 0180 00000000 		.4byte	0
 4576              	.LLST1:
 4577 0184 1C000000 		.4byte	.LVL1
 4578 0188 36000000 		.4byte	.LVL4
 4579 018c 0400     		.2byte	0x4
 4580 018e 74       		.byte	0x74
 4581 018f BE7F     		.sleb128 -66
 4582 0191 9F       		.byte	0x9f
 4583 0192 36000000 		.4byte	.LVL4
 4584 0196 38000000 		.4byte	.LVL5
 4585 019a 0400     		.2byte	0x4
 4586 019c 74       		.byte	0x74
 4587 019d BF7F     		.sleb128 -65
 4588 019f 9F       		.byte	0x9f
 4589 01a0 38000000 		.4byte	.LVL5
 4590 01a4 58000000 		.4byte	.LVL9
 4591 01a8 0400     		.2byte	0x4
 4592 01aa 74       		.byte	0x74
 4593 01ab BE7F     		.sleb128 -66
 4594 01ad 9F       		.byte	0x9f
 4595 01ae 5C000000 		.4byte	.LVL10
 4596 01b2 78000000 		.4byte	.LVL15
 4597 01b6 0400     		.2byte	0x4
 4598 01b8 74       		.byte	0x74
 4599 01b9 BE7F     		.sleb128 -66
 4600 01bb 9F       		.byte	0x9f
 4601 01bc 8E010000 		.4byte	.LVL41
 4602 01c0 90010000 		.4byte	.LVL42
 4603 01c4 0200     		.2byte	0x2
 4604 01c6 30       		.byte	0x30
 4605 01c7 9F       		.byte	0x9f
 4606 01c8 90010000 		.4byte	.LVL42
 4607 01cc B8010000 		.4byte	.LVL46
 4608 01d0 0500     		.2byte	0x5
 4609 01d2 35       		.byte	0x35
 4610 01d3 75       		.byte	0x75
 4611 01d4 00       		.sleb128 0
 4612 01d5 1C       		.byte	0x1c
ARM GAS  /tmp/ccFQWhDI.s 			page 82


 4613 01d6 9F       		.byte	0x9f
 4614 01d7 B8010000 		.4byte	.LVL46
 4615 01db BA010000 		.4byte	.LVL47
 4616 01df 0500     		.2byte	0x5
 4617 01e1 36       		.byte	0x36
 4618 01e2 75       		.byte	0x75
 4619 01e3 00       		.sleb128 0
 4620 01e4 1C       		.byte	0x1c
 4621 01e5 9F       		.byte	0x9f
 4622 01e6 BA010000 		.4byte	.LVL47
 4623 01ea CE020000 		.4byte	.LVL71
 4624 01ee 0500     		.2byte	0x5
 4625 01f0 35       		.byte	0x35
 4626 01f1 75       		.byte	0x75
 4627 01f2 00       		.sleb128 0
 4628 01f3 1C       		.byte	0x1c
 4629 01f4 9F       		.byte	0x9f
 4630 01f5 BC030000 		.4byte	.LVL94
 4631 01f9 F6030000 		.4byte	.LVL100
 4632 01fd 0500     		.2byte	0x5
 4633 01ff 35       		.byte	0x35
 4634 0200 75       		.byte	0x75
 4635 0201 00       		.sleb128 0
 4636 0202 1C       		.byte	0x1c
 4637 0203 9F       		.byte	0x9f
 4638 0204 F6030000 		.4byte	.LVL100
 4639 0208 F8030000 		.4byte	.LVL101
 4640 020c 0500     		.2byte	0x5
 4641 020e 36       		.byte	0x36
 4642 020f 75       		.byte	0x75
 4643 0210 00       		.sleb128 0
 4644 0211 1C       		.byte	0x1c
 4645 0212 9F       		.byte	0x9f
 4646 0213 F8030000 		.4byte	.LVL101
 4647 0217 46040000 		.4byte	.LVL108
 4648 021b 0500     		.2byte	0x5
 4649 021d 35       		.byte	0x35
 4650 021e 75       		.byte	0x75
 4651 021f 00       		.sleb128 0
 4652 0220 1C       		.byte	0x1c
 4653 0221 9F       		.byte	0x9f
 4654 0222 5C040000 		.4byte	.LVL110
 4655 0226 FA040000 		.4byte	.LVL127
 4656 022a 0500     		.2byte	0x5
 4657 022c 35       		.byte	0x35
 4658 022d 75       		.byte	0x75
 4659 022e 00       		.sleb128 0
 4660 022f 1C       		.byte	0x1c
 4661 0230 9F       		.byte	0x9f
 4662 0231 34050000 		.4byte	.LVL131
 4663 0235 6E050000 		.4byte	.LVL137
 4664 0239 0500     		.2byte	0x5
 4665 023b 35       		.byte	0x35
 4666 023c 74       		.byte	0x74
 4667 023d 00       		.sleb128 0
 4668 023e 1C       		.byte	0x1c
 4669 023f 9F       		.byte	0x9f
ARM GAS  /tmp/ccFQWhDI.s 			page 83


 4670 0240 6E050000 		.4byte	.LVL137
 4671 0244 70050000 		.4byte	.LVL138
 4672 0248 0500     		.2byte	0x5
 4673 024a 36       		.byte	0x36
 4674 024b 74       		.byte	0x74
 4675 024c 00       		.sleb128 0
 4676 024d 1C       		.byte	0x1c
 4677 024e 9F       		.byte	0x9f
 4678 024f 70050000 		.4byte	.LVL138
 4679 0253 7A060000 		.4byte	.LVL159
 4680 0257 0500     		.2byte	0x5
 4681 0259 35       		.byte	0x35
 4682 025a 74       		.byte	0x74
 4683 025b 00       		.sleb128 0
 4684 025c 1C       		.byte	0x1c
 4685 025d 9F       		.byte	0x9f
 4686 025e 00000000 		.4byte	0
 4687 0262 00000000 		.4byte	0
 4688              		.section	.debug_aranges,"",%progbits
 4689 0000 24000000 		.4byte	0x24
 4690 0004 0200     		.2byte	0x2
 4691 0006 00000000 		.4byte	.Ldebug_info0
 4692 000a 04       		.byte	0x4
 4693 000b 00       		.byte	0
 4694 000c 0000     		.2byte	0
 4695 000e 0000     		.2byte	0
 4696 0010 00000000 		.4byte	.LFB8
 4697 0014 9C060000 		.4byte	.LFE8-.LFB8
 4698 0018 00000000 		.4byte	.LFB7
 4699 001c 14000000 		.4byte	.LFE7-.LFB7
 4700 0020 00000000 		.4byte	0
 4701 0024 00000000 		.4byte	0
 4702              		.section	.debug_ranges,"",%progbits
 4703              	.Ldebug_ranges0:
 4704 0000 00000000 		.4byte	.LFB8
 4705 0004 9C060000 		.4byte	.LFE8
 4706 0008 00000000 		.4byte	.LFB7
 4707 000c 14000000 		.4byte	.LFE7
 4708 0010 00000000 		.4byte	0
 4709 0014 00000000 		.4byte	0
 4710              		.section	.debug_line,"",%progbits
 4711              	.Ldebug_line0:
 4712 0000 79020000 		.section	.debug_str,"MS",%progbits,1
 4712      02005101 
 4712      00000201 
 4712      FB0E0D00 
 4712      01010101 
 4713              	.LASF44:
 4714 0000 705F6D73 		.ascii	"p_msg\000"
 4714      6700
 4715              	.LASF70:
 4716 0006 7264796D 		.ascii	"rdymsg\000"
 4716      736700
 4717              	.LASF16:
 4718 000d 75696E74 		.ascii	"uint64_t\000"
 4718      36345F74 
 4718      00
ARM GAS  /tmp/ccFQWhDI.s 			page 84


 4719              	.LASF5:
 4720 0016 5F5F7569 		.ascii	"__uint8_t\000"
 4720      6E74385F 
 4720      7400
 4721              	.LASF91:
 4722 0020 63684D42 		.ascii	"chMBPostI\000"
 4722      506F7374 
 4722      4900
 4723              	.LASF69:
 4724 002a 4D61696C 		.ascii	"Mailbox\000"
 4724      626F7800 
 4725              	.LASF94:
 4726 0032 63684D42 		.ascii	"chMBPostAheadI\000"
 4726      506F7374 
 4726      41686561 
 4726      644900
 4727              	.LASF12:
 4728 0041 6C6F6E67 		.ascii	"long long unsigned int\000"
 4728      206C6F6E 
 4728      6720756E 
 4728      7369676E 
 4728      65642069 
 4729              	.LASF100:
 4730 0058 474E5520 		.ascii	"GNU C 4.9.3 20150529 (prerelease) -mcpu=cortex-m4 -"
 4730      4320342E 
 4730      392E3320 
 4730      32303135 
 4730      30353239 
 4731 008b 6D6E6F2D 		.ascii	"mno-thumb-interwork -mthumb -ggdb -O2 -fomit-frame-"
 4731      7468756D 
 4731      622D696E 
 4731      74657277 
 4731      6F726B20 
 4732 00be 706F696E 		.ascii	"pointer -falign-functions=16 -ffunction-sections -f"
 4732      74657220 
 4732      2D66616C 
 4732      69676E2D 
 4732      66756E63 
 4733 00f1 64617461 		.ascii	"data-sections -fno-common\000"
 4733      2D736563 
 4733      74696F6E 
 4733      73202D66 
 4733      6E6F2D63 
 4734              	.LASF71:
 4735 010b 65786974 		.ascii	"exitcode\000"
 4735      636F6465 
 4735      00
 4736              	.LASF85:
 4737 0114 74657374 		.ascii	"test\000"
 4737      00
 4738              	.LASF65:
 4739 0119 6D625F77 		.ascii	"mb_wrptr\000"
 4739      72707472 
 4739      00
 4740              	.LASF31:
 4741 0122 705F7072 		.ascii	"p_prio\000"
 4741      696F00
ARM GAS  /tmp/ccFQWhDI.s 			page 85


 4742              	.LASF10:
 4743 0129 6C6F6E67 		.ascii	"long long int\000"
 4743      206C6F6E 
 4743      6720696E 
 4743      7400
 4744              	.LASF1:
 4745 0137 7369676E 		.ascii	"signed char\000"
 4745      65642063 
 4745      68617200 
 4746              	.LASF48:
 4747 0143 705F6D70 		.ascii	"p_mpool\000"
 4747      6F6F6C00 
 4748              	.LASF17:
 4749 014b 626F6F6C 		.ascii	"bool_t\000"
 4749      5F7400
 4750              	.LASF60:
 4751 0152 6D5F7175 		.ascii	"m_queue\000"
 4751      65756500 
 4752              	.LASF98:
 4753 015a 74657374 		.ascii	"test_emit_token\000"
 4753      5F656D69 
 4753      745F746F 
 4753      6B656E00 
 4754              	.LASF22:
 4755 016a 74736C69 		.ascii	"tslices_t\000"
 4755      6365735F 
 4755      7400
 4756              	.LASF89:
 4757 0174 63684D42 		.ascii	"chMBPost\000"
 4757      506F7374 
 4757      00
 4758              	.LASF7:
 4759 017d 6C6F6E67 		.ascii	"long int\000"
 4759      20696E74 
 4759      00
 4760              	.LASF20:
 4761 0186 74737461 		.ascii	"tstate_t\000"
 4761      74655F74 
 4761      00
 4762              	.LASF101:
 4763 018f 2E2E2F2E 		.ascii	"../../ChibiOS_2.6.5/test/testmbox.c\000"
 4763      2E2F4368 
 4763      6962694F 
 4763      535F322E 
 4763      362E352F 
 4764              	.LASF80:
 4765 01b3 62756666 		.ascii	"buffer\000"
 4765      657200
 4766              	.LASF33:
 4767 01ba 705F6E65 		.ascii	"p_newer\000"
 4767      77657200 
 4768              	.LASF57:
 4769 01c2 735F7175 		.ascii	"s_queue\000"
 4769      65756500 
 4770              	.LASF8:
 4771 01ca 5F5F7569 		.ascii	"__uint32_t\000"
 4771      6E743332 
ARM GAS  /tmp/ccFQWhDI.s 			page 86


 4771      5F7400
 4772              	.LASF51:
 4773 01d5 72656761 		.ascii	"regarm_t\000"
 4773      726D5F74 
 4773      00
 4774              	.LASF87:
 4775 01de 70617474 		.ascii	"patternmbox\000"
 4775      65726E6D 
 4775      626F7800 
 4776              	.LASF27:
 4777 01ea 636E745F 		.ascii	"cnt_t\000"
 4777      7400
 4778              	.LASF36:
 4779 01f0 705F7374 		.ascii	"p_stklimit\000"
 4779      6B6C696D 
 4779      697400
 4780              	.LASF0:
 4781 01fb 756E7369 		.ascii	"unsigned int\000"
 4781      676E6564 
 4781      20696E74 
 4781      00
 4782              	.LASF104:
 4783 0208 63684D42 		.ascii	"chMBInit\000"
 4783      496E6974 
 4783      00
 4784              	.LASF81:
 4785 0211 6D736731 		.ascii	"msg1\000"
 4785      00
 4786              	.LASF82:
 4787 0216 6D736732 		.ascii	"msg2\000"
 4787      00
 4788              	.LASF9:
 4789 021b 6C6F6E67 		.ascii	"long unsigned int\000"
 4789      20756E73 
 4789      69676E65 
 4789      6420696E 
 4789      7400
 4790              	.LASF78:
 4791 022d 74656172 		.ascii	"teardown\000"
 4791      646F776E 
 4791      00
 4792              	.LASF68:
 4793 0236 6D625F65 		.ascii	"mb_emptysem\000"
 4793      6D707479 
 4793      73656D00 
 4794              	.LASF76:
 4795 0242 6E616D65 		.ascii	"name\000"
 4795      00
 4796              	.LASF58:
 4797 0247 735F636E 		.ascii	"s_cnt\000"
 4797      7400
 4798              	.LASF54:
 4799 024d 636F6E74 		.ascii	"context\000"
 4799      65787400 
 4800              	.LASF4:
 4801 0255 73686F72 		.ascii	"short unsigned int\000"
 4801      7420756E 
ARM GAS  /tmp/ccFQWhDI.s 			page 87


 4801      7369676E 
 4801      65642069 
 4801      6E7400
 4802              	.LASF97:
 4803 0268 63684D42 		.ascii	"chMBFetchI\000"
 4803      46657463 
 4803      684900
 4804              	.LASF24:
 4805 0273 6D73675F 		.ascii	"msg_t\000"
 4805      7400
 4806              	.LASF19:
 4807 0279 746D6F64 		.ascii	"tmode_t\000"
 4807      655F7400 
 4808              	.LASF84:
 4809 0281 6D626F78 		.ascii	"mbox1_setup\000"
 4809      315F7365 
 4809      74757000 
 4810              	.LASF50:
 4811 028d 54687265 		.ascii	"ThreadsList\000"
 4811      6164734C 
 4811      69737400 
 4812              	.LASF25:
 4813 0299 6576656E 		.ascii	"eventmask_t\000"
 4813      746D6173 
 4813      6B5F7400 
 4814              	.LASF59:
 4815 02a5 4D757465 		.ascii	"Mutex\000"
 4815      7800
 4816              	.LASF86:
 4817 02ab 74657374 		.ascii	"testmbox1\000"
 4817      6D626F78 
 4817      3100
 4818              	.LASF52:
 4819 02b5 73746B61 		.ascii	"stkalign_t\000"
 4819      6C69676E 
 4819      5F7400
 4820              	.LASF55:
 4821 02c0 73697A65 		.ascii	"sizetype\000"
 4821      74797065 
 4821      00
 4822              	.LASF66:
 4823 02c9 6D625F72 		.ascii	"mb_rdptr\000"
 4823      64707472 
 4823      00
 4824              	.LASF99:
 4825 02d2 63684D42 		.ascii	"chMBReset\000"
 4825      52657365 
 4825      7400
 4826              	.LASF34:
 4827 02dc 705F6F6C 		.ascii	"p_older\000"
 4827      64657200 
 4828              	.LASF49:
 4829 02e4 54687265 		.ascii	"ThreadsQueue\000"
 4829      61647351 
 4829      75657565 
 4829      00
 4830              	.LASF77:
ARM GAS  /tmp/ccFQWhDI.s 			page 88


 4831 02f1 73657475 		.ascii	"setup\000"
 4831      7000
 4832              	.LASF96:
 4833 02f7 5F746573 		.ascii	"_test_assert_sequence\000"
 4833      745F6173 
 4833      73657274 
 4833      5F736571 
 4833      75656E63 
 4834              	.LASF63:
 4835 030d 6D625F62 		.ascii	"mb_buffer\000"
 4835      75666665 
 4835      7200
 4836              	.LASF83:
 4837 0317 6D626F78 		.ascii	"mbox1_execute\000"
 4837      315F6578 
 4837      65637574 
 4837      6500
 4838              	.LASF92:
 4839 0325 6462675F 		.ascii	"dbg_check_lock\000"
 4839      63686563 
 4839      6B5F6C6F 
 4839      636B00
 4840              	.LASF93:
 4841 0334 6462675F 		.ascii	"dbg_check_unlock\000"
 4841      63686563 
 4841      6B5F756E 
 4841      6C6F636B 
 4841      00
 4842              	.LASF11:
 4843 0345 5F5F7569 		.ascii	"__uint64_t\000"
 4843      6E743634 
 4843      5F7400
 4844              	.LASF21:
 4845 0350 74726566 		.ascii	"trefs_t\000"
 4845      735F7400 
 4846              	.LASF30:
 4847 0358 705F7072 		.ascii	"p_prev\000"
 4847      657600
 4848              	.LASF79:
 4849 035f 65786563 		.ascii	"execute\000"
 4849      75746500 
 4850              	.LASF23:
 4851 0367 74707269 		.ascii	"tprio_t\000"
 4851      6F5F7400 
 4852              	.LASF18:
 4853 036f 5F426F6F 		.ascii	"_Bool\000"
 4853      6C00
 4854              	.LASF14:
 4855 0375 696E7433 		.ascii	"int32_t\000"
 4855      325F7400 
 4856              	.LASF2:
 4857 037d 756E7369 		.ascii	"unsigned char\000"
 4857      676E6564 
 4857      20636861 
 4857      7200
 4858              	.LASF64:
 4859 038b 6D625F74 		.ascii	"mb_top\000"
ARM GAS  /tmp/ccFQWhDI.s 			page 89


 4859      6F7000
 4860              	.LASF46:
 4861 0392 705F6D74 		.ascii	"p_mtxlist\000"
 4861      786C6973 
 4861      7400
 4862              	.LASF3:
 4863 039c 73686F72 		.ascii	"short int\000"
 4863      7420696E 
 4863      7400
 4864              	.LASF37:
 4865 03a6 705F7374 		.ascii	"p_state\000"
 4865      61746500 
 4866              	.LASF40:
 4867 03ae 705F7072 		.ascii	"p_preempt\000"
 4867      65656D70 
 4867      7400
 4868              	.LASF102:
 4869 03b8 2F686F6D 		.ascii	"/home/namv1994/CFSD19/Christian STM32 code/STM32F4/"
 4869      652F6E61 
 4869      6D763139 
 4869      39342F43 
 4869      46534431 
 4870 03eb 53544D33 		.ascii	"STM32F4/embedded/ChibiOS/nam-test-USB/USB_CDC\000"
 4870      3246342F 
 4870      656D6265 
 4870      64646564 
 4870      2F436869 
 4871              	.LASF73:
 4872 0419 65776D61 		.ascii	"ewmask\000"
 4872      736B00
 4873              	.LASF29:
 4874 0420 705F6E65 		.ascii	"p_next\000"
 4874      787400
 4875              	.LASF38:
 4876 0427 705F666C 		.ascii	"p_flags\000"
 4876      61677300 
 4877              	.LASF28:
 4878 042f 54687265 		.ascii	"Thread\000"
 4878      616400
 4879              	.LASF75:
 4880 0436 74657374 		.ascii	"testcase\000"
 4880      63617365 
 4880      00
 4881              	.LASF45:
 4882 043f 705F6570 		.ascii	"p_epending\000"
 4882      656E6469 
 4882      6E6700
 4883              	.LASF15:
 4884 044a 75696E74 		.ascii	"uint32_t\000"
 4884      33325F74 
 4884      00
 4885              	.LASF74:
 4886 0453 63686172 		.ascii	"char\000"
 4886      00
 4887              	.LASF62:
 4888 0458 6D5F6E65 		.ascii	"m_next\000"
 4888      787400
ARM GAS  /tmp/ccFQWhDI.s 			page 90


 4889              	.LASF26:
 4890 045f 73797374 		.ascii	"systime_t\000"
 4890      696D655F 
 4890      7400
 4891              	.LASF47:
 4892 0469 705F7265 		.ascii	"p_realprio\000"
 4892      616C7072 
 4892      696F00
 4893              	.LASF6:
 4894 0474 5F5F696E 		.ascii	"__int32_t\000"
 4894      7433325F 
 4894      7400
 4895              	.LASF41:
 4896 047e 705F7469 		.ascii	"p_time\000"
 4896      6D6500
 4897              	.LASF90:
 4898 0485 63684D42 		.ascii	"chMBPostAhead\000"
 4898      506F7374 
 4898      41686561 
 4898      6400
 4899              	.LASF53:
 4900 0493 696E7463 		.ascii	"intctx\000"
 4900      747800
 4901              	.LASF43:
 4902 049a 705F6D73 		.ascii	"p_msgqueue\000"
 4902      67717565 
 4902      756500
 4903              	.LASF95:
 4904 04a5 63684D42 		.ascii	"chMBFetch\000"
 4904      46657463 
 4904      6800
 4905              	.LASF56:
 4906 04af 53656D61 		.ascii	"Semaphore\000"
 4906      70686F72 
 4906      6500
 4907              	.LASF67:
 4908 04b9 6D625F66 		.ascii	"mb_fullsem\000"
 4908      756C6C73 
 4908      656D00
 4909              	.LASF103:
 4910 04c4 74657374 		.ascii	"test_buffers\000"
 4910      5F627566 
 4910      66657273 
 4910      00
 4911              	.LASF39:
 4912 04d1 705F7265 		.ascii	"p_refs\000"
 4912      667300
 4913              	.LASF13:
 4914 04d8 75696E74 		.ascii	"uint8_t\000"
 4914      385F7400 
 4915              	.LASF72:
 4916 04e0 77746F62 		.ascii	"wtobjp\000"
 4916      6A7000
 4917              	.LASF35:
 4918 04e7 705F6E61 		.ascii	"p_name\000"
 4918      6D6500
 4919              	.LASF88:
ARM GAS  /tmp/ccFQWhDI.s 			page 91


 4920 04ee 5F746573 		.ascii	"_test_assert\000"
 4920      745F6173 
 4920      73657274 
 4920      00
 4921              	.LASF61:
 4922 04fb 6D5F6F77 		.ascii	"m_owner\000"
 4922      6E657200 
 4923              	.LASF32:
 4924 0503 705F6374 		.ascii	"p_ctx\000"
 4924      7800
 4925              	.LASF42:
 4926 0509 705F7761 		.ascii	"p_waiting\000"
 4926      6974696E 
 4926      6700
 4927              		.ident	"GCC: (15:4.9.3+svn231177-1) 4.9.3 20150529 (prerelease)"
ARM GAS  /tmp/ccFQWhDI.s 			page 92


DEFINED SYMBOLS
                            *ABS*:0000000000000000 testmbox.c
     /tmp/ccFQWhDI.s:19     .text.mbox1_execute:0000000000000000 $t
     /tmp/ccFQWhDI.s:24     .text.mbox1_execute:0000000000000000 mbox1_execute
     /tmp/ccFQWhDI.s:243    .text.mbox1_execute:000000000000012c $d
     /tmp/ccFQWhDI.s:246    .text.mbox1_execute:0000000000000130 $t
     /tmp/ccFQWhDI.s:762    .text.mbox1_execute:0000000000000454 $d
     /tmp/ccFQWhDI.s:767    .text.mbox1_execute:000000000000045c $t
     /tmp/ccFQWhDI.s:1145   .text.mbox1_execute:0000000000000694 $d
     /tmp/ccFQWhDI.s:1151   .text.mbox1_setup:0000000000000000 $t
     /tmp/ccFQWhDI.s:1156   .text.mbox1_setup:0000000000000000 mbox1_setup
     /tmp/ccFQWhDI.s:1172   .text.mbox1_setup:000000000000000c $d
     /tmp/ccFQWhDI.s:1199   .rodata.patternmbox:0000000000000000 patternmbox
     /tmp/ccFQWhDI.s:1213   .rodata.testmbox1:0000000000000000 testmbox1
     /tmp/ccFQWhDI.s:1180   .data.mb1:0000000000000000 $d
     /tmp/ccFQWhDI.s:1184   .data.mb1:0000000000000000 mb1
     /tmp/ccFQWhDI.s:1196   .rodata.patternmbox:0000000000000000 $d
     /tmp/ccFQWhDI.s:1203   .rodata.str1.4:0000000000000000 $d
     /tmp/ccFQWhDI.s:1210   .rodata.testmbox1:0000000000000000 $d
                     .debug_frame:0000000000000010 $d

UNDEFINED SYMBOLS
_test_assert
chMBPost
chMBPostAhead
dbg_check_lock
chMBPostI
dbg_check_unlock
chMBPostAheadI
chMBFetch
test_emit_token
_test_assert_sequence
chMBFetchI
chMBReset
chMBInit
test
