ARM GAS  /tmp/ccjLWzlq.s 			page 1


   1              		.syntax unified
   2              		.cpu cortex-m4
   3              		.fpu softvfp
   4              		.eabi_attribute 20, 1
   5              		.eabi_attribute 21, 1
   6              		.eabi_attribute 23, 3
   7              		.eabi_attribute 24, 1
   8              		.eabi_attribute 25, 1
   9              		.eabi_attribute 26, 1
  10              		.eabi_attribute 30, 2
  11              		.eabi_attribute 34, 1
  12              		.eabi_attribute 18, 4
  13              		.thumb
  14              		.file	"testthd.c"
  15              		.text
  16              	.Ltext0:
  17              		.cfi_sections	.debug_frame
  18              		.section	.text.thd1_execute,"ax",%progbits
  19              		.align	2
  20              		.p2align 4,,15
  21              		.thumb
  22              		.thumb_func
  23              		.type	thd1_execute, %function
  24              	thd1_execute:
  25              	.LFB8:
  26              		.file 1 "../../ChibiOS_2.6.5/test/testthd.c"
  27              		.loc 1 66 0
  28              		.cfi_startproc
  29              		@ args = 0, pretend = 0, frame = 0
  30              		@ frame_needed = 0, uses_anonymous_args = 0
  31 0000 F0B5     		push	{r4, r5, r6, r7, lr}
  32              		.cfi_def_cfa_offset 20
  33              		.cfi_offset 4, -20
  34              		.cfi_offset 5, -16
  35              		.cfi_offset 6, -12
  36              		.cfi_offset 7, -8
  37              		.cfi_offset 14, -4
  38              		.loc 1 68 0
  39 0002 274F     		ldr	r7, .L3
  40 0004 274E     		ldr	r6, .L3+4
  41 0006 BB69     		ldr	r3, [r7, #24]
  42 0008 274D     		ldr	r5, .L3+8
  43 000a 9A68     		ldr	r2, [r3, #8]
  44 000c 274B     		ldr	r3, .L3+12
  45 000e 3068     		ldr	r0, [r6]
  46 0010 274C     		ldr	r4, .L3+16
  47              		.loc 1 66 0
  48 0012 83B0     		sub	sp, sp, #12
  49              		.cfi_def_cfa_offset 32
  50              		.loc 1 68 0
  51 0014 053A     		subs	r2, r2, #5
  52 0016 0093     		str	r3, [sp]
  53 0018 4FF4A871 		mov	r1, #336
  54 001c 2B46     		mov	r3, r5
  55 001e FFF7FEFF 		bl	chThdCreateStatic
  56              	.LVL0:
  57              		.loc 1 69 0
ARM GAS  /tmp/ccjLWzlq.s 			page 2


  58 0022 BB69     		ldr	r3, [r7, #24]
  59 0024 2349     		ldr	r1, .L3+20
  60 0026 9A68     		ldr	r2, [r3, #8]
  61 0028 7368     		ldr	r3, [r6, #4]
  62              		.loc 1 68 0
  63 002a 2060     		str	r0, [r4]
  64              		.loc 1 69 0
  65 002c 0091     		str	r1, [sp]
  66 002e 043A     		subs	r2, r2, #4
  67 0030 1846     		mov	r0, r3
  68 0032 4FF4A871 		mov	r1, #336
  69 0036 2B46     		mov	r3, r5
  70 0038 FFF7FEFF 		bl	chThdCreateStatic
  71              	.LVL1:
  72              		.loc 1 70 0
  73 003c BA69     		ldr	r2, [r7, #24]
  74 003e B368     		ldr	r3, [r6, #8]
  75 0040 9268     		ldr	r2, [r2, #8]
  76 0042 1D49     		ldr	r1, .L3+24
  77              		.loc 1 69 0
  78 0044 6060     		str	r0, [r4, #4]
  79              		.loc 1 70 0
  80 0046 0091     		str	r1, [sp]
  81 0048 033A     		subs	r2, r2, #3
  82 004a 1846     		mov	r0, r3
  83 004c 4FF4A871 		mov	r1, #336
  84 0050 2B46     		mov	r3, r5
  85 0052 FFF7FEFF 		bl	chThdCreateStatic
  86              	.LVL2:
  87              		.loc 1 71 0
  88 0056 BA69     		ldr	r2, [r7, #24]
  89 0058 F368     		ldr	r3, [r6, #12]
  90 005a 9268     		ldr	r2, [r2, #8]
  91 005c 1749     		ldr	r1, .L3+28
  92              		.loc 1 70 0
  93 005e A060     		str	r0, [r4, #8]
  94              		.loc 1 71 0
  95 0060 0091     		str	r1, [sp]
  96 0062 023A     		subs	r2, r2, #2
  97 0064 1846     		mov	r0, r3
  98 0066 4FF4A871 		mov	r1, #336
  99 006a 2B46     		mov	r3, r5
 100 006c FFF7FEFF 		bl	chThdCreateStatic
 101              	.LVL3:
 102              		.loc 1 72 0
 103 0070 BA69     		ldr	r2, [r7, #24]
 104 0072 3369     		ldr	r3, [r6, #16]
 105 0074 9268     		ldr	r2, [r2, #8]
 106 0076 1249     		ldr	r1, .L3+32
 107              		.loc 1 71 0
 108 0078 E060     		str	r0, [r4, #12]
 109              		.loc 1 72 0
 110 007a 013A     		subs	r2, r2, #1
 111 007c 0091     		str	r1, [sp]
 112 007e 1846     		mov	r0, r3
 113 0080 4FF4A871 		mov	r1, #336
 114 0084 2B46     		mov	r3, r5
ARM GAS  /tmp/ccjLWzlq.s 			page 3


 115 0086 FFF7FEFF 		bl	chThdCreateStatic
 116              	.LVL4:
 117 008a 2061     		str	r0, [r4, #16]
 118              		.loc 1 73 0
 119 008c FFF7FEFF 		bl	test_wait_threads
 120              	.LVL5:
 121              		.loc 1 74 0
 122 0090 0C49     		ldr	r1, .L3+36
 123 0092 0120     		movs	r0, #1
 124              		.loc 1 75 0
 125 0094 03B0     		add	sp, sp, #12
 126              		.cfi_def_cfa_offset 20
 127              		@ sp needed
 128 0096 BDE8F040 		pop	{r4, r5, r6, r7, lr}
 129              		.cfi_restore 14
 130              		.cfi_restore 7
 131              		.cfi_restore 6
 132              		.cfi_restore 5
 133              		.cfi_restore 4
 134              		.cfi_def_cfa_offset 0
 135              		.loc 1 74 0
 136 009a FFF7FEBF 		b	_test_assert_sequence
 137              	.LVL6:
 138              	.L4:
 139 009e 00BF     		.align	2
 140              	.L3:
 141 00a0 00000000 		.word	rlist
 142 00a4 00000000 		.word	wa
 143 00a8 00000000 		.word	thread
 144 00ac 00000000 		.word	.LC0
 145 00b0 00000000 		.word	threads
 146 00b4 04000000 		.word	.LC1
 147 00b8 08000000 		.word	.LC2
 148 00bc 0C000000 		.word	.LC3
 149 00c0 10000000 		.word	.LC4
 150 00c4 14000000 		.word	.LC5
 151              		.cfi_endproc
 152              	.LFE8:
 153              		.size	thd1_execute, .-thd1_execute
 154              		.section	.text.thread,"ax",%progbits
 155              		.align	2
 156              		.p2align 4,,15
 157              		.thumb
 158              		.thumb_func
 159              		.type	thread, %function
 160              	thread:
 161              	.LFB7:
 162              		.loc 1 60 0
 163              		.cfi_startproc
 164              		@ args = 0, pretend = 0, frame = 0
 165              		@ frame_needed = 0, uses_anonymous_args = 0
 166              	.LVL7:
 167 0000 08B5     		push	{r3, lr}
 168              		.cfi_def_cfa_offset 8
 169              		.cfi_offset 3, -8
 170              		.cfi_offset 14, -4
 171              		.loc 1 62 0
ARM GAS  /tmp/ccjLWzlq.s 			page 4


 172 0002 0078     		ldrb	r0, [r0]	@ zero_extendqisi2
 173              	.LVL8:
 174 0004 FFF7FEFF 		bl	test_emit_token
 175              	.LVL9:
 176              		.loc 1 64 0
 177 0008 0020     		movs	r0, #0
 178 000a 08BD     		pop	{r3, pc}
 179              		.cfi_endproc
 180              	.LFE7:
 181              		.size	thread, .-thread
 182              		.section	.text.thd2_execute,"ax",%progbits
 183              		.align	2
 184              		.p2align 4,,15
 185              		.thumb
 186              		.thumb_func
 187              		.type	thd2_execute, %function
 188              	thd2_execute:
 189              	.LFB9:
 190              		.loc 1 94 0
 191              		.cfi_startproc
 192              		@ args = 0, pretend = 0, frame = 0
 193              		@ frame_needed = 0, uses_anonymous_args = 0
 194 0000 F0B5     		push	{r4, r5, r6, r7, lr}
 195              		.cfi_def_cfa_offset 20
 196              		.cfi_offset 4, -20
 197              		.cfi_offset 5, -16
 198              		.cfi_offset 6, -12
 199              		.cfi_offset 7, -8
 200              		.cfi_offset 14, -4
 201              		.loc 1 96 0
 202 0002 2D4F     		ldr	r7, .L9
 203 0004 2D4E     		ldr	r6, .L9+4
 204 0006 BB69     		ldr	r3, [r7, #24]
 205 0008 2D4D     		ldr	r5, .L9+8
 206 000a 9A68     		ldr	r2, [r3, #8]
 207 000c 2D4B     		ldr	r3, .L9+12
 208 000e 7068     		ldr	r0, [r6, #4]
 209 0010 2D4C     		ldr	r4, .L9+16
 210              		.loc 1 94 0
 211 0012 83B0     		sub	sp, sp, #12
 212              		.cfi_def_cfa_offset 32
 213              		.loc 1 96 0
 214 0014 043A     		subs	r2, r2, #4
 215 0016 0093     		str	r3, [sp]
 216 0018 4FF4A871 		mov	r1, #336
 217 001c 2B46     		mov	r3, r5
 218 001e FFF7FEFF 		bl	chThdCreateStatic
 219              	.LVL10:
 220              		.loc 1 97 0
 221 0022 BB69     		ldr	r3, [r7, #24]
 222 0024 2949     		ldr	r1, .L9+20
 223 0026 9A68     		ldr	r2, [r3, #8]
 224 0028 3368     		ldr	r3, [r6]
 225              		.loc 1 96 0
 226 002a 6060     		str	r0, [r4, #4]
 227              		.loc 1 97 0
 228 002c 0091     		str	r1, [sp]
ARM GAS  /tmp/ccjLWzlq.s 			page 5


 229 002e 053A     		subs	r2, r2, #5
 230 0030 1846     		mov	r0, r3
 231 0032 4FF4A871 		mov	r1, #336
 232 0036 2B46     		mov	r3, r5
 233 0038 FFF7FEFF 		bl	chThdCreateStatic
 234              	.LVL11:
 235              		.loc 1 98 0
 236 003c BA69     		ldr	r2, [r7, #24]
 237 003e 3369     		ldr	r3, [r6, #16]
 238 0040 9268     		ldr	r2, [r2, #8]
 239 0042 2349     		ldr	r1, .L9+24
 240              		.loc 1 97 0
 241 0044 2060     		str	r0, [r4]
 242              		.loc 1 98 0
 243 0046 0091     		str	r1, [sp]
 244 0048 013A     		subs	r2, r2, #1
 245 004a 1846     		mov	r0, r3
 246 004c 4FF4A871 		mov	r1, #336
 247 0050 2B46     		mov	r3, r5
 248 0052 FFF7FEFF 		bl	chThdCreateStatic
 249              	.LVL12:
 250              		.loc 1 99 0
 251 0056 BA69     		ldr	r2, [r7, #24]
 252 0058 F368     		ldr	r3, [r6, #12]
 253 005a 9268     		ldr	r2, [r2, #8]
 254 005c 1D49     		ldr	r1, .L9+28
 255              		.loc 1 98 0
 256 005e 2061     		str	r0, [r4, #16]
 257              		.loc 1 99 0
 258 0060 0091     		str	r1, [sp]
 259 0062 023A     		subs	r2, r2, #2
 260 0064 1846     		mov	r0, r3
 261 0066 4FF4A871 		mov	r1, #336
 262 006a 2B46     		mov	r3, r5
 263 006c FFF7FEFF 		bl	chThdCreateStatic
 264              	.LVL13:
 265              	.LBB2:
 266              		.loc 1 101 0
 267 0070 2023     		movs	r3, #32
 268              	.LBE2:
 269              		.loc 1 99 0
 270 0072 E060     		str	r0, [r4, #12]
 271              	.LBB3:
 272              		.loc 1 101 0
 273              	@ 101 "../../ChibiOS_2.6.5/test/testthd.c" 1
 274 0074 83F31188 		msr     BASEPRI, r3
 275              	@ 0 "" 2
 276              		.thumb
 277              	.LBE3:
 278 0078 FFF7FEFF 		bl	dbg_check_lock
 279              	.LVL14:
 280              		.loc 1 102 0
 281 007c BB69     		ldr	r3, [r7, #24]
 282 007e B068     		ldr	r0, [r6, #8]
 283 0080 9A68     		ldr	r2, [r3, #8]
 284 0082 154B     		ldr	r3, .L9+32
 285 0084 0093     		str	r3, [sp]
ARM GAS  /tmp/ccjLWzlq.s 			page 6


 286 0086 033A     		subs	r2, r2, #3
 287 0088 2B46     		mov	r3, r5
 288 008a 4FF4A871 		mov	r1, #336
 289 008e FFF7FEFF 		bl	chThdCreateI
 290              	.LVL15:
 291 0092 A060     		str	r0, [r4, #8]
 292              		.loc 1 103 0
 293 0094 FFF7FEFF 		bl	dbg_check_unlock
 294              	.LVL16:
 295              	.LBB4:
 296 0098 0023     		movs	r3, #0
 297              	@ 103 "../../ChibiOS_2.6.5/test/testthd.c" 1
 298 009a 83F31188 		msr     BASEPRI, r3
 299              	@ 0 "" 2
 300              		.thumb
 301              	.LBE4:
 302              		.loc 1 104 0
 303 009e A068     		ldr	r0, [r4, #8]
 304 00a0 FFF7FEFF 		bl	chThdResume
 305              	.LVL17:
 306              		.loc 1 105 0
 307 00a4 FFF7FEFF 		bl	test_wait_threads
 308              	.LVL18:
 309              		.loc 1 106 0
 310 00a8 0C49     		ldr	r1, .L9+36
 311 00aa 0120     		movs	r0, #1
 312              		.loc 1 107 0
 313 00ac 03B0     		add	sp, sp, #12
 314              		.cfi_def_cfa_offset 20
 315              		@ sp needed
 316 00ae BDE8F040 		pop	{r4, r5, r6, r7, lr}
 317              		.cfi_restore 14
 318              		.cfi_restore 7
 319              		.cfi_restore 6
 320              		.cfi_restore 5
 321              		.cfi_restore 4
 322              		.cfi_def_cfa_offset 0
 323              		.loc 1 106 0
 324 00b2 FFF7FEBF 		b	_test_assert_sequence
 325              	.LVL19:
 326              	.L10:
 327 00b6 00BF     		.align	2
 328              	.L9:
 329 00b8 00000000 		.word	rlist
 330 00bc 00000000 		.word	wa
 331 00c0 00000000 		.word	thread
 332 00c4 04000000 		.word	.LC1
 333 00c8 00000000 		.word	threads
 334 00cc 00000000 		.word	.LC0
 335 00d0 10000000 		.word	.LC4
 336 00d4 0C000000 		.word	.LC3
 337 00d8 08000000 		.word	.LC2
 338 00dc 14000000 		.word	.LC5
 339              		.cfi_endproc
 340              	.LFE9:
 341              		.size	thd2_execute, .-thd2_execute
 342              		.section	.text.thd3_execute,"ax",%progbits
ARM GAS  /tmp/ccjLWzlq.s 			page 7


 343              		.align	2
 344              		.p2align 4,,15
 345              		.thumb
 346              		.thumb_func
 347              		.type	thd3_execute, %function
 348              	thd3_execute:
 349              	.LFB10:
 350              		.loc 1 126 0
 351              		.cfi_startproc
 352              		@ args = 0, pretend = 0, frame = 0
 353              		@ frame_needed = 0, uses_anonymous_args = 0
 354 0000 F8B5     		push	{r3, r4, r5, r6, r7, lr}
 355              		.cfi_def_cfa_offset 24
 356              		.cfi_offset 3, -24
 357              		.cfi_offset 4, -20
 358              		.cfi_offset 5, -16
 359              		.cfi_offset 6, -12
 360              		.cfi_offset 7, -8
 361              		.cfi_offset 14, -4
 362              		.loc 1 129 0
 363 0002 504E     		ldr	r6, .L18
 364 0004 B369     		ldr	r3, [r6, #24]
 365 0006 9C68     		ldr	r4, [r3, #8]
 366              	.LVL20:
 367              		.loc 1 130 0
 368 0008 651C     		adds	r5, r4, #1
 369 000a 2846     		mov	r0, r5
 370 000c FFF7FEFF 		bl	chThdSetPriority
 371              	.LVL21:
 372              		.loc 1 131 0
 373 0010 011B     		subs	r1, r0, r4
 374              		.loc 1 130 0
 375 0012 0746     		mov	r7, r0
 376              	.LVL22:
 377              		.loc 1 131 0
 378 0014 B1FA81F1 		clz	r1, r1
 379 0018 0120     		movs	r0, #1
 380              	.LVL23:
 381 001a 4909     		lsrs	r1, r1, #5
 382 001c FFF7FEFF 		bl	_test_assert
 383              	.LVL24:
 384 0020 00B1     		cbz	r0, .L17
 385              	.LVL25:
 386              	.L11:
 387 0022 F8BD     		pop	{r3, r4, r5, r6, r7, pc}
 388              	.LVL26:
 389              	.L17:
 390              		.loc 1 133 0
 391 0024 B369     		ldr	r3, [r6, #24]
 392 0026 9968     		ldr	r1, [r3, #8]
 393 0028 0220     		movs	r0, #2
 394 002a 691A     		subs	r1, r5, r1
 395 002c B1FA81F1 		clz	r1, r1
 396 0030 4909     		lsrs	r1, r1, #5
 397 0032 FFF7FEFF 		bl	_test_assert
 398              	.LVL27:
 399 0036 0028     		cmp	r0, #0
ARM GAS  /tmp/ccjLWzlq.s 			page 8


 400 0038 F3D1     		bne	.L11
 401              		.loc 1 135 0
 402 003a 3846     		mov	r0, r7
 403 003c FFF7FEFF 		bl	chThdSetPriority
 404              	.LVL28:
 405              		.loc 1 136 0
 406 0040 291A     		subs	r1, r5, r0
 407 0042 0320     		movs	r0, #3
 408              	.LVL29:
 409 0044 B1FA81F1 		clz	r1, r1
 410 0048 4909     		lsrs	r1, r1, #5
 411 004a FFF7FEFF 		bl	_test_assert
 412              	.LVL30:
 413 004e 0028     		cmp	r0, #0
 414 0050 E7D1     		bne	.L11
 415              		.loc 1 138 0
 416 0052 B369     		ldr	r3, [r6, #24]
 417 0054 9968     		ldr	r1, [r3, #8]
 418 0056 0420     		movs	r0, #4
 419 0058 091B     		subs	r1, r1, r4
 420 005a B1FA81F1 		clz	r1, r1
 421 005e 4909     		lsrs	r1, r1, #5
 422 0060 FFF7FEFF 		bl	_test_assert
 423              	.LVL31:
 424 0064 0746     		mov	r7, r0
 425 0066 0028     		cmp	r0, #0
 426 0068 DBD1     		bne	.L11
 427              	.LBB5:
 428              		.loc 1 143 0
 429 006a 2023     		movs	r3, #32
 430              	@ 143 "../../ChibiOS_2.6.5/test/testthd.c" 1
 431 006c 83F31188 		msr     BASEPRI, r3
 432              	@ 0 "" 2
 433              		.thumb
 434              	.LBE5:
 435 0070 FFF7FEFF 		bl	dbg_check_lock
 436              	.LVL32:
 437              		.loc 1 144 0
 438 0074 B269     		ldr	r2, [r6, #24]
 439 0076 9368     		ldr	r3, [r2, #8]
 440 0078 0233     		adds	r3, r3, #2
 441 007a 9360     		str	r3, [r2, #8]
 442              		.loc 1 145 0
 443 007c FFF7FEFF 		bl	dbg_check_unlock
 444              	.LVL33:
 445              	.LBB6:
 446 0080 3B46     		mov	r3, r7
 447              	@ 145 "../../ChibiOS_2.6.5/test/testthd.c" 1
 448 0082 83F31188 		msr     BASEPRI, r3
 449              	@ 0 "" 2
 450              		.thumb
 451              	.LBE6:
 452              		.loc 1 146 0
 453 0086 B369     		ldr	r3, [r6, #24]
 454 0088 9968     		ldr	r1, [r3, #8]
 455 008a A71C     		adds	r7, r4, #2
 456 008c C91B     		subs	r1, r1, r7
ARM GAS  /tmp/ccjLWzlq.s 			page 9


 457 008e 0520     		movs	r0, #5
 458 0090 B1FA81F1 		clz	r1, r1
 459 0094 4909     		lsrs	r1, r1, #5
 460 0096 FFF7FEFF 		bl	_test_assert
 461              	.LVL34:
 462 009a 0028     		cmp	r0, #0
 463 009c C1D1     		bne	.L11
 464              		.loc 1 150 0
 465 009e 2846     		mov	r0, r5
 466 00a0 FFF7FEFF 		bl	chThdSetPriority
 467              	.LVL35:
 468              		.loc 1 151 0
 469 00a4 011B     		subs	r1, r0, r4
 470 00a6 0620     		movs	r0, #6
 471              	.LVL36:
 472 00a8 B1FA81F1 		clz	r1, r1
 473 00ac 4909     		lsrs	r1, r1, #5
 474 00ae FFF7FEFF 		bl	_test_assert
 475              	.LVL37:
 476 00b2 0028     		cmp	r0, #0
 477 00b4 B5D1     		bne	.L11
 478              		.loc 1 153 0
 479 00b6 B369     		ldr	r3, [r6, #24]
 480 00b8 9968     		ldr	r1, [r3, #8]
 481 00ba 0720     		movs	r0, #7
 482 00bc 791A     		subs	r1, r7, r1
 483 00be B1FA81F1 		clz	r1, r1
 484 00c2 4909     		lsrs	r1, r1, #5
 485 00c4 FFF7FEFF 		bl	_test_assert
 486              	.LVL38:
 487 00c8 0028     		cmp	r0, #0
 488 00ca AAD1     		bne	.L11
 489              		.loc 1 155 0
 490 00cc B369     		ldr	r3, [r6, #24]
 491 00ce 596C     		ldr	r1, [r3, #68]
 492 00d0 0820     		movs	r0, #8
 493 00d2 691A     		subs	r1, r5, r1
 494 00d4 B1FA81F1 		clz	r1, r1
 495 00d8 4909     		lsrs	r1, r1, #5
 496 00da FFF7FEFF 		bl	_test_assert
 497              	.LVL39:
 498 00de 0028     		cmp	r0, #0
 499 00e0 9FD1     		bne	.L11
 500              		.loc 1 159 0
 501 00e2 E71C     		adds	r7, r4, #3
 502 00e4 3846     		mov	r0, r7
 503 00e6 FFF7FEFF 		bl	chThdSetPriority
 504              	.LVL40:
 505              		.loc 1 160 0
 506 00ea 281A     		subs	r0, r5, r0
 507              	.LVL41:
 508 00ec 4142     		rsbs	r1, r0, #0
 509 00ee 4141     		adcs	r1, r1, r0
 510 00f0 0920     		movs	r0, #9
 511 00f2 FFF7FEFF 		bl	_test_assert
 512              	.LVL42:
 513 00f6 0028     		cmp	r0, #0
ARM GAS  /tmp/ccjLWzlq.s 			page 10


 514 00f8 93D1     		bne	.L11
 515              		.loc 1 162 0
 516 00fa B369     		ldr	r3, [r6, #24]
 517 00fc 9968     		ldr	r1, [r3, #8]
 518 00fe 7A1A     		subs	r2, r7, r1
 519 0100 5142     		rsbs	r1, r2, #0
 520 0102 5141     		adcs	r1, r1, r2
 521 0104 0A20     		movs	r0, #10
 522 0106 FFF7FEFF 		bl	_test_assert
 523              	.LVL43:
 524 010a 0028     		cmp	r0, #0
 525 010c 89D1     		bne	.L11
 526              		.loc 1 164 0
 527 010e B369     		ldr	r3, [r6, #24]
 528 0110 596C     		ldr	r1, [r3, #68]
 529 0112 7B1A     		subs	r3, r7, r1
 530 0114 5942     		rsbs	r1, r3, #0
 531 0116 4FF00B00 		mov	r0, #11
 532 011a 5941     		adcs	r1, r1, r3
 533 011c FFF7FEFF 		bl	_test_assert
 534              	.LVL44:
 535 0120 0546     		mov	r5, r0
 536 0122 0028     		cmp	r0, #0
 537 0124 7FF47DAF 		bne	.L11
 538              	.LBB7:
 539              		.loc 1 167 0
 540 0128 2023     		movs	r3, #32
 541              	@ 167 "../../ChibiOS_2.6.5/test/testthd.c" 1
 542 012a 83F31188 		msr     BASEPRI, r3
 543              	@ 0 "" 2
 544              		.thumb
 545              	.LBE7:
 546 012e FFF7FEFF 		bl	dbg_check_lock
 547              	.LVL45:
 548              		.loc 1 168 0
 549 0132 B369     		ldr	r3, [r6, #24]
 550 0134 9C60     		str	r4, [r3, #8]
 551              		.loc 1 169 0
 552 0136 5C64     		str	r4, [r3, #68]
 553              		.loc 1 170 0
 554 0138 FFF7FEFF 		bl	dbg_check_unlock
 555              	.LVL46:
 556              	.LBB8:
 557 013c 2B46     		mov	r3, r5
 558              	@ 170 "../../ChibiOS_2.6.5/test/testthd.c" 1
 559 013e 83F31188 		msr     BASEPRI, r3
 560              	@ 0 "" 2
 561              		.thumb
 562 0142 6EE7     		b	.L11
 563              	.L19:
 564              		.align	2
 565              	.L18:
 566 0144 00000000 		.word	rlist
 567              	.LBE8:
 568              		.cfi_endproc
 569              	.LFE10:
 570              		.size	thd3_execute, .-thd3_execute
ARM GAS  /tmp/ccjLWzlq.s 			page 11


 571              		.section	.text.thd4_execute,"ax",%progbits
 572              		.align	2
 573              		.p2align 4,,15
 574              		.thumb
 575              		.thumb_func
 576              		.type	thd4_execute, %function
 577              	thd4_execute:
 578              	.LFB11:
 579              		.loc 1 189 0
 580              		.cfi_startproc
 581              		@ args = 0, pretend = 0, frame = 0
 582              		@ frame_needed = 0, uses_anonymous_args = 0
 583 0000 38B5     		push	{r3, r4, r5, lr}
 584              		.cfi_def_cfa_offset 16
 585              		.cfi_offset 3, -16
 586              		.cfi_offset 4, -12
 587              		.cfi_offset 5, -8
 588              		.cfi_offset 14, -4
 589              		.loc 1 195 0
 590 0002 1C4D     		ldr	r5, .L26
 591              		.loc 1 192 0
 592 0004 FFF7FEFF 		bl	test_wait_tick
 593              	.LVL47:
 594              		.loc 1 195 0
 595 0008 EC68     		ldr	r4, [r5, #12]
 596              	.LVL48:
 597              		.loc 1 196 0
 598 000a 6420     		movs	r0, #100
 599 000c FFF7FEFF 		bl	chThdSleep
 600              	.LVL49:
 601              		.loc 1 197 0
 602 0010 04F16401 		add	r1, r4, #100
 603 0014 04F16502 		add	r2, r4, #101
 604 0018 0120     		movs	r0, #1
 605 001a FFF7FEFF 		bl	_test_assert_time_window
 606              	.LVL50:
 607 001e 00B1     		cbz	r0, .L25
 608              	.LVL51:
 609              	.L20:
 610 0020 38BD     		pop	{r3, r4, r5, pc}
 611              	.LVL52:
 612              	.L25:
 613              		.loc 1 200 0
 614 0022 EC68     		ldr	r4, [r5, #12]
 615              	.LVL53:
 616              		.loc 1 201 0
 617 0024 6420     		movs	r0, #100
 618 0026 FFF7FEFF 		bl	chThdSleep
 619              	.LVL54:
 620              		.loc 1 202 0
 621 002a 04F16401 		add	r1, r4, #100
 622 002e 04F16502 		add	r2, r4, #101
 623 0032 0220     		movs	r0, #2
 624 0034 FFF7FEFF 		bl	_test_assert_time_window
 625              	.LVL55:
 626 0038 0028     		cmp	r0, #0
 627 003a F1D1     		bne	.L20
ARM GAS  /tmp/ccjLWzlq.s 			page 12


 628              	.LBB11:
 629              	.LBB12:
 630              		.loc 1 205 0
 631 003c EC68     		ldr	r4, [r5, #12]
 632              	.LVL56:
 633              		.loc 1 206 0
 634 003e 4FF47A70 		mov	r0, #1000
 635 0042 FFF7FEFF 		bl	chThdSleep
 636              	.LVL57:
 637              		.loc 1 207 0
 638 0046 04F57A71 		add	r1, r4, #1000
 639 004a 04F2E932 		addw	r2, r4, #1001
 640 004e 0320     		movs	r0, #3
 641 0050 FFF7FEFF 		bl	_test_assert_time_window
 642              	.LVL58:
 643 0054 0028     		cmp	r0, #0
 644 0056 E3D1     		bne	.L20
 645              		.loc 1 210 0
 646 0058 EC68     		ldr	r4, [r5, #12]
 647              	.LVL59:
 648 005a 04F16405 		add	r5, r4, #100
 649              	.LVL60:
 650              		.loc 1 211 0
 651 005e 2846     		mov	r0, r5
 652 0060 FFF7FEFF 		bl	chThdSleepUntil
 653              	.LVL61:
 654              		.loc 1 212 0
 655 0064 2946     		mov	r1, r5
 656 0066 04F16502 		add	r2, r4, #101
 657 006a 0420     		movs	r0, #4
 658              	.LBE12:
 659              	.LBE11:
 660              		.loc 1 213 0
 661 006c BDE83840 		pop	{r3, r4, r5, lr}
 662              		.cfi_restore 14
 663              		.cfi_restore 5
 664              		.cfi_restore 4
 665              		.cfi_restore 3
 666              		.cfi_def_cfa_offset 0
 667              	.LVL62:
 668              	.LBB14:
 669              	.LBB13:
 670              		.loc 1 212 0
 671 0070 FFF7FEBF 		b	_test_assert_time_window
 672              	.LVL63:
 673              	.L27:
 674              		.align	2
 675              	.L26:
 676 0074 00000000 		.word	vtlist
 677              	.LBE13:
 678              	.LBE14:
 679              		.cfi_endproc
 680              	.LFE11:
 681              		.size	thd4_execute, .-thd4_execute
 682              		.global	patternthd
 683              		.global	testthd4
 684              		.global	testthd3
ARM GAS  /tmp/ccjLWzlq.s 			page 13


 685              		.global	testthd2
 686              		.global	testthd1
 687              		.section	.rodata.testthd1,"a",%progbits
 688              		.align	2
 689              		.type	testthd1, %object
 690              		.size	testthd1, 16
 691              	testthd1:
 692 0000 64000000 		.word	.LC9
 693 0004 00000000 		.word	0
 694 0008 00000000 		.word	0
 695 000c 00000000 		.word	thd1_execute
 696              		.section	.rodata.testthd2,"a",%progbits
 697              		.align	2
 698              		.type	testthd2, %object
 699              		.size	testthd2, 16
 700              	testthd2:
 701 0000 48000000 		.word	.LC8
 702 0004 00000000 		.word	0
 703 0008 00000000 		.word	0
 704 000c 00000000 		.word	thd2_execute
 705              		.section	.rodata.testthd3,"a",%progbits
 706              		.align	2
 707              		.type	testthd3, %object
 708              		.size	testthd3, 16
 709              	testthd3:
 710 0000 2C000000 		.word	.LC7
 711 0004 00000000 		.word	0
 712 0008 00000000 		.word	0
 713 000c 00000000 		.word	thd3_execute
 714              		.section	.rodata.testthd4,"a",%progbits
 715              		.align	2
 716              		.type	testthd4, %object
 717              		.size	testthd4, 16
 718              	testthd4:
 719 0000 1C000000 		.word	.LC6
 720 0004 00000000 		.word	0
 721 0008 00000000 		.word	0
 722 000c 00000000 		.word	thd4_execute
 723              		.section	.rodata.patternthd,"a",%progbits
 724              		.align	2
 725              		.type	patternthd, %object
 726              		.size	patternthd, 20
 727              	patternthd:
 728 0000 00000000 		.word	testthd1
 729 0004 00000000 		.word	testthd2
 730 0008 00000000 		.word	testthd3
 731 000c 00000000 		.word	testthd4
 732 0010 00000000 		.word	0
 733              		.section	.rodata.str1.4,"aMS",%progbits,1
 734              		.align	2
 735              	.LC0:
 736 0000 4500     		.ascii	"E\000"
 737 0002 0000     		.space	2
 738              	.LC1:
 739 0004 4400     		.ascii	"D\000"
 740 0006 0000     		.space	2
 741              	.LC2:
ARM GAS  /tmp/ccjLWzlq.s 			page 14


 742 0008 4300     		.ascii	"C\000"
 743 000a 0000     		.space	2
 744              	.LC3:
 745 000c 4200     		.ascii	"B\000"
 746 000e 0000     		.space	2
 747              	.LC4:
 748 0010 4100     		.ascii	"A\000"
 749 0012 0000     		.space	2
 750              	.LC5:
 751 0014 41424344 		.ascii	"ABCDE\000"
 751      4500
 752 001a 0000     		.space	2
 753              	.LC6:
 754 001c 54687265 		.ascii	"Threads, delays\000"
 754      6164732C 
 754      2064656C 
 754      61797300 
 755              	.LC7:
 756 002c 54687265 		.ascii	"Threads, priority change\000"
 756      6164732C 
 756      20707269 
 756      6F726974 
 756      79206368 
 757 0045 000000   		.space	3
 758              	.LC8:
 759 0048 54687265 		.ascii	"Threads, enqueuing test #2\000"
 759      6164732C 
 759      20656E71 
 759      75657569 
 759      6E672074 
 760 0063 00       		.space	1
 761              	.LC9:
 762 0064 54687265 		.ascii	"Threads, enqueuing test #1\000"
 762      6164732C 
 762      20656E71 
 762      75657569 
 762      6E672074 
 763              		.text
 764              	.Letext0:
 765              		.file 2 "/usr/lib/gcc/arm-none-eabi/4.9.3/include/stddef.h"
 766              		.file 3 "/usr/include/newlib/machine/_default_types.h"
 767              		.file 4 "/usr/include/newlib/sys/_stdint.h"
 768              		.file 5 "../../ChibiOS_2.6.5/os/ports/GCC/ARMCMx/chtypes.h"
 769              		.file 6 "../../ChibiOS_2.6.5/os/kernel/include/chlists.h"
 770              		.file 7 "../../ChibiOS_2.6.5/os/kernel/include/chthreads.h"
 771              		.file 8 "../../ChibiOS_2.6.5/os/ports/GCC/ARMCMx/chcore_v7m.h"
 772              		.file 9 "../../ChibiOS_2.6.5/os/kernel/include/chvt.h"
 773              		.file 10 "../../ChibiOS_2.6.5/os/kernel/include/chschd.h"
 774              		.file 11 "../../ChibiOS_2.6.5/os/kernel/include/chmtx.h"
 775              		.file 12 "../../ChibiOS_2.6.5/test/test.h"
 776              		.file 13 "../../ChibiOS_2.6.5/os/kernel/include/chdebug.h"