ARM GAS  /tmp/ccFQWhDI.s 			page 1


   1              		.syntax unified
   2              		.cpu cortex-m4
   3              		.fpu softvfp
   4              		.eabi_attribute 20, 1
   5              		.eabi_attribute 21, 1
   6              		.eabi_attribute 23, 3
   7              		.eabi_attribute 24, 1
   8              		.eabi_attribute 25, 1
   9              		.eabi_attribute 26, 1
  10              		.eabi_attribute 30, 2
  11              		.eabi_attribute 34, 1
  12              		.eabi_attribute 18, 4
  13              		.thumb
  14              		.file	"testmbox.c"
  15              		.text
  16              	.Ltext0:
  17              		.cfi_sections	.debug_frame
  18              		.section	.text.mbox1_execute,"ax",%progbits
  19              		.align	2
  20              		.p2align 4,,15
  21              		.thumb
  22              		.thumb_func
  23              		.type	mbox1_execute, %function
  24              	mbox1_execute:
  25              	.LFB8:
  26              		.file 1 "../../ChibiOS_2.6.5/test/testmbox.c"
  27              		.loc 1 76 0
  28              		.cfi_startproc
  29              		@ args = 0, pretend = 0, frame = 8
  30              		@ frame_needed = 0, uses_anonymous_args = 0
  31 0000 F0B5     		push	{r4, r5, r6, r7, lr}
  32              		.cfi_def_cfa_offset 20
  33              		.cfi_offset 4, -20
  34              		.cfi_offset 5, -16
  35              		.cfi_offset 6, -12
  36              		.cfi_offset 7, -8
  37              		.cfi_offset 14, -4
  38              		.loc 1 83 0
  39 0002 4A4E     		ldr	r6, .L32
  40 0004 716A     		ldr	r1, [r6, #36]
  41              		.loc 1 76 0
  42 0006 83B0     		sub	sp, sp, #12
  43              		.cfi_def_cfa_offset 32
  44              		.loc 1 83 0
  45 0008 A1F10501 		sub	r1, #5
  46 000c 0120     		movs	r0, #1
  47 000e B1FA81F1 		clz	r1, r1
  48 0012 4909     		lsrs	r1, r1, #5
  49 0014 FFF7FEFF 		bl	_test_assert
  50              	.LVL0:
  51 0018 F0B9     		cbnz	r0, .L1
  52 001a 4224     		movs	r4, #66
  53              	.L3:
  54              	.LVL1:
  55              		.loc 1 89 0
  56 001c 434D     		ldr	r5, .L32
  57 001e 2146     		mov	r1, r4
ARM GAS  /tmp/ccFQWhDI.s 			page 2


  58 0020 4FF0FF32 		mov	r2, #-1
  59 0024 2846     		mov	r0, r5
  60 0026 FFF7FEFF 		bl	chMBPost
  61              	.LVL2:
  62              		.loc 1 90 0
  63 002a B0FA80F1 		clz	r1, r0
  64 002e 0220     		movs	r0, #2
  65              	.LVL3:
  66 0030 4909     		lsrs	r1, r1, #5
  67 0032 FFF7FEFF 		bl	_test_assert
  68              	.LVL4:
  69 0036 0134     		adds	r4, r4, #1
  70              	.LVL5:
  71 0038 70B9     		cbnz	r0, .L1
  72              		.loc 1 88 0 discriminator 2
  73 003a 462C     		cmp	r4, #70
  74 003c EED1     		bne	.L3
  75              		.loc 1 92 0
  76 003e 4121     		movs	r1, #65
  77 0040 2846     		mov	r0, r5
  78 0042 4FF0FF32 		mov	r2, #-1
  79 0046 FFF7FEFF 		bl	chMBPostAhead
  80              	.LVL6:
  81              		.loc 1 93 0
  82 004a B0FA80F1 		clz	r1, r0
  83 004e 0320     		movs	r0, #3
  84              	.LVL7:
  85 0050 4909     		lsrs	r1, r1, #5
  86 0052 FFF7FEFF 		bl	_test_assert
  87              	.LVL8:
  88 0056 08B1     		cbz	r0, .L31
  89              	.LVL9:
  90              	.L1:
  91              		.loc 1 220 0
  92 0058 03B0     		add	sp, sp, #12
  93              		.cfi_remember_state
  94              		.cfi_def_cfa_offset 20
  95              		@ sp needed
  96 005a F0BD     		pop	{r4, r5, r6, r7, pc}
  97              	.LVL10:
  98              	.L31:
  99              		.cfi_restore_state
 100              		.loc 1 98 0
 101 005c 5821     		movs	r1, #88
 102 005e 0122     		movs	r2, #1
 103 0060 2846     		mov	r0, r5
 104 0062 FFF7FEFF 		bl	chMBPost
 105              	.LVL11:
 106              		.loc 1 99 0
 107 0066 A0F1FF31 		sub	r1, r0, #-1
 108 006a 0420     		movs	r0, #4
 109              	.LVL12:
 110 006c B1FA81F1 		clz	r1, r1
 111              	.LVL13:
 112 0070 4909     		lsrs	r1, r1, #5
 113 0072 FFF7FEFF 		bl	_test_assert
 114              	.LVL14:
ARM GAS  /tmp/ccFQWhDI.s 			page 3


 115 0076 0446     		mov	r4, r0
 116              	.LVL15:
 117 0078 0028     		cmp	r0, #0
 118 007a EDD1     		bne	.L1
 119              	.LBB2:
 120              		.loc 1 100 0
 121 007c 2023     		movs	r3, #32
 122              	@ 100 "../../ChibiOS_2.6.5/test/testmbox.c" 1
 123 007e 83F31188 		msr     BASEPRI, r3
 124              	@ 0 "" 2
 125              		.thumb
 126              	.LBE2:
 127 0082 FFF7FEFF 		bl	dbg_check_lock
 128              	.LVL16:
 129              		.loc 1 101 0
 130 0086 5821     		movs	r1, #88
 131 0088 2846     		mov	r0, r5
 132 008a FFF7FEFF 		bl	chMBPostI
 133              	.LVL17:
 134 008e 0746     		mov	r7, r0
 135              	.LVL18:
 136              		.loc 1 102 0
 137 0090 FFF7FEFF 		bl	dbg_check_unlock
 138              	.LVL19:
 139              	.LBB3:
 140 0094 2346     		mov	r3, r4
 141              	@ 102 "../../ChibiOS_2.6.5/test/testmbox.c" 1
 142 0096 83F31188 		msr     BASEPRI, r3
 143              	@ 0 "" 2
 144              		.thumb
 145              	.LBE3:
 146              		.loc 1 103 0
 147 009a 0520     		movs	r0, #5
 148 009c A7F1FF31 		sub	r1, r7, #-1
 149 00a0 B1FA81F1 		clz	r1, r1
 150 00a4 4909     		lsrs	r1, r1, #5
 151 00a6 FFF7FEFF 		bl	_test_assert
 152              	.LVL20:
 153 00aa 0028     		cmp	r0, #0
 154 00ac D4D1     		bne	.L1
 155              		.loc 1 104 0
 156 00ae 5821     		movs	r1, #88
 157 00b0 0122     		movs	r2, #1
 158 00b2 2846     		mov	r0, r5
 159 00b4 FFF7FEFF 		bl	chMBPostAhead
 160              	.LVL21:
 161              		.loc 1 105 0
 162 00b8 A0F1FF31 		sub	r1, r0, #-1
 163 00bc 0620     		movs	r0, #6
 164              	.LVL22:
 165 00be B1FA81F1 		clz	r1, r1
 166              	.LVL23:
 167 00c2 4909     		lsrs	r1, r1, #5
 168 00c4 FFF7FEFF 		bl	_test_assert
 169              	.LVL24:
 170 00c8 0446     		mov	r4, r0
 171 00ca 0028     		cmp	r0, #0
ARM GAS  /tmp/ccFQWhDI.s 			page 4


 172 00cc C4D1     		bne	.L1
 173              	.LBB4:
 174              		.loc 1 106 0
 175 00ce 2023     		movs	r3, #32
 176              	@ 106 "../../ChibiOS_2.6.5/test/testmbox.c" 1
 177 00d0 83F31188 		msr     BASEPRI, r3
 178              	@ 0 "" 2
 179              		.thumb
 180              	.LBE4:
 181 00d4 FFF7FEFF 		bl	dbg_check_lock
 182              	.LVL25:
 183              		.loc 1 107 0
 184 00d8 5821     		movs	r1, #88
 185 00da 2846     		mov	r0, r5
 186 00dc FFF7FEFF 		bl	chMBPostAheadI
 187              	.LVL26:
 188 00e0 0746     		mov	r7, r0
 189              	.LVL27:
 190              		.loc 1 108 0
 191 00e2 FFF7FEFF 		bl	dbg_check_unlock
 192              	.LVL28:
 193              	.LBB5:
 194 00e6 2346     		mov	r3, r4
 195              	@ 108 "../../ChibiOS_2.6.5/test/testmbox.c" 1
 196 00e8 83F31188 		msr     BASEPRI, r3
 197              	@ 0 "" 2
 198              		.thumb
 199              	.LBE5:
 200              		.loc 1 109 0
 201 00ec 0720     		movs	r0, #7
 202 00ee A7F1FF31 		sub	r1, r7, #-1
 203 00f2 B1FA81F1 		clz	r1, r1
 204 00f6 4909     		lsrs	r1, r1, #5
 205 00f8 FFF7FEFF 		bl	_test_assert
 206              	.LVL29:
 207 00fc 0746     		mov	r7, r0
 208              	.LVL30:
 209 00fe 0028     		cmp	r0, #0
 210 0100 AAD1     		bne	.L1
 211              	.LBB6:
 212              		.loc 1 114 0
 213 0102 2023     		movs	r3, #32
 214              	@ 114 "../../ChibiOS_2.6.5/test/testmbox.c" 1
 215 0104 83F31188 		msr     BASEPRI, r3
 216              	@ 0 "" 2
 217              		.thumb
 218              	.LBE6:
 219 0108 FFF7FEFF 		bl	dbg_check_lock
 220              	.LVL31:
 221 010c 696A     		ldr	r1, [r5, #36]
 222 010e B1FA81F1 		clz	r1, r1
 223 0112 0820     		movs	r0, #8
 224 0114 4909     		lsrs	r1, r1, #5
 225 0116 FFF7FEFF 		bl	_test_assert
 226              	.LVL32:
 227 011a 0446     		mov	r4, r0
 228 011c 40B1     		cbz	r0, .L4
ARM GAS  /tmp/ccFQWhDI.s 			page 5


 229              		.loc 1 114 0 is_stmt 0 discriminator 1
 230 011e FFF7FEFF 		bl	dbg_check_unlock
 231              	.LVL33:
 232              	.LBB7:
 233 0122 3B46     		mov	r3, r7
 234              	@ 114 "../../ChibiOS_2.6.5/test/testmbox.c" 1
 235 0124 83F31188 		msr     BASEPRI, r3
 236              	@ 0 "" 2
 237              		.thumb
 238              	.LBE7:
 239 0128 96E7     		b	.L1
 240              	.L33:
 241 012a 00BF     		.align	2
 242              	.L32:
 243 012c 00000000 		.word	.LANCHOR0
 244              	.L4:
 245              		.loc 1 114 0 discriminator 2
 246 0130 FFF7FEFF 		bl	dbg_check_unlock
 247              	.LVL34:
 248              	.LBB8:
 249 0134 2346     		mov	r3, r4
 250              	@ 114 "../../ChibiOS_2.6.5/test/testmbox.c" 1
 251 0136 83F31188 		msr     BASEPRI, r3
 252              	@ 0 "" 2
 253              		.thumb
 254              	.LBE8:
 255              	.LBB9:
 256              		.loc 1 115 0 is_stmt 1 discriminator 2
 257 013a 2023     		movs	r3, #32
 258              	@ 115 "../../ChibiOS_2.6.5/test/testmbox.c" 1
 259 013c 83F31188 		msr     BASEPRI, r3
 260              	@ 0 "" 2
 261              		.thumb
 262              	.LBE9:
 263 0140 FFF7FEFF 		bl	dbg_check_lock
 264              	.LVL35:
 265 0144 A969     		ldr	r1, [r5, #24]
 266 0146 4F1F     		subs	r7, r1, #5
 267 0148 7942     		rsbs	r1, r7, #0
 268 014a 7941     		adcs	r1, r1, r7
 269 014c 0920     		movs	r0, #9
 270 014e FFF7FEFF 		bl	_test_assert
 271              	.LVL36:
 272 0152 0746     		mov	r7, r0
 273 0154 0028     		cmp	r0, #0
 274 0156 40F09682 		bne	.L28
 275 015a FFF7FEFF 		bl	dbg_check_unlock
 276              	.LVL37:
 277              	.LBB10:
 278 015e 3B46     		mov	r3, r7
 279              	@ 115 "../../ChibiOS_2.6.5/test/testmbox.c" 1
 280 0160 83F31188 		msr     BASEPRI, r3
 281              	@ 0 "" 2
 282              		.thumb
 283              	.LBE10:
 284              	.LBB11:
 285              		.loc 1 116 0 discriminator 2
ARM GAS  /tmp/ccFQWhDI.s 			page 6


 286 0164 2023     		movs	r3, #32
 287              	@ 116 "../../ChibiOS_2.6.5/test/testmbox.c" 1
 288 0166 83F31188 		msr     BASEPRI, r3
 289              	@ 0 "" 2
 290              		.thumb
 291              	.LBE11:
 292 016a FFF7FEFF 		bl	dbg_check_lock
 293              	.LVL38:
 294 016e E968     		ldr	r1, [r5, #12]
 295 0170 AB68     		ldr	r3, [r5, #8]
 296 0172 CC1A     		subs	r4, r1, r3
 297 0174 6142     		rsbs	r1, r4, #0
 298 0176 6141     		adcs	r1, r1, r4
 299 0178 0A20     		movs	r0, #10
 300 017a FFF7FEFF 		bl	_test_assert
 301              	.LVL39:
 302 017e 0028     		cmp	r0, #0
 303 0180 40F07B82 		bne	.L21
 304 0184 FFF7FEFF 		bl	dbg_check_unlock
 305              	.LVL40:
 306              	.LBB12:
 307 0188 0023     		movs	r3, #0
 308              	@ 116 "../../ChibiOS_2.6.5/test/testmbox.c" 1
 309 018a 83F31188 		msr     BASEPRI, r3
 310              	@ 0 "" 2
 311              	.LVL41:
 312              		.thumb
 313 018e 0525     		movs	r5, #5
 314              	.LVL42:
 315              	.L8:
 316              	.LBE12:
 317              		.loc 1 122 0
 318 0190 B04C     		ldr	r4, .L34
 319 0192 01A9     		add	r1, sp, #4
 320 0194 2046     		mov	r0, r4
 321 0196 4FF0FF32 		mov	r2, #-1
 322 019a FFF7FEFF 		bl	chMBFetch
 323              	.LVL43:
 324              		.loc 1 123 0
 325 019e B0FA80F1 		clz	r1, r0
 326 01a2 0B20     		movs	r0, #11
 327              	.LVL44:
 328 01a4 4909     		lsrs	r1, r1, #5
 329 01a6 FFF7FEFF 		bl	_test_assert
 330              	.LVL45:
 331 01aa 0028     		cmp	r0, #0
 332 01ac 7FF454AF 		bne	.L1
 333              		.loc 1 124 0 discriminator 2
 334 01b0 9DF80400 		ldrb	r0, [sp, #4]	@ zero_extendqisi2
 335 01b4 FFF7FEFF 		bl	test_emit_token
 336              	.LVL46:
 337              		.loc 1 121 0 discriminator 2
 338 01b8 013D     		subs	r5, r5, #1
 339              	.LVL47:
 340 01ba E9D1     		bne	.L8
 341              		.loc 1 126 0
 342 01bc 0C20     		movs	r0, #12
ARM GAS  /tmp/ccFQWhDI.s 			page 7


 343 01be A649     		ldr	r1, .L34+4
 344 01c0 FFF7FEFF 		bl	_test_assert_sequence
 345              	.LVL48:
 346 01c4 0028     		cmp	r0, #0
 347 01c6 7FF447AF 		bne	.L1
 348              		.loc 1 131 0
 349 01ca 4721     		movs	r1, #71
 350 01cc 2046     		mov	r0, r4
 351 01ce 4FF0FF32 		mov	r2, #-1
 352 01d2 FFF7FEFF 		bl	chMBPost
 353              	.LVL49:
 354              		.loc 1 132 0
 355 01d6 B0FA80F1 		clz	r1, r0
 356 01da 0D20     		movs	r0, #13
 357              	.LVL50:
 358 01dc 4909     		lsrs	r1, r1, #5
 359 01de FFF7FEFF 		bl	_test_assert
 360              	.LVL51:
 361 01e2 0028     		cmp	r0, #0
 362 01e4 7FF438AF 		bne	.L1
 363              		.loc 1 133 0
 364 01e8 01A9     		add	r1, sp, #4
 365 01ea 2046     		mov	r0, r4
 366 01ec 4FF0FF32 		mov	r2, #-1
 367 01f0 FFF7FEFF 		bl	chMBFetch
 368              	.LVL52:
 369              		.loc 1 134 0
 370 01f4 B0FA80F1 		clz	r1, r0
 371 01f8 0E20     		movs	r0, #14
 372              	.LVL53:
 373 01fa 4909     		lsrs	r1, r1, #5
 374 01fc FFF7FEFF 		bl	_test_assert
 375              	.LVL54:
 376 0200 0028     		cmp	r0, #0
 377 0202 7FF429AF 		bne	.L1
 378              		.loc 1 135 0
 379 0206 2168     		ldr	r1, [r4]
 380 0208 A368     		ldr	r3, [r4, #8]
 381 020a CA1A     		subs	r2, r1, r3
 382 020c 5142     		rsbs	r1, r2, #0
 383 020e 5141     		adcs	r1, r1, r2
 384 0210 0F20     		movs	r0, #15
 385 0212 FFF7FEFF 		bl	_test_assert
 386              	.LVL55:
 387 0216 0028     		cmp	r0, #0
 388 0218 7FF41EAF 		bne	.L1
 389              		.loc 1 136 0
 390 021c 2168     		ldr	r1, [r4]
 391 021e E368     		ldr	r3, [r4, #12]
 392 0220 CB1A     		subs	r3, r1, r3
 393 0222 5942     		rsbs	r1, r3, #0
 394 0224 5941     		adcs	r1, r1, r3
 395 0226 1020     		movs	r0, #16
 396 0228 FFF7FEFF 		bl	_test_assert
 397              	.LVL56:
 398 022c 0028     		cmp	r0, #0
 399 022e 7FF413AF 		bne	.L1
ARM GAS  /tmp/ccFQWhDI.s 			page 8


 400              		.loc 1 141 0
 401 0232 01A9     		add	r1, sp, #4
 402 0234 2046     		mov	r0, r4
 403 0236 0122     		movs	r2, #1
 404 0238 FFF7FEFF 		bl	chMBFetch
 405              	.LVL57:
 406              		.loc 1 142 0
 407 023c 00F1010C 		add	ip, r0, #1
 408 0240 DCF10001 		rsbs	r1, ip, #0
 409 0244 41EB0C01 		adc	r1, r1, ip
 410 0248 1120     		movs	r0, #17
 411              	.LVL58:
 412 024a FFF7FEFF 		bl	_test_assert
 413              	.LVL59:
 414 024e 0028     		cmp	r0, #0
 415 0250 7FF402AF 		bne	.L1
 416              	.LBB13:
 417              		.loc 1 143 0
 418 0254 2023     		movs	r3, #32
 419              	@ 143 "../../ChibiOS_2.6.5/test/testmbox.c" 1
 420 0256 83F31188 		msr     BASEPRI, r3
 421              	@ 0 "" 2
 422              		.thumb
 423              	.LBE13:
 424 025a FFF7FEFF 		bl	dbg_check_lock
 425              	.LVL60:
 426              		.loc 1 144 0
 427 025e 01A9     		add	r1, sp, #4
 428 0260 2046     		mov	r0, r4
 429 0262 FFF7FEFF 		bl	chMBFetchI
 430              	.LVL61:
 431 0266 0746     		mov	r7, r0
 432              	.LVL62:
 433              		.loc 1 145 0
 434 0268 FFF7FEFF 		bl	dbg_check_unlock
 435              	.LVL63:
 436              	.LBB14:
 437 026c 2B46     		mov	r3, r5
 438              	@ 145 "../../ChibiOS_2.6.5/test/testmbox.c" 1
 439 026e 83F31188 		msr     BASEPRI, r3
 440              	@ 0 "" 2
 441              		.thumb
 442              	.LBE14:
 443              		.loc 1 146 0
 444 0272 07F1010E 		add	lr, r7, #1
 445 0276 DEF10001 		rsbs	r1, lr, #0
 446 027a 41EB0E01 		adc	r1, r1, lr
 447 027e 1220     		movs	r0, #18
 448 0280 FFF7FEFF 		bl	_test_assert
 449              	.LVL64:
 450 0284 0028     		cmp	r0, #0
 451 0286 7FF4E7AE 		bne	.L1
 452              	.LBB15:
 453              		.loc 1 151 0
 454 028a 2023     		movs	r3, #32
 455              	@ 151 "../../ChibiOS_2.6.5/test/testmbox.c" 1
 456 028c 83F31188 		msr     BASEPRI, r3
ARM GAS  /tmp/ccFQWhDI.s 			page 9


 457              	@ 0 "" 2
 458              		.thumb
 459              	.LBE15:
 460 0290 FFF7FEFF 		bl	dbg_check_lock
 461              	.LVL65:
 462 0294 616A     		ldr	r1, [r4, #36]
 463 0296 4F1F     		subs	r7, r1, #5
 464              	.LVL66:
 465 0298 7942     		rsbs	r1, r7, #0
 466 029a 7941     		adcs	r1, r1, r7
 467 029c 1320     		movs	r0, #19
 468 029e FFF7FEFF 		bl	_test_assert
 469              	.LVL67:
 470 02a2 0028     		cmp	r0, #0
 471 02a4 40F0E981 		bne	.L21
 472              		.loc 1 151 0 is_stmt 0 discriminator 2
 473 02a8 FFF7FEFF 		bl	dbg_check_unlock
 474              	.LVL68:
 475              	.LBB16:
 476 02ac 0023     		movs	r3, #0
 477              	@ 151 "../../ChibiOS_2.6.5/test/testmbox.c" 1
 478 02ae 83F31188 		msr     BASEPRI, r3
 479              	@ 0 "" 2
 480              		.thumb
 481              	.LBE16:
 482              	.LBB17:
 483              		.loc 1 152 0 is_stmt 1 discriminator 2
 484 02b2 2023     		movs	r3, #32
 485              	@ 152 "../../ChibiOS_2.6.5/test/testmbox.c" 1
 486 02b4 83F31188 		msr     BASEPRI, r3
 487              	@ 0 "" 2
 488              		.thumb
 489              	.LBE17:
 490 02b8 FFF7FEFF 		bl	dbg_check_lock
 491              	.LVL69:
 492 02bc B169     		ldr	r1, [r6, #24]
 493 02be B1FA81F1 		clz	r1, r1
 494 02c2 1420     		movs	r0, #20
 495 02c4 4909     		lsrs	r1, r1, #5
 496 02c6 FFF7FEFF 		bl	_test_assert
 497              	.LVL70:
 498 02ca 624C     		ldr	r4, .L34
 499 02cc 0546     		mov	r5, r0
 500              	.LVL71:
 501 02ce 0028     		cmp	r0, #0
 502 02d0 40F0D381 		bne	.L21
 503 02d4 FFF7FEFF 		bl	dbg_check_unlock
 504              	.LVL72:
 505              	.LBB18:
 506 02d8 2B46     		mov	r3, r5
 507              	@ 152 "../../ChibiOS_2.6.5/test/testmbox.c" 1
 508 02da 83F31188 		msr     BASEPRI, r3
 509              	@ 0 "" 2
 510              		.thumb
 511              	.LBE18:
 512              	.LBB19:
 513              		.loc 1 153 0 discriminator 2
ARM GAS  /tmp/ccFQWhDI.s 			page 10


 514 02de 2023     		movs	r3, #32
 515              	@ 153 "../../ChibiOS_2.6.5/test/testmbox.c" 1
 516 02e0 83F31188 		msr     BASEPRI, r3
 517              	@ 0 "" 2
 518              		.thumb
 519              	.LBE19:
 520 02e4 FFF7FEFF 		bl	dbg_check_lock
 521              	.LVL73:
 522 02e8 E168     		ldr	r1, [r4, #12]
 523 02ea A368     		ldr	r3, [r4, #8]
 524 02ec CE1A     		subs	r6, r1, r3
 525 02ee 7142     		rsbs	r1, r6, #0
 526 02f0 7141     		adcs	r1, r1, r6
 527 02f2 1520     		movs	r0, #21
 528 02f4 FFF7FEFF 		bl	_test_assert
 529              	.LVL74:
 530 02f8 0646     		mov	r6, r0
 531 02fa 0028     		cmp	r0, #0
 532 02fc 40F0A380 		bne	.L29
 533 0300 FFF7FEFF 		bl	dbg_check_unlock
 534              	.LVL75:
 535              	.LBB20:
 536 0304 3346     		mov	r3, r6
 537              	@ 153 "../../ChibiOS_2.6.5/test/testmbox.c" 1
 538 0306 83F31188 		msr     BASEPRI, r3
 539              	@ 0 "" 2
 540              		.thumb
 541              	.LBE20:
 542              	.LBB21:
 543              		.loc 1 158 0 discriminator 2
 544 030a 2023     		movs	r3, #32
 545              	@ 158 "../../ChibiOS_2.6.5/test/testmbox.c" 1
 546 030c 83F31188 		msr     BASEPRI, r3
 547              	@ 0 "" 2
 548              		.thumb
 549              	.LBE21:
 550 0310 FFF7FEFF 		bl	dbg_check_lock
 551              	.LVL76:
 552              		.loc 1 159 0 discriminator 2
 553 0314 4121     		movs	r1, #65
 554 0316 2046     		mov	r0, r4
 555 0318 FFF7FEFF 		bl	chMBPostI
 556              	.LVL77:
 557              		.loc 1 160 0 discriminator 2
 558 031c B0FA80F1 		clz	r1, r0
 559 0320 1620     		movs	r0, #22
 560              	.LVL78:
 561 0322 4909     		lsrs	r1, r1, #5
 562 0324 FFF7FEFF 		bl	_test_assert
 563              	.LVL79:
 564 0328 0028     		cmp	r0, #0
 565 032a 7FF495AE 		bne	.L1
 566              		.loc 1 161 0
 567 032e 4221     		movs	r1, #66
 568 0330 2046     		mov	r0, r4
 569 0332 FFF7FEFF 		bl	chMBPostI
 570              	.LVL80:
ARM GAS  /tmp/ccFQWhDI.s 			page 11


 571              		.loc 1 162 0
 572 0336 B0FA80F1 		clz	r1, r0
 573 033a 1720     		movs	r0, #23
 574              	.LVL81:
 575 033c 4909     		lsrs	r1, r1, #5
 576 033e FFF7FEFF 		bl	_test_assert
 577              	.LVL82:
 578 0342 0028     		cmp	r0, #0
 579 0344 7FF488AE 		bne	.L1
 580              		.loc 1 163 0
 581 0348 4321     		movs	r1, #67
 582 034a 2046     		mov	r0, r4
 583 034c FFF7FEFF 		bl	chMBPostI
 584              	.LVL83:
 585              		.loc 1 164 0
 586 0350 B0FA80F1 		clz	r1, r0
 587 0354 1820     		movs	r0, #24
 588              	.LVL84:
 589 0356 4909     		lsrs	r1, r1, #5
 590 0358 FFF7FEFF 		bl	_test_assert
 591              	.LVL85:
 592 035c 0028     		cmp	r0, #0
 593 035e 7FF47BAE 		bne	.L1
 594              		.loc 1 165 0
 595 0362 4421     		movs	r1, #68
 596 0364 2046     		mov	r0, r4
 597 0366 FFF7FEFF 		bl	chMBPostI
 598              	.LVL86:
 599              		.loc 1 166 0
 600 036a B0FA80F1 		clz	r1, r0
 601 036e 1920     		movs	r0, #25
 602              	.LVL87:
 603 0370 4909     		lsrs	r1, r1, #5
 604 0372 FFF7FEFF 		bl	_test_assert
 605              	.LVL88:
 606 0376 0546     		mov	r5, r0
 607 0378 0028     		cmp	r0, #0
 608 037a 7FF46DAE 		bne	.L1
 609              		.loc 1 167 0
 610 037e 4521     		movs	r1, #69
 611 0380 2046     		mov	r0, r4
 612 0382 FFF7FEFF 		bl	chMBPostI
 613              	.LVL89:
 614 0386 0646     		mov	r6, r0
 615              	.LVL90:
 616              		.loc 1 168 0
 617 0388 FFF7FEFF 		bl	dbg_check_unlock
 618              	.LVL91:
 619              	.LBB22:
 620 038c 2B46     		mov	r3, r5
 621              	@ 168 "../../ChibiOS_2.6.5/test/testmbox.c" 1
 622 038e 83F31188 		msr     BASEPRI, r3
 623              	@ 0 "" 2
 624              		.thumb
 625              	.LBE22:
 626              		.loc 1 169 0
 627 0392 1A20     		movs	r0, #26
ARM GAS  /tmp/ccFQWhDI.s 			page 12


 628 0394 B6FA86F1 		clz	r1, r6
 629 0398 4909     		lsrs	r1, r1, #5
 630 039a FFF7FEFF 		bl	_test_assert
 631              	.LVL92:
 632 039e 0028     		cmp	r0, #0
 633 03a0 7FF45AAE 		bne	.L1
 634              		.loc 1 170 0
 635 03a4 E168     		ldr	r1, [r4, #12]
 636 03a6 A368     		ldr	r3, [r4, #8]
 637 03a8 CC1A     		subs	r4, r1, r3
 638 03aa 6142     		rsbs	r1, r4, #0
 639 03ac 6141     		adcs	r1, r1, r4
 640 03ae 1B20     		movs	r0, #27
 641 03b0 FFF7FEFF 		bl	_test_assert
 642              	.LVL93:
 643 03b4 0028     		cmp	r0, #0
 644 03b6 7FF44FAE 		bne	.L1
 645 03ba 0525     		movs	r5, #5
 646              	.L12:
 647              	.LVL94:
 648              	.LBB23:
 649              		.loc 1 172 0
 650 03bc 2023     		movs	r3, #32
 651              	@ 172 "../../ChibiOS_2.6.5/test/testmbox.c" 1
 652 03be 83F31188 		msr     BASEPRI, r3
 653              	@ 0 "" 2
 654              		.thumb
 655              	.LBE23:
 656              		.loc 1 173 0
 657 03c2 244C     		ldr	r4, .L34
 658              		.loc 1 172 0
 659 03c4 FFF7FEFF 		bl	dbg_check_lock
 660              	.LVL95:
 661              		.loc 1 173 0
 662 03c8 01A9     		add	r1, sp, #4
 663 03ca 2046     		mov	r0, r4
 664 03cc FFF7FEFF 		bl	chMBFetchI
 665              	.LVL96:
 666 03d0 0646     		mov	r6, r0
 667              	.LVL97:
 668              		.loc 1 174 0
 669 03d2 FFF7FEFF 		bl	dbg_check_unlock
 670              	.LVL98:
 671              	.LBB24:
 672 03d6 0023     		movs	r3, #0
 673              	@ 174 "../../ChibiOS_2.6.5/test/testmbox.c" 1
 674 03d8 83F31188 		msr     BASEPRI, r3
 675              	@ 0 "" 2
 676              		.thumb
 677              	.LBE24:
 678              		.loc 1 175 0
 679 03dc 1C20     		movs	r0, #28
 680 03de B6FA86F1 		clz	r1, r6
 681 03e2 4909     		lsrs	r1, r1, #5
 682 03e4 FFF7FEFF 		bl	_test_assert
 683              	.LVL99:
 684 03e8 0028     		cmp	r0, #0
ARM GAS  /tmp/ccFQWhDI.s 			page 13


 685 03ea 7FF435AE 		bne	.L1
 686              		.loc 1 176 0 discriminator 2
 687 03ee 9DF80400 		ldrb	r0, [sp, #4]	@ zero_extendqisi2
 688 03f2 FFF7FEFF 		bl	test_emit_token
 689              	.LVL100:
 690              		.loc 1 171 0 discriminator 2
 691 03f6 013D     		subs	r5, r5, #1
 692              	.LVL101:
 693 03f8 E0D1     		bne	.L12
 694              		.loc 1 178 0
 695 03fa 1D20     		movs	r0, #29
 696 03fc 1649     		ldr	r1, .L34+4
 697 03fe FFF7FEFF 		bl	_test_assert_sequence
 698              	.LVL102:
 699 0402 0028     		cmp	r0, #0
 700 0404 7FF428AE 		bne	.L1
 701              	.LBB25:
 702              		.loc 1 179 0
 703 0408 2023     		movs	r3, #32
 704              	@ 179 "../../ChibiOS_2.6.5/test/testmbox.c" 1
 705 040a 83F31188 		msr     BASEPRI, r3
 706              	@ 0 "" 2
 707              		.thumb
 708              	.LBE25:
 709 040e FFF7FEFF 		bl	dbg_check_lock
 710              	.LVL103:
 711 0412 616A     		ldr	r1, [r4, #36]
 712 0414 4A1F     		subs	r2, r1, #5
 713 0416 5142     		rsbs	r1, r2, #0
 714 0418 5141     		adcs	r1, r1, r2
 715 041a 1E20     		movs	r0, #30
 716 041c FFF7FEFF 		bl	_test_assert
 717              	.LVL104:
 718 0420 88B9     		cbnz	r0, .L29
 719              		.loc 1 179 0 is_stmt 0 discriminator 2
 720 0422 FFF7FEFF 		bl	dbg_check_unlock
 721              	.LVL105:
 722              	.LBB26:
 723 0426 2B46     		mov	r3, r5
 724              	@ 179 "../../ChibiOS_2.6.5/test/testmbox.c" 1
 725 0428 83F31188 		msr     BASEPRI, r3
 726              	@ 0 "" 2
 727              		.thumb
 728              	.LBE26:
 729              	.LBB27:
 730              		.loc 1 180 0 is_stmt 1 discriminator 2
 731 042c 2023     		movs	r3, #32
 732              	@ 180 "../../ChibiOS_2.6.5/test/testmbox.c" 1
 733 042e 83F31188 		msr     BASEPRI, r3
 734              	@ 0 "" 2
 735              		.thumb
 736              	.LBE27:
 737 0432 FFF7FEFF 		bl	dbg_check_lock
 738              	.LVL106:
 739 0436 A169     		ldr	r1, [r4, #24]
 740 0438 B1FA81F1 		clz	r1, r1
 741 043c 1F20     		movs	r0, #31
ARM GAS  /tmp/ccFQWhDI.s 			page 14


 742 043e 4909     		lsrs	r1, r1, #5
 743 0440 FFF7FEFF 		bl	_test_assert
 744              	.LVL107:
 745 0444 50B1     		cbz	r0, .L14
 746              	.LVL108:
 747              	.L29:
 748              		.loc 1 180 0 is_stmt 0 discriminator 1
 749 0446 FFF7FEFF 		bl	dbg_check_unlock
 750              	.LVL109:
 751              	.LBB28:
 752 044a 2B46     		mov	r3, r5
 753              	@ 180 "../../ChibiOS_2.6.5/test/testmbox.c" 1
 754 044c 83F31188 		msr     BASEPRI, r3
 755              	@ 0 "" 2
 756              		.thumb
 757              	.LBE28:
 758 0450 02E6     		b	.L1
 759              	.L35:
 760 0452 00BF     		.align	2
 761              	.L34:
 762 0454 00000000 		.word	.LANCHOR0
 763 0458 00000000 		.word	.LC0
 764              	.LVL110:
 765              	.L14:
 766              		.loc 1 180 0 discriminator 2
 767 045c FFF7FEFF 		bl	dbg_check_unlock
 768              	.LVL111:
 769              	.LBB29:
 770 0460 2B46     		mov	r3, r5
 771              	@ 180 "../../ChibiOS_2.6.5/test/testmbox.c" 1
 772 0462 83F31188 		msr     BASEPRI, r3
 773              	@ 0 "" 2
 774              		.thumb
 775              	.LBE29:
 776              		.loc 1 181 0 is_stmt 1 discriminator 2
 777 0466 E168     		ldr	r1, [r4, #12]
 778 0468 A368     		ldr	r3, [r4, #8]
 779 046a CB1A     		subs	r3, r1, r3
 780 046c 5942     		rsbs	r1, r3, #0
 781 046e 5941     		adcs	r1, r1, r3
 782 0470 2020     		movs	r0, #32
 783 0472 FFF7FEFF 		bl	_test_assert
 784              	.LVL112:
 785 0476 0028     		cmp	r0, #0
 786 0478 7FF4EEAD 		bne	.L1
 787              	.LBB30:
 788              		.loc 1 183 0
 789 047c 2023     		movs	r3, #32
 790              	@ 183 "../../ChibiOS_2.6.5/test/testmbox.c" 1
 791 047e 83F31188 		msr     BASEPRI, r3
 792              	@ 0 "" 2
 793              		.thumb
 794              	.LBE30:
 795 0482 FFF7FEFF 		bl	dbg_check_lock
 796              	.LVL113:
 797              		.loc 1 184 0
 798 0486 4521     		movs	r1, #69
ARM GAS  /tmp/ccFQWhDI.s 			page 15


 799 0488 2046     		mov	r0, r4
 800 048a FFF7FEFF 		bl	chMBPostAheadI
 801              	.LVL114:
 802              		.loc 1 185 0
 803 048e B0FA80F1 		clz	r1, r0
 804 0492 2120     		movs	r0, #33
 805              	.LVL115:
 806 0494 4909     		lsrs	r1, r1, #5
 807 0496 FFF7FEFF 		bl	_test_assert
 808              	.LVL116:
 809 049a 0028     		cmp	r0, #0
 810 049c 7FF4DCAD 		bne	.L1
 811              		.loc 1 186 0
 812 04a0 4421     		movs	r1, #68
 813 04a2 2046     		mov	r0, r4
 814 04a4 FFF7FEFF 		bl	chMBPostAheadI
 815              	.LVL117:
 816              		.loc 1 187 0
 817 04a8 B0FA80F1 		clz	r1, r0
 818 04ac 2220     		movs	r0, #34
 819              	.LVL118:
 820 04ae 4909     		lsrs	r1, r1, #5
 821 04b0 FFF7FEFF 		bl	_test_assert
 822              	.LVL119:
 823 04b4 0028     		cmp	r0, #0
 824 04b6 7FF4CFAD 		bne	.L1
 825              		.loc 1 188 0
 826 04ba 4321     		movs	r1, #67
 827 04bc 2046     		mov	r0, r4
 828 04be FFF7FEFF 		bl	chMBPostAheadI
 829              	.LVL120:
 830              		.loc 1 189 0
 831 04c2 B0FA80F1 		clz	r1, r0
 832 04c6 2320     		movs	r0, #35
 833              	.LVL121:
 834 04c8 4909     		lsrs	r1, r1, #5
 835 04ca FFF7FEFF 		bl	_test_assert
 836              	.LVL122:
 837 04ce 0028     		cmp	r0, #0
 838 04d0 7FF4C2AD 		bne	.L1
 839              		.loc 1 190 0
 840 04d4 4221     		movs	r1, #66
 841 04d6 2046     		mov	r0, r4
 842 04d8 FFF7FEFF 		bl	chMBPostAheadI
 843              	.LVL123:
 844              		.loc 1 191 0
 845 04dc B0FA80F1 		clz	r1, r0
 846 04e0 2420     		movs	r0, #36
 847              	.LVL124:
 848 04e2 4909     		lsrs	r1, r1, #5
 849 04e4 FFF7FEFF 		bl	_test_assert
 850              	.LVL125:
 851 04e8 0028     		cmp	r0, #0
 852 04ea 7FF4B5AD 		bne	.L1
 853              		.loc 1 192 0
 854 04ee 694C     		ldr	r4, .L36
 855 04f0 4121     		movs	r1, #65
ARM GAS  /tmp/ccFQWhDI.s 			page 16


 856 04f2 2046     		mov	r0, r4
 857 04f4 FFF7FEFF 		bl	chMBPostAheadI
 858              	.LVL126:
 859 04f8 0546     		mov	r5, r0
 860              	.LVL127:
 861              		.loc 1 193 0
 862 04fa FFF7FEFF 		bl	dbg_check_unlock
 863              	.LVL128:
 864              	.LBB31:
 865 04fe 0023     		movs	r3, #0
 866              	@ 193 "../../ChibiOS_2.6.5/test/testmbox.c" 1
 867 0500 83F31188 		msr     BASEPRI, r3
 868              	@ 0 "" 2
 869              		.thumb
 870              	.LBE31:
 871              		.loc 1 194 0
 872 0504 2520     		movs	r0, #37
 873 0506 B5FA85F1 		clz	r1, r5
 874 050a 4909     		lsrs	r1, r1, #5
 875 050c FFF7FEFF 		bl	_test_assert
 876              	.LVL129:
 877 0510 0028     		cmp	r0, #0
 878 0512 7FF4A1AD 		bne	.L1
 879              		.loc 1 195 0
 880 0516 E168     		ldr	r1, [r4, #12]
 881 0518 A368     		ldr	r3, [r4, #8]
 882 051a C3EB010C 		rsb	ip, r3, r1
 883 051e DCF10001 		rsbs	r1, ip, #0
 884 0522 41EB0C01 		adc	r1, r1, ip
 885 0526 2620     		movs	r0, #38
 886 0528 FFF7FEFF 		bl	_test_assert
 887              	.LVL130:
 888 052c 0028     		cmp	r0, #0
 889 052e 7FF493AD 		bne	.L1
 890 0532 0524     		movs	r4, #5
 891              	.LVL131:
 892              	.L15:
 893              	.LBB32:
 894              		.loc 1 197 0
 895 0534 2023     		movs	r3, #32
 896              	@ 197 "../../ChibiOS_2.6.5/test/testmbox.c" 1
 897 0536 83F31188 		msr     BASEPRI, r3
 898              	@ 0 "" 2
 899              		.thumb
 900              	.LBE32:
 901              		.loc 1 198 0
 902 053a 564D     		ldr	r5, .L36
 903              		.loc 1 197 0
 904 053c FFF7FEFF 		bl	dbg_check_lock
 905              	.LVL132:
 906              		.loc 1 198 0
 907 0540 01A9     		add	r1, sp, #4
 908 0542 2846     		mov	r0, r5
 909 0544 FFF7FEFF 		bl	chMBFetchI
 910              	.LVL133:
 911 0548 0646     		mov	r6, r0
 912              	.LVL134:
ARM GAS  /tmp/ccFQWhDI.s 			page 17


 913              		.loc 1 199 0
 914 054a FFF7FEFF 		bl	dbg_check_unlock
 915              	.LVL135:
 916              	.LBB33:
 917 054e 0023     		movs	r3, #0
 918              	@ 199 "../../ChibiOS_2.6.5/test/testmbox.c" 1
 919 0550 83F31188 		msr     BASEPRI, r3
 920              	@ 0 "" 2
 921              		.thumb
 922              	.LBE33:
 923              		.loc 1 200 0
 924 0554 2720     		movs	r0, #39
 925 0556 B6FA86F1 		clz	r1, r6
 926 055a 4909     		lsrs	r1, r1, #5
 927 055c FFF7FEFF 		bl	_test_assert
 928              	.LVL136:
 929 0560 0028     		cmp	r0, #0
 930 0562 7FF479AD 		bne	.L1
 931              		.loc 1 201 0 discriminator 2
 932 0566 9DF80400 		ldrb	r0, [sp, #4]	@ zero_extendqisi2
 933 056a FFF7FEFF 		bl	test_emit_token
 934              	.LVL137:
 935              		.loc 1 196 0 discriminator 2
 936 056e 013C     		subs	r4, r4, #1
 937              	.LVL138:
 938 0570 E0D1     		bne	.L15
 939              		.loc 1 203 0
 940 0572 2820     		movs	r0, #40
 941 0574 4849     		ldr	r1, .L36+4
 942 0576 FFF7FEFF 		bl	_test_assert_sequence
 943              	.LVL139:
 944 057a 0028     		cmp	r0, #0
 945 057c 7FF46CAD 		bne	.L1
 946              	.LBB34:
 947              		.loc 1 204 0
 948 0580 2023     		movs	r3, #32
 949              	@ 204 "../../ChibiOS_2.6.5/test/testmbox.c" 1
 950 0582 83F31188 		msr     BASEPRI, r3
 951              	@ 0 "" 2
 952              		.thumb
 953              	.LBE34:
 954 0586 FFF7FEFF 		bl	dbg_check_lock
 955              	.LVL140:
 956 058a 696A     		ldr	r1, [r5, #36]
 957 058c A1F1050E 		sub	lr, r1, #5
 958 0590 DEF10001 		rsbs	r1, lr, #0
 959 0594 41EB0E01 		adc	r1, r1, lr
 960 0598 2920     		movs	r0, #41
 961 059a FFF7FEFF 		bl	_test_assert
 962              	.LVL141:
 963 059e 0028     		cmp	r0, #0
 964 05a0 71D1     		bne	.L28
 965              		.loc 1 204 0 is_stmt 0 discriminator 2
 966 05a2 FFF7FEFF 		bl	dbg_check_unlock
 967              	.LVL142:
 968              	.LBB35:
 969 05a6 2346     		mov	r3, r4
ARM GAS  /tmp/ccFQWhDI.s 			page 18


 970              	@ 204 "../../ChibiOS_2.6.5/test/testmbox.c" 1
 971 05a8 83F31188 		msr     BASEPRI, r3
 972              	@ 0 "" 2
 973              		.thumb
 974              	.LBE35:
 975              	.LBB36:
 976              		.loc 1 205 0 is_stmt 1 discriminator 2
 977 05ac 2023     		movs	r3, #32
 978              	@ 205 "../../ChibiOS_2.6.5/test/testmbox.c" 1
 979 05ae 83F31188 		msr     BASEPRI, r3
 980              	@ 0 "" 2
 981              		.thumb
 982              	.LBE36:
 983 05b2 FFF7FEFF 		bl	dbg_check_lock
 984              	.LVL143:
 985 05b6 A969     		ldr	r1, [r5, #24]
 986 05b8 B1FA81F1 		clz	r1, r1
 987 05bc 2A20     		movs	r0, #42
 988 05be 4909     		lsrs	r1, r1, #5
 989 05c0 FFF7FEFF 		bl	_test_assert
 990              	.LVL144:
 991 05c4 0028     		cmp	r0, #0
 992 05c6 5ED1     		bne	.L28
 993 05c8 FFF7FEFF 		bl	dbg_check_unlock
 994              	.LVL145:
 995              	.LBB37:
 996 05cc 2346     		mov	r3, r4
 997              	@ 205 "../../ChibiOS_2.6.5/test/testmbox.c" 1
 998 05ce 83F31188 		msr     BASEPRI, r3
 999              	@ 0 "" 2
 1000              		.thumb
 1001              	.LBE37:
 1002              		.loc 1 206 0 discriminator 2
 1003 05d2 E968     		ldr	r1, [r5, #12]
 1004 05d4 AB68     		ldr	r3, [r5, #8]
 1005 05d6 CF1A     		subs	r7, r1, r3
 1006 05d8 7942     		rsbs	r1, r7, #0
 1007 05da 7941     		adcs	r1, r1, r7
 1008 05dc 2B20     		movs	r0, #43
 1009 05de FFF7FEFF 		bl	_test_assert
 1010              	.LVL146:
 1011 05e2 0028     		cmp	r0, #0
 1012 05e4 7FF438AD 		bne	.L1
 1013              		.loc 1 211 0
 1014 05e8 2846     		mov	r0, r5
 1015 05ea FFF7FEFF 		bl	chMBReset
 1016              	.LVL147:
 1017              	.LBB38:
 1018              		.loc 1 216 0
 1019 05ee 2023     		movs	r3, #32
 1020              	@ 216 "../../ChibiOS_2.6.5/test/testmbox.c" 1
 1021 05f0 83F31188 		msr     BASEPRI, r3
 1022              	@ 0 "" 2
 1023              		.thumb
 1024              	.LBE38:
 1025 05f4 FFF7FEFF 		bl	dbg_check_lock
 1026              	.LVL148:
ARM GAS  /tmp/ccFQWhDI.s 			page 19


 1027 05f8 696A     		ldr	r1, [r5, #36]
 1028 05fa 4E1F     		subs	r6, r1, #5
 1029              	.LVL149:
 1030 05fc 7142     		rsbs	r1, r6, #0
 1031 05fe 7141     		adcs	r1, r1, r6
 1032 0600 2C20     		movs	r0, #44
 1033 0602 FFF7FEFF 		bl	_test_assert
 1034              	.LVL150:
 1035 0606 0028     		cmp	r0, #0
 1036 0608 3DD1     		bne	.L28
 1037              		.loc 1 216 0 is_stmt 0 discriminator 2
 1038 060a FFF7FEFF 		bl	dbg_check_unlock
 1039              	.LVL151:
 1040              	.LBB39:
 1041 060e 2346     		mov	r3, r4
 1042              	@ 216 "../../ChibiOS_2.6.5/test/testmbox.c" 1
 1043 0610 83F31188 		msr     BASEPRI, r3
 1044              	@ 0 "" 2
 1045              		.thumb
 1046              	.LBE39:
 1047              	.LBB40:
 1048              		.loc 1 217 0 is_stmt 1 discriminator 2
 1049 0614 2023     		movs	r3, #32
 1050              	@ 217 "../../ChibiOS_2.6.5/test/testmbox.c" 1
 1051 0616 83F31188 		msr     BASEPRI, r3
 1052              	@ 0 "" 2
 1053              		.thumb
 1054              	.LBE40:
 1055 061a FFF7FEFF 		bl	dbg_check_lock
 1056              	.LVL152:
 1057 061e A969     		ldr	r1, [r5, #24]
 1058 0620 B1FA81F1 		clz	r1, r1
 1059 0624 2D20     		movs	r0, #45
 1060 0626 4909     		lsrs	r1, r1, #5
 1061 0628 FFF7FEFF 		bl	_test_assert
 1062              	.LVL153:
 1063 062c 58BB     		cbnz	r0, .L28
 1064 062e FFF7FEFF 		bl	dbg_check_unlock
 1065              	.LVL154:
 1066              	.LBB41:
 1067 0632 2346     		mov	r3, r4
 1068              	@ 217 "../../ChibiOS_2.6.5/test/testmbox.c" 1
 1069 0634 83F31188 		msr     BASEPRI, r3
 1070              	@ 0 "" 2
 1071              		.thumb
 1072              	.LBE41:
 1073              	.LBB42:
 1074              		.loc 1 218 0 discriminator 2
 1075 0638 2023     		movs	r3, #32
 1076              	@ 218 "../../ChibiOS_2.6.5/test/testmbox.c" 1
 1077 063a 83F31188 		msr     BASEPRI, r3
 1078              	@ 0 "" 2
 1079              		.thumb
 1080              	.LBE42:
 1081 063e FFF7FEFF 		bl	dbg_check_lock
 1082              	.LVL155:
 1083 0642 2968     		ldr	r1, [r5]
ARM GAS  /tmp/ccFQWhDI.s 			page 20


 1084 0644 AB68     		ldr	r3, [r5, #8]
 1085 0646 CA1A     		subs	r2, r1, r3
 1086 0648 5142     		rsbs	r1, r2, #0
 1087 064a 5141     		adcs	r1, r1, r2
 1088 064c 2E20     		movs	r0, #46
 1089 064e FFF7FEFF 		bl	_test_assert
 1090              	.LVL156:
 1091 0652 C0B9     		cbnz	r0, .L28
 1092 0654 FFF7FEFF 		bl	dbg_check_unlock
 1093              	.LVL157:
 1094              	.LBB43:
 1095 0658 2346     		mov	r3, r4
 1096              	@ 218 "../../ChibiOS_2.6.5/test/testmbox.c" 1
 1097 065a 83F31188 		msr     BASEPRI, r3
 1098              	@ 0 "" 2
 1099              		.thumb
 1100              	.LBE43:
 1101              	.LBB44:
 1102              		.loc 1 219 0 discriminator 2
 1103 065e 2023     		movs	r3, #32
 1104              	@ 219 "../../ChibiOS_2.6.5/test/testmbox.c" 1
 1105 0660 83F31188 		msr     BASEPRI, r3
 1106              	@ 0 "" 2
 1107              		.thumb
 1108              	.LBE44:
 1109 0664 FFF7FEFF 		bl	dbg_check_lock
 1110              	.LVL158:
 1111 0668 2968     		ldr	r1, [r5]
 1112 066a EB68     		ldr	r3, [r5, #12]
 1113 066c CB1A     		subs	r3, r1, r3
 1114 066e 5942     		rsbs	r1, r3, #0
 1115 0670 4FF02F00 		mov	r0, #47
 1116 0674 5941     		adcs	r1, r1, r3
 1117 0676 FFF7FEFF 		bl	_test_assert
 1118              	.LVL159:
 1119              	.L21:
 1120 067a FFF7FEFF 		bl	dbg_check_unlock
 1121              	.LVL160:
 1122              	.LBB45:
 1123 067e 0023     		movs	r3, #0
 1124              	@ 219 "../../ChibiOS_2.6.5/test/testmbox.c" 1
 1125 0680 83F31188 		msr     BASEPRI, r3
 1126              	@ 0 "" 2
 1127              		.thumb
 1128              	.LBE45:
 1129 0684 E8E4     		b	.L1
 1130              	.L28:
 1131              		.loc 1 218 0 discriminator 1
 1132 0686 FFF7FEFF 		bl	dbg_check_unlock
 1133              	.LVL161:
 1134              	.LBB46:
 1135 068a 2346     		mov	r3, r4
 1136              	@ 218 "../../ChibiOS_2.6.5/test/testmbox.c" 1
 1137 068c 83F31188 		msr     BASEPRI, r3
 1138              	@ 0 "" 2
 1139              		.thumb
 1140              	.LBE46:
ARM GAS  /tmp/ccFQWhDI.s 			page 21


 1141 0690 E2E4     		b	.L1
 1142              	.L37:
 1143 0692 00BF     		.align	2
 1144              	.L36:
 1145 0694 00000000 		.word	.LANCHOR0
 1146 0698 00000000 		.word	.LC0
 1147              		.cfi_endproc
 1148              	.LFE8:
 1149              		.size	mbox1_execute, .-mbox1_execute
 1150              		.section	.text.mbox1_setup,"ax",%progbits
 1151              		.align	2
 1152              		.p2align 4,,15
 1153              		.thumb
 1154              		.thumb_func
 1155              		.type	mbox1_setup, %function
 1156              	mbox1_setup:
 1157              	.LFB7:
 1158              		.loc 1 71 0
 1159              		.cfi_startproc
 1160              		@ args = 0, pretend = 0, frame = 0
 1161              		@ frame_needed = 0, uses_anonymous_args = 0
 1162              		@ link register save eliminated.
 1163              		.loc 1 73 0
 1164 0000 0248     		ldr	r0, .L39
 1165 0002 0349     		ldr	r1, .L39+4
 1166 0004 0522     		movs	r2, #5
 1167 0006 FFF7FEBF 		b	chMBInit
 1168              	.LVL162:
 1169              	.L40:
 1170 000a 00BF     		.align	2
 1171              	.L39:
 1172 000c 00000000 		.word	.LANCHOR0
 1173 0010 00000000 		.word	test
 1174              		.cfi_endproc
 1175              	.LFE7:
 1176              		.size	mbox1_setup, .-mbox1_setup
 1177              		.global	patternmbox
 1178              		.global	testmbox1
 1179              		.section	.data.mb1,"aw",%progbits
 1180              		.align	2
 1181              		.set	.LANCHOR0,. + 0
 1182              		.type	mb1, %object
 1183              		.size	mb1, 40
 1184              	mb1:
 1185 0000 00000000 		.word	test
 1186 0004 14000000 		.word	test+20
 1187 0008 00000000 		.word	test
 1188 000c 00000000 		.word	test
 1189 0010 10000000 		.word	mb1+16
 1190 0014 10000000 		.word	mb1+16
 1191 0018 00000000 		.word	0
 1192 001c 1C000000 		.word	mb1+28
 1193 0020 1C000000 		.word	mb1+28
 1194 0024 05000000 		.word	5
 1195              		.section	.rodata.patternmbox,"a",%progbits
 1196              		.align	2
 1197              		.type	patternmbox, %object
ARM GAS  /tmp/ccFQWhDI.s 			page 22


 1198              		.size	patternmbox, 8
 1199              	patternmbox:
 1200 0000 00000000 		.word	testmbox1
 1201 0004 00000000 		.word	0
 1202              		.section	.rodata.str1.4,"aMS",%progbits,1
 1203              		.align	2
 1204              	.LC0:
 1205 0000 41424344 		.ascii	"ABCDE\000"
 1205      4500
 1206 0006 0000     		.space	2
 1207              	.LC1:
 1208 0008 4D61696C 		.ascii	"Mailboxes, queuing and timeouts\000"
 1208      626F7865 
 1208      732C2071 
 1208      75657569 
 1208      6E672061 
 1209              		.section	.rodata.testmbox1,"a",%progbits
 1210              		.align	2
 1211              		.type	testmbox1, %object
 1212              		.size	testmbox1, 16
 1213              	testmbox1:
 1214 0000 08000000 		.word	.LC1
 1215 0004 00000000 		.word	mbox1_setup
 1216 0008 00000000 		.word	0
 1217 000c 00000000 		.word	mbox1_execute
 1218              		.text
 1219              	.Letext0:
 1220              		.file 2 "/usr/include/newlib/machine/_default_types.h"
 1221              		.file 3 "/usr/include/newlib/sys/_stdint.h"
 1222              		.file 4 "../../ChibiOS_2.6.5/os/ports/GCC/ARMCMx/chtypes.h"
 1223              		.file 5 "../../ChibiOS_2.6.5/os/kernel/include/chlists.h"
 1224              		.file 6 "../../ChibiOS_2.6.5/os/kernel/include/chthreads.h"
 1225              		.file 7 "../../ChibiOS_2.6.5/os/ports/GCC/ARMCMx/chcore_v7m.h"
 1226              		.file 8 "../../ChibiOS_2.6.5/os/kernel/include/chsem.h"
 1227              		.file 9 "../../ChibiOS_2.6.5/os/kernel/include/chmtx.h"
 1228              		.file 10 "../../ChibiOS_2.6.5/os/kernel/include/chmboxes.h"
 1229              		.file 11 "../../ChibiOS_2.6.5/test/test.h"
 1230              		.file 12 "../../ChibiOS_2.6.5/os/kernel/include/chdebug.h"