ARM GAS  /tmp/ccdZK4qd.s 			page 1


   1              		.syntax unified
   2              		.cpu cortex-m4
   3              		.fpu softvfp
   4              		.eabi_attribute 20, 1
   5              		.eabi_attribute 21, 1
   6              		.eabi_attribute 23, 3
   7              		.eabi_attribute 24, 1
   8              		.eabi_attribute 25, 1
   9              		.eabi_attribute 26, 1
  10              		.eabi_attribute 30, 2
  11              		.eabi_attribute 34, 1
  12              		.eabi_attribute 18, 4
  13              		.thumb
  14              		.file	"testbmk.c"
  15              		.text
  16              	.Ltext0:
  17              		.cfi_sections	.debug_frame
  18              		.section	.text.thread2,"ax",%progbits
  19              		.align	2
  20              		.p2align 4,,15
  21              		.thumb
  22              		.thumb_func
  23              		.type	thread2, %function
  24              	thread2:
  25              	.LFB11:
  26              		.file 1 "../../ChibiOS_2.6.5/test/testbmk.c"
  27              		.loc 1 154 0
  28              		.cfi_startproc
  29              		@ args = 0, pretend = 0, frame = 0
  30              		@ frame_needed = 0, uses_anonymous_args = 0
  31              		@ link register save eliminated.
  32              	.LVL0:
  33              		.loc 1 157 0
  34 0000 7047     		bx	lr
  35              		.cfi_endproc
  36              	.LFE11:
  37              		.size	thread2, .-thread2
  38 0002 00BF     		.section	.text.tmo,"ax",%progbits
  39              		.align	2
  40              		.p2align 4,,15
  41              		.thumb
  42              		.thumb_func
  43              		.type	tmo, %function
  44              	tmo:
  45              	.LFB23:
  46              		.loc 1 502 0
  47              		.cfi_startproc
  48              		@ args = 0, pretend = 0, frame = 0
  49              		@ frame_needed = 0, uses_anonymous_args = 0
  50              		@ link register save eliminated.
  51              	.LVL1:
  52 0000 7047     		bx	lr
  53              		.cfi_endproc
  54              	.LFE23:
  55              		.size	tmo, .-tmo
  56 0002 00BF     		.section	.text.bmk13_execute,"ax",%progbits
  57              		.align	2
ARM GAS  /tmp/ccdZK4qd.s 			page 2


  58              		.p2align 4,,15
  59              		.thumb
  60              		.thumb_func
  61              		.type	bmk13_execute, %function
  62              	bmk13_execute:
  63              	.LFB29:
  64              		.loc 1 637 0
  65              		.cfi_startproc
  66              		@ args = 0, pretend = 0, frame = 0
  67              		@ frame_needed = 0, uses_anonymous_args = 0
  68              		.loc 1 637 0
  69 0000 10B5     		push	{r4, lr}
  70              		.cfi_def_cfa_offset 8
  71              		.cfi_offset 4, -8
  72              		.cfi_offset 14, -4
  73              		.loc 1 639 0
  74 0002 2F48     		ldr	r0, .L5
  75              		.loc 1 645 0
  76 0004 2F4C     		ldr	r4, .L5+4
  77              		.loc 1 639 0
  78 0006 FFF7FEFF 		bl	test_print
  79              	.LVL2:
  80              		.loc 1 640 0
  81 000a 4FF4EE70 		mov	r0, #476
  82 000e FFF7FEFF 		bl	test_printn
  83              	.LVL3:
  84              		.loc 1 645 0
  85 0012 2046     		mov	r0, r4
  86 0014 FFF7FEFF 		bl	test_println
  87              	.LVL4:
  88              		.loc 1 646 0
  89 0018 2B48     		ldr	r0, .L5+8
  90 001a FFF7FEFF 		bl	test_print
  91              	.LVL5:
  92              		.loc 1 647 0
  93 001e 4C20     		movs	r0, #76
  94 0020 FFF7FEFF 		bl	test_printn
  95              	.LVL6:
  96              		.loc 1 648 0
  97 0024 2046     		mov	r0, r4
  98 0026 FFF7FEFF 		bl	test_println
  99              	.LVL7:
 100              		.loc 1 649 0
 101 002a 2848     		ldr	r0, .L5+12
 102 002c FFF7FEFF 		bl	test_print
 103              	.LVL8:
 104              		.loc 1 650 0
 105 0030 1420     		movs	r0, #20
 106 0032 FFF7FEFF 		bl	test_printn
 107              	.LVL9:
 108              		.loc 1 651 0
 109 0036 2046     		mov	r0, r4
 110 0038 FFF7FEFF 		bl	test_println
 111              	.LVL10:
 112              		.loc 1 653 0
 113 003c 2448     		ldr	r0, .L5+16
 114 003e FFF7FEFF 		bl	test_print
ARM GAS  /tmp/ccdZK4qd.s 			page 3


 115              	.LVL11:
 116              		.loc 1 654 0
 117 0042 0C20     		movs	r0, #12
 118 0044 FFF7FEFF 		bl	test_printn
 119              	.LVL12:
 120              		.loc 1 655 0
 121 0048 2046     		mov	r0, r4
 122 004a FFF7FEFF 		bl	test_println
 123              	.LVL13:
 124              		.loc 1 658 0
 125 004e 2148     		ldr	r0, .L5+20
 126 0050 FFF7FEFF 		bl	test_print
 127              	.LVL14:
 128              		.loc 1 659 0
 129 0054 0420     		movs	r0, #4
 130 0056 FFF7FEFF 		bl	test_printn
 131              	.LVL15:
 132              		.loc 1 660 0
 133 005a 2046     		mov	r0, r4
 134 005c FFF7FEFF 		bl	test_println
 135              	.LVL16:
 136              		.loc 1 661 0
 137 0060 1D48     		ldr	r0, .L5+24
 138 0062 FFF7FEFF 		bl	test_print
 139              	.LVL17:
 140              		.loc 1 662 0
 141 0066 1020     		movs	r0, #16
 142 0068 FFF7FEFF 		bl	test_printn
 143              	.LVL18:
 144              		.loc 1 663 0
 145 006c 2046     		mov	r0, r4
 146 006e FFF7FEFF 		bl	test_println
 147              	.LVL19:
 148              		.loc 1 666 0
 149 0072 1A48     		ldr	r0, .L5+28
 150 0074 FFF7FEFF 		bl	test_print
 151              	.LVL20:
 152              		.loc 1 667 0
 153 0078 1020     		movs	r0, #16
 154 007a FFF7FEFF 		bl	test_printn
 155              	.LVL21:
 156              		.loc 1 668 0
 157 007e 2046     		mov	r0, r4
 158 0080 FFF7FEFF 		bl	test_println
 159              	.LVL22:
 160              		.loc 1 671 0
 161 0084 1648     		ldr	r0, .L5+32
 162 0086 FFF7FEFF 		bl	test_print
 163              	.LVL23:
 164              		.loc 1 672 0
 165 008a 0820     		movs	r0, #8
 166 008c FFF7FEFF 		bl	test_printn
 167              	.LVL24:
 168              		.loc 1 673 0
 169 0090 2046     		mov	r0, r4
 170 0092 FFF7FEFF 		bl	test_println
 171              	.LVL25:
ARM GAS  /tmp/ccdZK4qd.s 			page 4


 172              		.loc 1 676 0
 173 0096 1348     		ldr	r0, .L5+36
 174 0098 FFF7FEFF 		bl	test_print
 175              	.LVL26:
 176              		.loc 1 677 0
 177 009c 2420     		movs	r0, #36
 178 009e FFF7FEFF 		bl	test_printn
 179              	.LVL27:
 180              		.loc 1 678 0
 181 00a2 2046     		mov	r0, r4
 182 00a4 FFF7FEFF 		bl	test_println
 183              	.LVL28:
 184              		.loc 1 681 0
 185 00a8 0F48     		ldr	r0, .L5+40
 186 00aa FFF7FEFF 		bl	test_print
 187              	.LVL29:
 188              		.loc 1 682 0
 189 00ae 2820     		movs	r0, #40
 190 00b0 FFF7FEFF 		bl	test_printn
 191              	.LVL30:
 192              		.loc 1 683 0
 193 00b4 2046     		mov	r0, r4
 194              		.loc 1 685 0
 195 00b6 BDE81040 		pop	{r4, lr}
 196              		.cfi_restore 14
 197              		.cfi_restore 4
 198              		.cfi_def_cfa_offset 0
 199              		.loc 1 683 0
 200 00ba FFF7FEBF 		b	test_println
 201              	.LVL31:
 202              	.L6:
 203 00be 00BF     		.align	2
 204              	.L5:
 205 00c0 00000000 		.word	.LC0
 206 00c4 10000000 		.word	.LC1
 207 00c8 18000000 		.word	.LC2
 208 00cc 28000000 		.word	.LC3
 209 00d0 38000000 		.word	.LC4
 210 00d4 48000000 		.word	.LC5
 211 00d8 58000000 		.word	.LC6
 212 00dc 68000000 		.word	.LC7
 213 00e0 78000000 		.word	.LC8
 214 00e4 88000000 		.word	.LC9
 215 00e8 98000000 		.word	.LC10
 216              		.cfi_endproc
 217              	.LFE29:
 218              		.size	bmk13_execute, .-bmk13_execute
 219              		.section	.text.thread1,"ax",%progbits
 220              		.align	2
 221              		.p2align 4,,15
 222              		.thumb
 223              		.thumb_func
 224              		.type	thread1, %function
 225              	thread1:
 226              	.LFB7:
 227              		.loc 1 64 0
 228              		.cfi_startproc
ARM GAS  /tmp/ccdZK4qd.s 			page 5


 229              		@ args = 0, pretend = 0, frame = 0
 230              		@ frame_needed = 0, uses_anonymous_args = 0
 231              	.LVL32:
 232 0000 10B5     		push	{r4, lr}
 233              		.cfi_def_cfa_offset 8
 234              		.cfi_offset 4, -8
 235              		.cfi_offset 14, -4
 236              	.LVL33:
 237              	.L8:
 238              		.loc 1 70 0 discriminator 1
 239 0002 FFF7FEFF 		bl	chMsgWait
 240              	.LVL34:
 241              		.loc 1 71 0 discriminator 1
 242 0006 846B     		ldr	r4, [r0, #56]
 243              	.LVL35:
 244              		.loc 1 72 0 discriminator 1
 245 0008 2146     		mov	r1, r4
 246 000a FFF7FEFF 		bl	chMsgRelease
 247              	.LVL36:
 248              		.loc 1 73 0 discriminator 1
 249 000e 002C     		cmp	r4, #0
 250 0010 F7D1     		bne	.L8
 251              		.loc 1 75 0
 252 0012 2046     		mov	r0, r4
 253 0014 10BD     		pop	{r4, pc}
 254              		.cfi_endproc
 255              	.LFE7:
 256              		.size	thread1, .-thread1
 257 0016 00BF     		.section	.text.bmk6_execute,"ax",%progbits
 258              		.align	2
 259              		.p2align 4,,15
 260              		.thumb
 261              		.thumb_func
 262              		.type	bmk6_execute, %function
 263              	bmk6_execute:
 264              	.LFB16:
 265              		.loc 1 304 0
 266              		.cfi_startproc
 267              		@ args = 0, pretend = 0, frame = 0
 268              		@ frame_needed = 0, uses_anonymous_args = 0
 269              	.LVL37:
 270 0000 2DE9F041 		push	{r4, r5, r6, r7, r8, lr}
 271              		.cfi_def_cfa_offset 24
 272              		.cfi_offset 4, -24
 273              		.cfi_offset 5, -20
 274              		.cfi_offset 6, -16
 275              		.cfi_offset 7, -12
 276              		.cfi_offset 8, -8
 277              		.cfi_offset 14, -4
 278              		.loc 1 308 0
 279 0004 144B     		ldr	r3, .L17
 280              		.loc 1 307 0
 281 0006 154A     		ldr	r2, .L17+4
 282              		.loc 1 308 0
 283 0008 9B69     		ldr	r3, [r3, #24]
 284              		.loc 1 307 0
 285 000a D2F80080 		ldr	r8, [r2]
ARM GAS  /tmp/ccdZK4qd.s 			page 6


 286              	.LVL38:
 287              		.loc 1 308 0
 288 000e 9D68     		ldr	r5, [r3, #8]
 289 0010 134F     		ldr	r7, .L17+8
 290              		.loc 1 304 0
 291 0012 82B0     		sub	sp, sp, #8
 292              		.cfi_def_cfa_offset 32
 293              		.loc 1 309 0
 294 0014 FFF7FEFF 		bl	test_wait_tick
 295              	.LVL39:
 296              		.loc 1 310 0
 297 0018 4FF47A70 		mov	r0, #1000
 298 001c FFF7FEFF 		bl	test_start_timer
 299              	.LVL40:
 300              		.loc 1 306 0
 301 0020 0024     		movs	r4, #0
 302              		.loc 1 308 0
 303 0022 0135     		adds	r5, r5, #1
 304              	.LVL41:
 305              		.loc 1 312 0
 306 0024 2646     		mov	r6, r4
 307              	.LVL42:
 308              	.L13:
 309              		.loc 1 312 0 is_stmt 0 discriminator 1
 310 0026 0F4B     		ldr	r3, .L17+12
 311 0028 0096     		str	r6, [sp]
 312 002a 4046     		mov	r0, r8
 313 002c 4FF4A871 		mov	r1, #336
 314 0030 2A46     		mov	r2, r5
 315 0032 FFF7FEFF 		bl	chThdCreateStatic
 316              	.LVL43:
 317              		.loc 1 317 0 is_stmt 1 discriminator 1
 318 0036 3B78     		ldrb	r3, [r7]	@ zero_extendqisi2
 319              		.loc 1 313 0 discriminator 1
 320 0038 0134     		adds	r4, r4, #1
 321              	.LVL44:
 322              		.loc 1 317 0 discriminator 1
 323 003a 002B     		cmp	r3, #0
 324 003c F3D0     		beq	.L13
 325              		.loc 1 318 0
 326 003e 0A48     		ldr	r0, .L17+16
 327 0040 FFF7FEFF 		bl	test_print
 328              	.LVL45:
 329              		.loc 1 319 0
 330 0044 2046     		mov	r0, r4
 331 0046 FFF7FEFF 		bl	test_printn
 332              	.LVL46:
 333              		.loc 1 320 0
 334 004a 0848     		ldr	r0, .L17+20
 335              		.loc 1 321 0
 336 004c 02B0     		add	sp, sp, #8
 337              		.cfi_def_cfa_offset 24
 338              		@ sp needed
 339 004e BDE8F041 		pop	{r4, r5, r6, r7, r8, lr}
 340              		.cfi_restore 14
 341              		.cfi_restore 8
 342              		.cfi_restore 7
ARM GAS  /tmp/ccdZK4qd.s 			page 7


 343              		.cfi_restore 6
 344              		.cfi_restore 5
 345              		.cfi_restore 4
 346              		.cfi_def_cfa_offset 0
 347              	.LVL47:
 348              		.loc 1 320 0
 349 0052 FFF7FEBF 		b	test_println
 350              	.LVL48:
 351              	.L18:
 352 0056 00BF     		.align	2
 353              	.L17:
 354 0058 00000000 		.word	rlist
 355 005c 00000000 		.word	wa
 356 0060 00000000 		.word	test_timer_done
 357 0064 00000000 		.word	thread2
 358 0068 A8000000 		.word	.LC11
 359 006c B8000000 		.word	.LC12
 360              		.cfi_endproc
 361              	.LFE16:
 362              		.size	bmk6_execute, .-bmk6_execute
 363              		.section	.text.msg_loop_test,"ax",%progbits
 364              		.align	2
 365              		.p2align 4,,15
 366              		.thumb
 367              		.thumb_func
 368              		.type	msg_loop_test, %function
 369              	msg_loop_test:
 370              	.LFB8:
 371              		.loc 1 80 0
 372              		.cfi_startproc
 373              		@ args = 0, pretend = 0, frame = 0
 374              		@ frame_needed = 0, uses_anonymous_args = 0
 375              	.LVL49:
 376 0000 70B5     		push	{r4, r5, r6, lr}
 377              		.cfi_def_cfa_offset 16
 378              		.cfi_offset 4, -16
 379              		.cfi_offset 5, -12
 380              		.cfi_offset 6, -8
 381              		.cfi_offset 14, -4
 382              		.loc 1 80 0
 383 0002 0546     		mov	r5, r0
 384              		.loc 1 83 0
 385 0004 FFF7FEFF 		bl	test_wait_tick
 386              	.LVL50:
 387              		.loc 1 84 0
 388 0008 4FF47A70 		mov	r0, #1000
 389 000c FFF7FEFF 		bl	test_start_timer
 390              	.LVL51:
 391 0010 074E     		ldr	r6, .L24
 392              		.loc 1 82 0
 393 0012 0024     		movs	r4, #0
 394              	.LVL52:
 395              	.L20:
 396              		.loc 1 86 0 discriminator 1
 397 0014 2846     		mov	r0, r5
 398 0016 0121     		movs	r1, #1
 399 0018 FFF7FEFF 		bl	chMsgSend
ARM GAS  /tmp/ccdZK4qd.s 			page 8


 400              	.LVL53:
 401              		.loc 1 91 0 discriminator 1
 402 001c 3378     		ldrb	r3, [r6]	@ zero_extendqisi2
 403              		.loc 1 87 0 discriminator 1
 404 001e 0134     		adds	r4, r4, #1
 405              	.LVL54:
 406              		.loc 1 91 0 discriminator 1
 407 0020 002B     		cmp	r3, #0
 408 0022 F7D0     		beq	.L20
 409              		.loc 1 92 0
 410 0024 2846     		mov	r0, r5
 411 0026 0021     		movs	r1, #0
 412 0028 FFF7FEFF 		bl	chMsgSend
 413              	.LVL55:
 414              		.loc 1 94 0
 415 002c 2046     		mov	r0, r4
 416 002e 70BD     		pop	{r4, r5, r6, pc}
 417              	.LVL56:
 418              	.L25:
 419              		.align	2
 420              	.L24:
 421 0030 00000000 		.word	test_timer_done
 422              		.cfi_endproc
 423              	.LFE8:
 424              		.size	msg_loop_test, .-msg_loop_test
 425              		.section	.text.bmk1_execute,"ax",%progbits
 426              		.align	2
 427              		.p2align 4,,15
 428              		.thumb
 429              		.thumb_func
 430              		.type	bmk1_execute, %function
 431              	bmk1_execute:
 432              	.LFB9:
 433              		.loc 1 105 0
 434              		.cfi_startproc
 435              		@ args = 0, pretend = 0, frame = 0
 436              		@ frame_needed = 0, uses_anonymous_args = 0
 437 0000 10B5     		push	{r4, lr}
 438              		.cfi_def_cfa_offset 8
 439              		.cfi_offset 4, -8
 440              		.cfi_offset 14, -4
 441              		.loc 1 108 0
 442 0002 134B     		ldr	r3, .L28
 443 0004 134A     		ldr	r2, .L28+4
 444 0006 9B69     		ldr	r3, [r3, #24]
 445 0008 1068     		ldr	r0, [r2]
 446 000a 9A68     		ldr	r2, [r3, #8]
 447 000c 124B     		ldr	r3, .L28+8
 448              		.loc 1 105 0
 449 000e 82B0     		sub	sp, sp, #8
 450              		.cfi_def_cfa_offset 16
 451              		.loc 1 108 0
 452 0010 0021     		movs	r1, #0
 453 0012 013A     		subs	r2, r2, #1
 454 0014 0091     		str	r1, [sp]
 455 0016 4FF4A871 		mov	r1, #336
 456 001a FFF7FEFF 		bl	chThdCreateStatic
ARM GAS  /tmp/ccdZK4qd.s 			page 9


 457              	.LVL57:
 458 001e 0F4B     		ldr	r3, .L28+12
 459 0020 1860     		str	r0, [r3]
 460              		.loc 1 109 0
 461 0022 FFF7FEFF 		bl	msg_loop_test
 462              	.LVL58:
 463 0026 0446     		mov	r4, r0
 464              	.LVL59:
 465              		.loc 1 110 0
 466 0028 FFF7FEFF 		bl	test_wait_threads
 467              	.LVL60:
 468              		.loc 1 111 0
 469 002c 0C48     		ldr	r0, .L28+16
 470 002e FFF7FEFF 		bl	test_print
 471              	.LVL61:
 472              		.loc 1 112 0
 473 0032 2046     		mov	r0, r4
 474 0034 FFF7FEFF 		bl	test_printn
 475              	.LVL62:
 476              		.loc 1 113 0
 477 0038 0A48     		ldr	r0, .L28+20
 478 003a FFF7FEFF 		bl	test_print
 479              	.LVL63:
 480              		.loc 1 114 0
 481 003e 6000     		lsls	r0, r4, #1
 482 0040 FFF7FEFF 		bl	test_printn
 483              	.LVL64:
 484              		.loc 1 115 0
 485 0044 0848     		ldr	r0, .L28+24
 486              		.loc 1 116 0
 487 0046 02B0     		add	sp, sp, #8
 488              		.cfi_def_cfa_offset 8
 489              		@ sp needed
 490 0048 BDE81040 		pop	{r4, lr}
 491              		.cfi_restore 14
 492              		.cfi_restore 4
 493              		.cfi_def_cfa_offset 0
 494              	.LVL65:
 495              		.loc 1 115 0
 496 004c FFF7FEBF 		b	test_println
 497              	.LVL66:
 498              	.L29:
 499              		.align	2
 500              	.L28:
 501 0050 00000000 		.word	rlist
 502 0054 00000000 		.word	wa
 503 0058 00000000 		.word	thread1
 504 005c 00000000 		.word	threads
 505 0060 A8000000 		.word	.LC11
 506 0064 C4000000 		.word	.LC13
 507 0068 D0000000 		.word	.LC14
 508              		.cfi_endproc
 509              	.LFE9:
 510              		.size	bmk1_execute, .-bmk1_execute
 511              		.section	.text.bmk2_execute,"ax",%progbits
 512              		.align	2
 513              		.p2align 4,,15
ARM GAS  /tmp/ccdZK4qd.s 			page 10


 514              		.thumb
 515              		.thumb_func
 516              		.type	bmk2_execute, %function
 517              	bmk2_execute:
 518              	.LFB10:
 519              		.loc 1 134 0
 520              		.cfi_startproc
 521              		@ args = 0, pretend = 0, frame = 0
 522              		@ frame_needed = 0, uses_anonymous_args = 0
 523 0000 10B5     		push	{r4, lr}
 524              		.cfi_def_cfa_offset 8
 525              		.cfi_offset 4, -8
 526              		.cfi_offset 14, -4
 527              		.loc 1 137 0
 528 0002 134B     		ldr	r3, .L32
 529 0004 134A     		ldr	r2, .L32+4
 530 0006 9B69     		ldr	r3, [r3, #24]
 531 0008 1068     		ldr	r0, [r2]
 532 000a 9A68     		ldr	r2, [r3, #8]
 533 000c 124B     		ldr	r3, .L32+8
 534              		.loc 1 134 0
 535 000e 82B0     		sub	sp, sp, #8
 536              		.cfi_def_cfa_offset 16
 537              		.loc 1 137 0
 538 0010 0021     		movs	r1, #0
 539 0012 0132     		adds	r2, r2, #1
 540 0014 0091     		str	r1, [sp]
 541 0016 4FF4A871 		mov	r1, #336
 542 001a FFF7FEFF 		bl	chThdCreateStatic
 543              	.LVL67:
 544 001e 0F4B     		ldr	r3, .L32+12
 545 0020 1860     		str	r0, [r3]
 546              		.loc 1 138 0
 547 0022 FFF7FEFF 		bl	msg_loop_test
 548              	.LVL68:
 549 0026 0446     		mov	r4, r0
 550              	.LVL69:
 551              		.loc 1 139 0
 552 0028 FFF7FEFF 		bl	test_wait_threads
 553              	.LVL70:
 554              		.loc 1 140 0
 555 002c 0C48     		ldr	r0, .L32+16
 556 002e FFF7FEFF 		bl	test_print
 557              	.LVL71:
 558              		.loc 1 141 0
 559 0032 2046     		mov	r0, r4
 560 0034 FFF7FEFF 		bl	test_printn
 561              	.LVL72:
 562              		.loc 1 142 0
 563 0038 0A48     		ldr	r0, .L32+20
 564 003a FFF7FEFF 		bl	test_print
 565              	.LVL73:
 566              		.loc 1 143 0
 567 003e 6000     		lsls	r0, r4, #1
 568 0040 FFF7FEFF 		bl	test_printn
 569              	.LVL74:
 570              		.loc 1 144 0
ARM GAS  /tmp/ccdZK4qd.s 			page 11


 571 0044 0848     		ldr	r0, .L32+24
 572              		.loc 1 145 0
 573 0046 02B0     		add	sp, sp, #8
 574              		.cfi_def_cfa_offset 8
 575              		@ sp needed
 576 0048 BDE81040 		pop	{r4, lr}
 577              		.cfi_restore 14
 578              		.cfi_restore 4
 579              		.cfi_def_cfa_offset 0
 580              	.LVL75:
 581              		.loc 1 144 0
 582 004c FFF7FEBF 		b	test_println
 583              	.LVL76:
 584              	.L33:
 585              		.align	2
 586              	.L32:
 587 0050 00000000 		.word	rlist
 588 0054 00000000 		.word	wa
 589 0058 00000000 		.word	thread1
 590 005c 00000000 		.word	threads
 591 0060 A8000000 		.word	.LC11
 592 0064 C4000000 		.word	.LC13
 593 0068 D0000000 		.word	.LC14
 594              		.cfi_endproc
 595              	.LFE10:
 596              		.size	bmk2_execute, .-bmk2_execute
 597              		.section	.text.bmk3_execute,"ax",%progbits
 598              		.align	2
 599              		.p2align 4,,15
 600              		.thumb
 601              		.thumb_func
 602              		.type	bmk3_execute, %function
 603              	bmk3_execute:
 604              	.LFB12:
 605              		.loc 1 169 0
 606              		.cfi_startproc
 607              		@ args = 0, pretend = 0, frame = 0
 608              		@ frame_needed = 0, uses_anonymous_args = 0
 609 0000 2DE9F041 		push	{r4, r5, r6, r7, r8, lr}
 610              		.cfi_def_cfa_offset 24
 611              		.cfi_offset 4, -24
 612              		.cfi_offset 5, -20
 613              		.cfi_offset 6, -16
 614              		.cfi_offset 7, -12
 615              		.cfi_offset 8, -8
 616              		.cfi_offset 14, -4
 617              		.loc 1 172 0
 618 0004 2C4F     		ldr	r7, .L36
 619 0006 2D4E     		ldr	r6, .L36+4
 620 0008 BB69     		ldr	r3, [r7, #24]
 621 000a 3068     		ldr	r0, [r6]
 622 000c 9A68     		ldr	r2, [r3, #8]
 623 000e 2C4B     		ldr	r3, .L36+8
 624 0010 2C4C     		ldr	r4, .L36+12
 625              		.loc 1 173 0
 626 0012 DFF8C080 		ldr	r8, .L36+28
 627              		.loc 1 169 0
ARM GAS  /tmp/ccdZK4qd.s 			page 12


 628 0016 82B0     		sub	sp, sp, #8
 629              		.cfi_def_cfa_offset 32
 630              		.loc 1 172 0
 631 0018 0025     		movs	r5, #0
 632 001a 0132     		adds	r2, r2, #1
 633 001c 0095     		str	r5, [sp]
 634 001e 4FF4A871 		mov	r1, #336
 635 0022 FFF7FEFF 		bl	chThdCreateStatic
 636              	.LVL77:
 637              		.loc 1 173 0
 638 0026 BA69     		ldr	r2, [r7, #24]
 639 0028 7368     		ldr	r3, [r6, #4]
 640 002a 9268     		ldr	r2, [r2, #8]
 641              		.loc 1 172 0
 642 002c 2060     		str	r0, [r4]
 643              		.loc 1 173 0
 644 002e 023A     		subs	r2, r2, #2
 645 0030 0095     		str	r5, [sp]
 646 0032 1846     		mov	r0, r3
 647 0034 4FF4A871 		mov	r1, #336
 648 0038 4346     		mov	r3, r8
 649 003a FFF7FEFF 		bl	chThdCreateStatic
 650              	.LVL78:
 651              		.loc 1 174 0
 652 003e BA69     		ldr	r2, [r7, #24]
 653 0040 B368     		ldr	r3, [r6, #8]
 654 0042 9268     		ldr	r2, [r2, #8]
 655              		.loc 1 173 0
 656 0044 6060     		str	r0, [r4, #4]
 657              		.loc 1 174 0
 658 0046 033A     		subs	r2, r2, #3
 659 0048 0095     		str	r5, [sp]
 660 004a 1846     		mov	r0, r3
 661 004c 4FF4A871 		mov	r1, #336
 662 0050 4346     		mov	r3, r8
 663 0052 FFF7FEFF 		bl	chThdCreateStatic
 664              	.LVL79:
 665              		.loc 1 175 0
 666 0056 BA69     		ldr	r2, [r7, #24]
 667 0058 F368     		ldr	r3, [r6, #12]
 668 005a 9268     		ldr	r2, [r2, #8]
 669              		.loc 1 174 0
 670 005c A060     		str	r0, [r4, #8]
 671              		.loc 1 175 0
 672 005e 043A     		subs	r2, r2, #4
 673 0060 0095     		str	r5, [sp]
 674 0062 1846     		mov	r0, r3
 675 0064 4FF4A871 		mov	r1, #336
 676 0068 4346     		mov	r3, r8
 677 006a FFF7FEFF 		bl	chThdCreateStatic
 678              	.LVL80:
 679              		.loc 1 176 0
 680 006e BA69     		ldr	r2, [r7, #24]
 681 0070 3369     		ldr	r3, [r6, #16]
 682 0072 9268     		ldr	r2, [r2, #8]
 683              		.loc 1 175 0
 684 0074 E060     		str	r0, [r4, #12]
ARM GAS  /tmp/ccdZK4qd.s 			page 13


 685              		.loc 1 176 0
 686 0076 053A     		subs	r2, r2, #5
 687 0078 4FF4A871 		mov	r1, #336
 688 007c 1846     		mov	r0, r3
 689 007e 0095     		str	r5, [sp]
 690 0080 4346     		mov	r3, r8
 691 0082 FFF7FEFF 		bl	chThdCreateStatic
 692              	.LVL81:
 693 0086 2061     		str	r0, [r4, #16]
 694              		.loc 1 177 0
 695 0088 2068     		ldr	r0, [r4]
 696 008a FFF7FEFF 		bl	msg_loop_test
 697              	.LVL82:
 698 008e 0446     		mov	r4, r0
 699              	.LVL83:
 700              		.loc 1 178 0
 701 0090 FFF7FEFF 		bl	test_wait_threads
 702              	.LVL84:
 703              		.loc 1 179 0
 704 0094 0C48     		ldr	r0, .L36+16
 705 0096 FFF7FEFF 		bl	test_print
 706              	.LVL85:
 707              		.loc 1 180 0
 708 009a 2046     		mov	r0, r4
 709 009c FFF7FEFF 		bl	test_printn
 710              	.LVL86:
 711              		.loc 1 181 0
 712 00a0 0A48     		ldr	r0, .L36+20
 713 00a2 FFF7FEFF 		bl	test_print
 714              	.LVL87:
 715              		.loc 1 182 0
 716 00a6 6000     		lsls	r0, r4, #1
 717 00a8 FFF7FEFF 		bl	test_printn
 718              	.LVL88:
 719              		.loc 1 183 0
 720 00ac 0848     		ldr	r0, .L36+24
 721              		.loc 1 184 0
 722 00ae 02B0     		add	sp, sp, #8
 723              		.cfi_def_cfa_offset 24
 724              		@ sp needed
 725 00b0 BDE8F041 		pop	{r4, r5, r6, r7, r8, lr}
 726              		.cfi_restore 14
 727              		.cfi_restore 8
 728              		.cfi_restore 7
 729              		.cfi_restore 6
 730              		.cfi_restore 5
 731              		.cfi_restore 4
 732              		.cfi_def_cfa_offset 0
 733              	.LVL89:
 734              		.loc 1 183 0
 735 00b4 FFF7FEBF 		b	test_println
 736              	.LVL90:
 737              	.L37:
 738              		.align	2
 739              	.L36:
 740 00b8 00000000 		.word	rlist
 741 00bc 00000000 		.word	wa
ARM GAS  /tmp/ccdZK4qd.s 			page 14


 742 00c0 00000000 		.word	thread1
 743 00c4 00000000 		.word	threads
 744 00c8 A8000000 		.word	.LC11
 745 00cc C4000000 		.word	.LC13
 746 00d0 D0000000 		.word	.LC14
 747 00d4 00000000 		.word	thread2
 748              		.cfi_endproc
 749              	.LFE12:
 750              		.size	bmk3_execute, .-bmk3_execute
 751              		.section	.text.thread4,"ax",%progbits
 752              		.align	2
 753              		.p2align 4,,15
 754              		.global	thread4
 755              		.thumb
 756              		.thumb_func
 757              		.type	thread4, %function
 758              	thread4:
 759              	.LFB13:
 760              		.loc 1 203 0
 761              		.cfi_startproc
 762              		@ args = 0, pretend = 0, frame = 0
 763              		@ frame_needed = 0, uses_anonymous_args = 0
 764              	.LVL91:
 765              		.loc 1 205 0
 766 0000 0A4A     		ldr	r2, .L43
 767              		.loc 1 203 0
 768 0002 10B5     		push	{r4, lr}
 769              		.cfi_def_cfa_offset 8
 770              		.cfi_offset 4, -8
 771              		.cfi_offset 14, -4
 772              	.LBB2:
 773              		.loc 1 208 0
 774 0004 2023     		movs	r3, #32
 775              	.LBE2:
 776              		.loc 1 205 0
 777 0006 9469     		ldr	r4, [r2, #24]
 778              	.LVL92:
 779              	.LBB3:
 780              		.loc 1 208 0
 781              	@ 208 "../../ChibiOS_2.6.5/test/testbmk.c" 1
 782 0008 83F31188 		msr     BASEPRI, r3
 783              	@ 0 "" 2
 784              		.thumb
 785              	.LBE3:
 786 000c FFF7FEFF 		bl	dbg_check_lock
 787              	.LVL93:
 788              	.L39:
 789              		.loc 1 210 0 discriminator 1
 790 0010 0220     		movs	r0, #2
 791 0012 FFF7FEFF 		bl	chSchGoSleepS
 792              	.LVL94:
 793              		.loc 1 212 0 discriminator 1
 794 0016 A36A     		ldr	r3, [r4, #40]
 795 0018 002B     		cmp	r3, #0
 796 001a F9D0     		beq	.L39
 797              		.loc 1 213 0
 798 001c FFF7FEFF 		bl	dbg_check_unlock
ARM GAS  /tmp/ccdZK4qd.s 			page 15


 799              	.LVL95:
 800              	.LBB4:
 801 0020 0023     		movs	r3, #0
 802              	@ 213 "../../ChibiOS_2.6.5/test/testbmk.c" 1
 803 0022 83F31188 		msr     BASEPRI, r3
 804              	@ 0 "" 2
 805              		.thumb
 806              	.LBE4:
 807              		.loc 1 215 0
 808 0026 1846     		mov	r0, r3
 809 0028 10BD     		pop	{r4, pc}
 810              	.LVL96:
 811              	.L44:
 812 002a 00BF     		.align	2
 813              	.L43:
 814 002c 00000000 		.word	rlist
 815              		.cfi_endproc
 816              	.LFE13:
 817              		.size	thread4, .-thread4
 818              		.section	.text.bmk4_execute,"ax",%progbits
 819              		.align	2
 820              		.p2align 4,,15
 821              		.thumb
 822              		.thumb_func
 823              		.type	bmk4_execute, %function
 824              	bmk4_execute:
 825              	.LFB14:
 826              		.loc 1 217 0
 827              		.cfi_startproc
 828              		@ args = 0, pretend = 0, frame = 0
 829              		@ frame_needed = 0, uses_anonymous_args = 0
 830 0000 70B5     		push	{r4, r5, r6, lr}
 831              		.cfi_def_cfa_offset 16
 832              		.cfi_offset 4, -16
 833              		.cfi_offset 5, -12
 834              		.cfi_offset 6, -8
 835              		.cfi_offset 14, -4
 836              		.loc 1 221 0
 837 0002 294B     		ldr	r3, .L50
 838 0004 294A     		ldr	r2, .L50+4
 839 0006 9B69     		ldr	r3, [r3, #24]
 840 0008 1068     		ldr	r0, [r2]
 841 000a 9A68     		ldr	r2, [r3, #8]
 842 000c 284B     		ldr	r3, .L50+8
 843 000e 294E     		ldr	r6, .L50+12
 844              		.loc 1 217 0
 845 0010 82B0     		sub	sp, sp, #8
 846              		.cfi_def_cfa_offset 24
 847              		.loc 1 221 0
 848 0012 0025     		movs	r5, #0
 849 0014 0132     		adds	r2, r2, #1
 850 0016 4FF4A871 		mov	r1, #336
 851 001a 0095     		str	r5, [sp]
 852 001c FFF7FEFF 		bl	chThdCreateStatic
 853              	.LVL97:
 854 0020 254B     		ldr	r3, .L50+16
 855 0022 0446     		mov	r4, r0
ARM GAS  /tmp/ccdZK4qd.s 			page 16


 856 0024 1860     		str	r0, [r3]
 857              	.LVL98:
 858              		.loc 1 223 0
 859 0026 FFF7FEFF 		bl	test_wait_tick
 860              	.LVL99:
 861              		.loc 1 224 0
 862 002a 4FF47A70 		mov	r0, #1000
 863 002e FFF7FEFF 		bl	test_start_timer
 864              	.LVL100:
 865              	.L46:
 866              	.LBB5:
 867              		.loc 1 226 0 discriminator 1
 868 0032 2023     		movs	r3, #32
 869              	@ 226 "../../ChibiOS_2.6.5/test/testbmk.c" 1
 870 0034 83F31188 		msr     BASEPRI, r3
 871              	@ 0 "" 2
 872              		.thumb
 873              	.LBE5:
 874 0038 FFF7FEFF 		bl	dbg_check_lock
 875              	.LVL101:
 876              		.loc 1 227 0 discriminator 1
 877 003c 2046     		mov	r0, r4
 878 003e 0021     		movs	r1, #0
 879 0040 FFF7FEFF 		bl	chSchWakeupS
 880              	.LVL102:
 881              		.loc 1 228 0 discriminator 1
 882 0044 2046     		mov	r0, r4
 883 0046 0021     		movs	r1, #0
 884 0048 FFF7FEFF 		bl	chSchWakeupS
 885              	.LVL103:
 886              		.loc 1 229 0 discriminator 1
 887 004c 2046     		mov	r0, r4
 888 004e 0021     		movs	r1, #0
 889 0050 FFF7FEFF 		bl	chSchWakeupS
 890              	.LVL104:
 891              		.loc 1 230 0 discriminator 1
 892 0054 2046     		mov	r0, r4
 893 0056 0021     		movs	r1, #0
 894 0058 FFF7FEFF 		bl	chSchWakeupS
 895              	.LVL105:
 896              		.loc 1 231 0 discriminator 1
 897 005c FFF7FEFF 		bl	dbg_check_unlock
 898              	.LVL106:
 899              	.LBB6:
 900 0060 0023     		movs	r3, #0
 901              	@ 231 "../../ChibiOS_2.6.5/test/testbmk.c" 1
 902 0062 83F31188 		msr     BASEPRI, r3
 903              	@ 0 "" 2
 904              		.thumb
 905              	.LBE6:
 906              		.loc 1 236 0 discriminator 1
 907 0066 3378     		ldrb	r3, [r6]	@ zero_extendqisi2
 908              		.loc 1 232 0 discriminator 1
 909 0068 0435     		adds	r5, r5, #4
 910              	.LVL107:
 911              		.loc 1 236 0 discriminator 1
 912 006a 002B     		cmp	r3, #0
ARM GAS  /tmp/ccdZK4qd.s 			page 17


 913 006c E1D0     		beq	.L46
 914              	.LBB7:
 915              		.loc 1 237 0
 916 006e 2023     		movs	r3, #32
 917              	@ 237 "../../ChibiOS_2.6.5/test/testbmk.c" 1
 918 0070 83F31188 		msr     BASEPRI, r3
 919              	@ 0 "" 2
 920              		.thumb
 921              	.LBE7:
 922 0074 FFF7FEFF 		bl	dbg_check_lock
 923              	.LVL108:
 924              		.loc 1 238 0
 925 0078 2046     		mov	r0, r4
 926 007a 4FF0FF31 		mov	r1, #-1
 927 007e FFF7FEFF 		bl	chSchWakeupS
 928              	.LVL109:
 929              		.loc 1 239 0
 930 0082 FFF7FEFF 		bl	dbg_check_unlock
 931              	.LVL110:
 932              	.LBB8:
 933 0086 0023     		movs	r3, #0
 934              	@ 239 "../../ChibiOS_2.6.5/test/testbmk.c" 1
 935 0088 83F31188 		msr     BASEPRI, r3
 936              	@ 0 "" 2
 937              		.thumb
 938              	.LBE8:
 939              		.loc 1 241 0
 940 008c FFF7FEFF 		bl	test_wait_threads
 941              	.LVL111:
 942              		.loc 1 242 0
 943 0090 0A48     		ldr	r0, .L50+20
 944 0092 FFF7FEFF 		bl	test_print
 945              	.LVL112:
 946              		.loc 1 243 0
 947 0096 6800     		lsls	r0, r5, #1
 948 0098 FFF7FEFF 		bl	test_printn
 949              	.LVL113:
 950              		.loc 1 244 0
 951 009c 0848     		ldr	r0, .L50+24
 952              		.loc 1 245 0
 953 009e 02B0     		add	sp, sp, #8
 954              		.cfi_def_cfa_offset 16
 955              		@ sp needed
 956 00a0 BDE87040 		pop	{r4, r5, r6, lr}
 957              		.cfi_restore 14
 958              		.cfi_restore 6
 959              		.cfi_restore 5
 960              		.cfi_restore 4
 961              		.cfi_def_cfa_offset 0
 962              	.LVL114:
 963              		.loc 1 244 0
 964 00a4 FFF7FEBF 		b	test_println
 965              	.LVL115:
 966              	.L51:
 967              		.align	2
 968              	.L50:
 969 00a8 00000000 		.word	rlist
ARM GAS  /tmp/ccdZK4qd.s 			page 18


 970 00ac 00000000 		.word	wa
 971 00b0 00000000 		.word	thread4
 972 00b4 00000000 		.word	test_timer_done
 973 00b8 00000000 		.word	threads
 974 00bc A8000000 		.word	.LC11
 975 00c0 D0000000 		.word	.LC14
 976              		.cfi_endproc
 977              	.LFE14:
 978              		.size	bmk4_execute, .-bmk4_execute
 979              		.section	.text.bmk5_execute,"ax",%progbits
 980              		.align	2
 981              		.p2align 4,,15
 982              		.thumb
 983              		.thumb_func
 984              		.type	bmk5_execute, %function
 985              	bmk5_execute:
 986              	.LFB15:
 987              		.loc 1 265 0
 988              		.cfi_startproc
 989              		@ args = 0, pretend = 0, frame = 0
 990              		@ frame_needed = 0, uses_anonymous_args = 0
 991              	.LVL116:
 992 0000 2DE9F041 		push	{r4, r5, r6, r7, r8, lr}
 993              		.cfi_def_cfa_offset 24
 994              		.cfi_offset 4, -24
 995              		.cfi_offset 5, -20
 996              		.cfi_offset 6, -16
 997              		.cfi_offset 7, -12
 998              		.cfi_offset 8, -8
 999              		.cfi_offset 14, -4
 1000              		.loc 1 269 0
 1001 0004 154B     		ldr	r3, .L57
 1002              		.loc 1 268 0
 1003 0006 164A     		ldr	r2, .L57+4
 1004              		.loc 1 269 0
 1005 0008 9B69     		ldr	r3, [r3, #24]
 1006              		.loc 1 268 0
 1007 000a D2F80080 		ldr	r8, [r2]
 1008              	.LVL117:
 1009              		.loc 1 269 0
 1010 000e 9D68     		ldr	r5, [r3, #8]
 1011 0010 144F     		ldr	r7, .L57+8
 1012              		.loc 1 265 0
 1013 0012 82B0     		sub	sp, sp, #8
 1014              		.cfi_def_cfa_offset 32
 1015              		.loc 1 270 0
 1016 0014 FFF7FEFF 		bl	test_wait_tick
 1017              	.LVL118:
 1018              		.loc 1 271 0
 1019 0018 4FF47A70 		mov	r0, #1000
 1020 001c FFF7FEFF 		bl	test_start_timer
 1021              	.LVL119:
 1022              		.loc 1 267 0
 1023 0020 0024     		movs	r4, #0
 1024              		.loc 1 269 0
 1025 0022 013D     		subs	r5, r5, #1
 1026              	.LVL120:
ARM GAS  /tmp/ccdZK4qd.s 			page 19


 1027              		.loc 1 273 0
 1028 0024 2646     		mov	r6, r4
 1029              	.LVL121:
 1030              	.L53:
 1031              		.loc 1 273 0 is_stmt 0 discriminator 1
 1032 0026 104B     		ldr	r3, .L57+12
 1033 0028 0096     		str	r6, [sp]
 1034 002a 4FF4A871 		mov	r1, #336
 1035 002e 2A46     		mov	r2, r5
 1036 0030 4046     		mov	r0, r8
 1037 0032 FFF7FEFF 		bl	chThdCreateStatic
 1038              	.LVL122:
 1039 0036 FFF7FEFF 		bl	chThdWait
 1040              	.LVL123:
 1041              		.loc 1 278 0 is_stmt 1 discriminator 1
 1042 003a 3B78     		ldrb	r3, [r7]	@ zero_extendqisi2
 1043              		.loc 1 274 0 discriminator 1
 1044 003c 0134     		adds	r4, r4, #1
 1045              	.LVL124:
 1046              		.loc 1 278 0 discriminator 1
 1047 003e 002B     		cmp	r3, #0
 1048 0040 F1D0     		beq	.L53
 1049              		.loc 1 279 0
 1050 0042 0A48     		ldr	r0, .L57+16
 1051 0044 FFF7FEFF 		bl	test_print
 1052              	.LVL125:
 1053              		.loc 1 280 0
 1054 0048 2046     		mov	r0, r4
 1055 004a FFF7FEFF 		bl	test_printn
 1056              	.LVL126:
 1057              		.loc 1 281 0
 1058 004e 0848     		ldr	r0, .L57+20
 1059              		.loc 1 282 0
 1060 0050 02B0     		add	sp, sp, #8
 1061              		.cfi_def_cfa_offset 24
 1062              		@ sp needed
 1063 0052 BDE8F041 		pop	{r4, r5, r6, r7, r8, lr}
 1064              		.cfi_restore 14
 1065              		.cfi_restore 8
 1066              		.cfi_restore 7
 1067              		.cfi_restore 6
 1068              		.cfi_restore 5
 1069              		.cfi_restore 4
 1070              		.cfi_def_cfa_offset 0
 1071              	.LVL127:
 1072              		.loc 1 281 0
 1073 0056 FFF7FEBF 		b	test_println
 1074              	.LVL128:
 1075              	.L58:
 1076 005a 00BF     		.align	2
 1077              	.L57:
 1078 005c 00000000 		.word	rlist
 1079 0060 00000000 		.word	wa
 1080 0064 00000000 		.word	test_timer_done
 1081 0068 00000000 		.word	thread2
 1082 006c A8000000 		.word	.LC11
 1083 0070 B8000000 		.word	.LC12
ARM GAS  /tmp/ccdZK4qd.s 			page 20


 1084              		.cfi_endproc
 1085              	.LFE15:
 1086              		.size	bmk5_execute, .-bmk5_execute
 1087              		.section	.text.bmk7_execute,"ax",%progbits
 1088              		.align	2
 1089              		.p2align 4,,15
 1090              		.thumb
 1091              		.thumb_func
 1092              		.type	bmk7_execute, %function
 1093              	bmk7_execute:
 1094              	.LFB19:
 1095              		.loc 1 354 0
 1096              		.cfi_startproc
 1097              		@ args = 0, pretend = 0, frame = 0
 1098              		@ frame_needed = 0, uses_anonymous_args = 0
 1099 0000 2DE9F041 		push	{r4, r5, r6, r7, r8, lr}
 1100              		.cfi_def_cfa_offset 24
 1101              		.cfi_offset 4, -24
 1102              		.cfi_offset 5, -20
 1103              		.cfi_offset 6, -16
 1104              		.cfi_offset 7, -12
 1105              		.cfi_offset 8, -8
 1106              		.cfi_offset 14, -4
 1107              		.loc 1 357 0
 1108 0004 DFF80081 		ldr	r8, .L64+32
 1109 0008 374F     		ldr	r7, .L64
 1110 000a D8F81830 		ldr	r3, [r8, #24]
 1111 000e 3868     		ldr	r0, [r7]
 1112 0010 9A68     		ldr	r2, [r3, #8]
 1113 0012 364B     		ldr	r3, .L64+4
 1114 0014 364E     		ldr	r6, .L64+8
 1115 0016 374D     		ldr	r5, .L64+12
 1116              		.loc 1 354 0
 1117 0018 82B0     		sub	sp, sp, #8
 1118              		.cfi_def_cfa_offset 32
 1119              		.loc 1 357 0
 1120 001a 0024     		movs	r4, #0
 1121 001c 0532     		adds	r2, r2, #5
 1122 001e 4FF4A871 		mov	r1, #336
 1123 0022 0094     		str	r4, [sp]
 1124 0024 FFF7FEFF 		bl	chThdCreateStatic
 1125              	.LVL129:
 1126              		.loc 1 358 0
 1127 0028 D8F81820 		ldr	r2, [r8, #24]
 1128 002c 7B68     		ldr	r3, [r7, #4]
 1129 002e 9268     		ldr	r2, [r2, #8]
 1130              		.loc 1 357 0
 1131 0030 3060     		str	r0, [r6]
 1132              		.loc 1 358 0
 1133 0032 0432     		adds	r2, r2, #4
 1134 0034 1846     		mov	r0, r3
 1135 0036 4FF4A871 		mov	r1, #336
 1136 003a 2C4B     		ldr	r3, .L64+4
 1137 003c 0094     		str	r4, [sp]
 1138 003e FFF7FEFF 		bl	chThdCreateStatic
 1139              	.LVL130:
 1140              		.loc 1 359 0
ARM GAS  /tmp/ccdZK4qd.s 			page 21


 1141 0042 D8F81820 		ldr	r2, [r8, #24]
 1142 0046 BB68     		ldr	r3, [r7, #8]
 1143 0048 9268     		ldr	r2, [r2, #8]
 1144              		.loc 1 358 0
 1145 004a 7060     		str	r0, [r6, #4]
 1146              		.loc 1 359 0
 1147 004c 0332     		adds	r2, r2, #3
 1148 004e 1846     		mov	r0, r3
 1149 0050 4FF4A871 		mov	r1, #336
 1150 0054 254B     		ldr	r3, .L64+4
 1151 0056 0094     		str	r4, [sp]
 1152 0058 FFF7FEFF 		bl	chThdCreateStatic
 1153              	.LVL131:
 1154              		.loc 1 360 0
 1155 005c D8F81820 		ldr	r2, [r8, #24]
 1156 0060 FB68     		ldr	r3, [r7, #12]
 1157 0062 9268     		ldr	r2, [r2, #8]
 1158              		.loc 1 359 0
 1159 0064 B060     		str	r0, [r6, #8]
 1160              		.loc 1 360 0
 1161 0066 0232     		adds	r2, r2, #2
 1162 0068 1846     		mov	r0, r3
 1163 006a 4FF4A871 		mov	r1, #336
 1164 006e 1F4B     		ldr	r3, .L64+4
 1165 0070 0094     		str	r4, [sp]
 1166 0072 FFF7FEFF 		bl	chThdCreateStatic
 1167              	.LVL132:
 1168              		.loc 1 361 0
 1169 0076 D8F81820 		ldr	r2, [r8, #24]
 1170 007a 3B69     		ldr	r3, [r7, #16]
 1171 007c 9268     		ldr	r2, [r2, #8]
 1172              		.loc 1 360 0
 1173 007e F060     		str	r0, [r6, #12]
 1174              		.loc 1 361 0
 1175 0080 0132     		adds	r2, r2, #1
 1176 0082 1846     		mov	r0, r3
 1177 0084 4FF4A871 		mov	r1, #336
 1178 0088 184B     		ldr	r3, .L64+4
 1179 008a 0094     		str	r4, [sp]
 1180 008c FFF7FEFF 		bl	chThdCreateStatic
 1181              	.LVL133:
 1182 0090 3061     		str	r0, [r6, #16]
 1183              	.LVL134:
 1184              		.loc 1 364 0
 1185 0092 FFF7FEFF 		bl	test_wait_tick
 1186              	.LVL135:
 1187              		.loc 1 365 0
 1188 0096 4FF47A70 		mov	r0, #1000
 1189 009a FFF7FEFF 		bl	test_start_timer
 1190              	.LVL136:
 1191              	.L60:
 1192              		.loc 1 367 0 discriminator 1
 1193 009e 1648     		ldr	r0, .L64+16
 1194 00a0 0021     		movs	r1, #0
 1195 00a2 FFF7FEFF 		bl	chSemReset
 1196              	.LVL137:
 1197              		.loc 1 372 0 discriminator 1
ARM GAS  /tmp/ccdZK4qd.s 			page 22


 1198 00a6 2B78     		ldrb	r3, [r5]	@ zero_extendqisi2
 1199              		.loc 1 368 0 discriminator 1
 1200 00a8 0134     		adds	r4, r4, #1
 1201              	.LVL138:
 1202              		.loc 1 372 0 discriminator 1
 1203 00aa 002B     		cmp	r3, #0
 1204 00ac F7D0     		beq	.L60
 1205              		.loc 1 373 0
 1206 00ae FFF7FEFF 		bl	test_terminate_threads
 1207              	.LVL139:
 1208              		.loc 1 374 0
 1209 00b2 0021     		movs	r1, #0
 1210 00b4 1048     		ldr	r0, .L64+16
 1211 00b6 FFF7FEFF 		bl	chSemReset
 1212              	.LVL140:
 1213              		.loc 1 375 0
 1214 00ba FFF7FEFF 		bl	test_wait_threads
 1215              	.LVL141:
 1216              		.loc 1 377 0
 1217 00be 0F48     		ldr	r0, .L64+20
 1218 00c0 FFF7FEFF 		bl	test_print
 1219              	.LVL142:
 1220              		.loc 1 378 0
 1221 00c4 2046     		mov	r0, r4
 1222 00c6 FFF7FEFF 		bl	test_printn
 1223              	.LVL143:
 1224              		.loc 1 379 0
 1225 00ca 0D48     		ldr	r0, .L64+24
 1226 00cc FFF7FEFF 		bl	test_print
 1227              	.LVL144:
 1228              		.loc 1 380 0
 1229 00d0 04EB4400 		add	r0, r4, r4, lsl #1
 1230 00d4 4000     		lsls	r0, r0, #1
 1231 00d6 FFF7FEFF 		bl	test_printn
 1232              	.LVL145:
 1233              		.loc 1 381 0
 1234 00da 0A48     		ldr	r0, .L64+28
 1235              		.loc 1 382 0
 1236 00dc 02B0     		add	sp, sp, #8
 1237              		.cfi_def_cfa_offset 24
 1238              		@ sp needed
 1239 00de BDE8F041 		pop	{r4, r5, r6, r7, r8, lr}
 1240              		.cfi_restore 14
 1241              		.cfi_restore 8
 1242              		.cfi_restore 7
 1243              		.cfi_restore 6
 1244              		.cfi_restore 5
 1245              		.cfi_restore 4
 1246              		.cfi_def_cfa_offset 0
 1247              	.LVL146:
 1248              		.loc 1 381 0
 1249 00e2 FFF7FEBF 		b	test_println
 1250              	.LVL147:
 1251              	.L65:
 1252 00e6 00BF     		.align	2
 1253              	.L64:
 1254 00e8 00000000 		.word	wa
ARM GAS  /tmp/ccdZK4qd.s 			page 23


 1255 00ec 00000000 		.word	thread3
 1256 00f0 00000000 		.word	threads
 1257 00f4 00000000 		.word	test_timer_done
 1258 00f8 00000000 		.word	.LANCHOR0
 1259 00fc A8000000 		.word	.LC11
 1260 0100 DC000000 		.word	.LC15
 1261 0104 D0000000 		.word	.LC14
 1262 0108 00000000 		.word	rlist
 1263              		.cfi_endproc
 1264              	.LFE19:
 1265              		.size	bmk7_execute, .-bmk7_execute
 1266              		.section	.text.thread3,"ax",%progbits
 1267              		.align	2
 1268              		.p2align 4,,15
 1269              		.thumb
 1270              		.thumb_func
 1271              		.type	thread3, %function
 1272              	thread3:
 1273              	.LFB17:
 1274              		.loc 1 341 0
 1275              		.cfi_startproc
 1276              		@ args = 0, pretend = 0, frame = 0
 1277              		@ frame_needed = 0, uses_anonymous_args = 0
 1278              	.LVL148:
 1279 0000 10B5     		push	{r4, lr}
 1280              		.cfi_def_cfa_offset 8
 1281              		.cfi_offset 4, -8
 1282              		.cfi_offset 14, -4
 1283              		.loc 1 344 0
 1284 0002 084C     		ldr	r4, .L74
 1285 0004 A369     		ldr	r3, [r4, #24]
 1286 0006 93F82130 		ldrb	r3, [r3, #33]	@ zero_extendqisi2
 1287 000a 5A07     		lsls	r2, r3, #29
 1288 000c 07D4     		bmi	.L72
 1289              	.LVL149:
 1290              	.L67:
 1291              		.loc 1 345 0
 1292 000e 0648     		ldr	r0, .L74+4
 1293 0010 FFF7FEFF 		bl	chSemWait
 1294              	.LVL150:
 1295              		.loc 1 344 0
 1296 0014 A369     		ldr	r3, [r4, #24]
 1297 0016 93F82130 		ldrb	r3, [r3, #33]	@ zero_extendqisi2
 1298 001a 5B07     		lsls	r3, r3, #29
 1299 001c F7D5     		bpl	.L67
 1300              	.L72:
 1301              		.loc 1 347 0
 1302 001e 0020     		movs	r0, #0
 1303 0020 10BD     		pop	{r4, pc}
 1304              	.L75:
 1305 0022 00BF     		.align	2
 1306              	.L74:
 1307 0024 00000000 		.word	rlist
 1308 0028 00000000 		.word	.LANCHOR0
 1309              		.cfi_endproc
 1310              	.LFE17:
 1311              		.size	thread3, .-thread3
ARM GAS  /tmp/ccdZK4qd.s 			page 24


 1312              		.section	.text.bmk7_setup,"ax",%progbits
 1313              		.align	2
 1314              		.p2align 4,,15
 1315              		.thumb
 1316              		.thumb_func
 1317              		.type	bmk7_setup, %function
 1318              	bmk7_setup:
 1319              	.LFB18:
 1320              		.loc 1 349 0
 1321              		.cfi_startproc
 1322              		@ args = 0, pretend = 0, frame = 0
 1323              		@ frame_needed = 0, uses_anonymous_args = 0
 1324              		@ link register save eliminated.
 1325              		.loc 1 351 0
 1326 0000 0148     		ldr	r0, .L77
 1327 0002 0021     		movs	r1, #0
 1328 0004 FFF7FEBF 		b	chSemInit
 1329              	.LVL151:
 1330              	.L78:
 1331              		.align	2
 1332              	.L77:
 1333 0008 00000000 		.word	.LANCHOR0
 1334              		.cfi_endproc
 1335              	.LFE18:
 1336              		.size	bmk7_setup, .-bmk7_setup
 1337              		.section	.text.bmk11_setup,"ax",%progbits
 1338              		.align	2
 1339              		.p2align 4,,15
 1340              		.thumb
 1341              		.thumb_func
 1342              		.type	bmk11_setup, %function
 1343              	bmk11_setup:
 1344              	.LFB25:
 1345              		.loc 1 545 0
 1346              		.cfi_startproc
 1347              		@ args = 0, pretend = 0, frame = 0
 1348              		@ frame_needed = 0, uses_anonymous_args = 0
 1349              		@ link register save eliminated.
 1350              		.loc 1 547 0
 1351 0000 0148     		ldr	r0, .L80
 1352 0002 0121     		movs	r1, #1
 1353 0004 FFF7FEBF 		b	chSemInit
 1354              	.LVL152:
 1355              	.L81:
 1356              		.align	2
 1357              	.L80:
 1358 0008 00000000 		.word	.LANCHOR0
 1359              		.cfi_endproc
 1360              	.LFE25:
 1361              		.size	bmk11_setup, .-bmk11_setup
 1362              		.section	.text.bmk8_execute,"ax",%progbits
 1363              		.align	2
 1364              		.p2align 4,,15
 1365              		.thumb
 1366              		.thumb_func
 1367              		.type	bmk8_execute, %function
 1368              	bmk8_execute:
ARM GAS  /tmp/ccdZK4qd.s 			page 25


 1369              	.LFB21:
 1370              		.loc 1 416 0
 1371              		.cfi_startproc
 1372              		@ args = 0, pretend = 0, frame = 8
 1373              		@ frame_needed = 0, uses_anonymous_args = 0
 1374 0000 2DE9F041 		push	{r4, r5, r6, r7, r8, lr}
 1375              		.cfi_def_cfa_offset 24
 1376              		.cfi_offset 4, -24
 1377              		.cfi_offset 5, -20
 1378              		.cfi_offset 6, -16
 1379              		.cfi_offset 7, -12
 1380              		.cfi_offset 8, -8
 1381              		.cfi_offset 14, -4
 1382 0004 84B0     		sub	sp, sp, #16
 1383              		.cfi_def_cfa_offset 40
 1384              		.loc 1 419 0
 1385 0006 04AC     		add	r4, sp, #16
 1386              		.loc 1 422 0
 1387 0008 DFF8CC80 		ldr	r8, .L84+20
 1388 000c 2D4F     		ldr	r7, .L84
 1389 000e 2E4E     		ldr	r6, .L84+4
 1390 0010 2E4D     		ldr	r5, .L84+8
 1391              		.loc 1 419 0
 1392 0012 0023     		movs	r3, #0
 1393 0014 44F8043D 		str	r3, [r4, #-4]!
 1394              		.loc 1 420 0
 1395 0018 FFF7FEFF 		bl	test_wait_tick
 1396              	.LVL153:
 1397              		.loc 1 422 0
 1398 001c D8F81830 		ldr	r3, [r8, #24]
 1399 0020 3868     		ldr	r0, [r7]
 1400 0022 9A68     		ldr	r2, [r3, #8]
 1401 0024 0094     		str	r4, [sp]
 1402 0026 3346     		mov	r3, r6
 1403 0028 013A     		subs	r2, r2, #1
 1404 002a 4FF4A871 		mov	r1, #336
 1405 002e FFF7FEFF 		bl	chThdCreateStatic
 1406              	.LVL154:
 1407              		.loc 1 423 0
 1408 0032 D8F81820 		ldr	r2, [r8, #24]
 1409 0036 7B68     		ldr	r3, [r7, #4]
 1410 0038 9268     		ldr	r2, [r2, #8]
 1411              		.loc 1 422 0
 1412 003a 2860     		str	r0, [r5]
 1413              		.loc 1 423 0
 1414 003c 013A     		subs	r2, r2, #1
 1415 003e 0094     		str	r4, [sp]
 1416 0040 1846     		mov	r0, r3
 1417 0042 4FF4A871 		mov	r1, #336
 1418 0046 3346     		mov	r3, r6
 1419 0048 FFF7FEFF 		bl	chThdCreateStatic
 1420              	.LVL155:
 1421              		.loc 1 424 0
 1422 004c D8F81820 		ldr	r2, [r8, #24]
 1423 0050 BB68     		ldr	r3, [r7, #8]
 1424 0052 9268     		ldr	r2, [r2, #8]
 1425              		.loc 1 423 0
ARM GAS  /tmp/ccdZK4qd.s 			page 26


 1426 0054 6860     		str	r0, [r5, #4]
 1427              		.loc 1 424 0
 1428 0056 013A     		subs	r2, r2, #1
 1429 0058 0094     		str	r4, [sp]
 1430 005a 1846     		mov	r0, r3
 1431 005c 4FF4A871 		mov	r1, #336
 1432 0060 3346     		mov	r3, r6
 1433 0062 FFF7FEFF 		bl	chThdCreateStatic
 1434              	.LVL156:
 1435              		.loc 1 425 0
 1436 0066 D8F81820 		ldr	r2, [r8, #24]
 1437 006a FB68     		ldr	r3, [r7, #12]
 1438 006c 9268     		ldr	r2, [r2, #8]
 1439              		.loc 1 424 0
 1440 006e A860     		str	r0, [r5, #8]
 1441              		.loc 1 425 0
 1442 0070 013A     		subs	r2, r2, #1
 1443 0072 0094     		str	r4, [sp]
 1444 0074 1846     		mov	r0, r3
 1445 0076 4FF4A871 		mov	r1, #336
 1446 007a 3346     		mov	r3, r6
 1447 007c FFF7FEFF 		bl	chThdCreateStatic
 1448              	.LVL157:
 1449              		.loc 1 426 0
 1450 0080 D8F81820 		ldr	r2, [r8, #24]
 1451 0084 3B69     		ldr	r3, [r7, #16]
 1452 0086 9268     		ldr	r2, [r2, #8]
 1453              		.loc 1 425 0
 1454 0088 E860     		str	r0, [r5, #12]
 1455              		.loc 1 426 0
 1456 008a 013A     		subs	r2, r2, #1
 1457 008c 4FF4A871 		mov	r1, #336
 1458 0090 0094     		str	r4, [sp]
 1459 0092 1846     		mov	r0, r3
 1460 0094 3346     		mov	r3, r6
 1461 0096 FFF7FEFF 		bl	chThdCreateStatic
 1462              	.LVL158:
 1463 009a 2861     		str	r0, [r5, #16]
 1464              		.loc 1 428 0
 1465 009c 4FF47A70 		mov	r0, #1000
 1466 00a0 FFF7FEFF 		bl	chThdSleep
 1467              	.LVL159:
 1468              		.loc 1 429 0
 1469 00a4 FFF7FEFF 		bl	test_terminate_threads
 1470              	.LVL160:
 1471              		.loc 1 430 0
 1472 00a8 FFF7FEFF 		bl	test_wait_threads
 1473              	.LVL161:
 1474              		.loc 1 432 0
 1475 00ac 0848     		ldr	r0, .L84+12
 1476 00ae FFF7FEFF 		bl	test_print
 1477              	.LVL162:
 1478              		.loc 1 433 0
 1479 00b2 0398     		ldr	r0, [sp, #12]
 1480 00b4 FFF7FEFF 		bl	test_printn
 1481              	.LVL163:
 1482              		.loc 1 434 0
ARM GAS  /tmp/ccdZK4qd.s 			page 27


 1483 00b8 0648     		ldr	r0, .L84+16
 1484 00ba FFF7FEFF 		bl	test_println
 1485              	.LVL164:
 1486              		.loc 1 435 0
 1487 00be 04B0     		add	sp, sp, #16
 1488              		.cfi_def_cfa_offset 24
 1489              		@ sp needed
 1490 00c0 BDE8F081 		pop	{r4, r5, r6, r7, r8, pc}
 1491              	.L85:
 1492              		.align	2
 1493              	.L84:
 1494 00c4 00000000 		.word	wa
 1495 00c8 00000000 		.word	thread8
 1496 00cc 00000000 		.word	threads
 1497 00d0 A8000000 		.word	.LC11
 1498 00d4 D0000000 		.word	.LC14
 1499 00d8 00000000 		.word	rlist
 1500              		.cfi_endproc
 1501              	.LFE21:
 1502              		.size	bmk8_execute, .-bmk8_execute
 1503              		.section	.text.thread8,"ax",%progbits
 1504              		.align	2
 1505              		.p2align 4,,15
 1506              		.thumb
 1507              		.thumb_func
 1508              		.type	thread8, %function
 1509              	thread8:
 1510              	.LFB20:
 1511              		.loc 1 401 0
 1512              		.cfi_startproc
 1513              		@ args = 0, pretend = 0, frame = 0
 1514              		@ frame_needed = 0, uses_anonymous_args = 0
 1515              	.LVL165:
 1516 0000 38B5     		push	{r3, r4, r5, lr}
 1517              		.cfi_def_cfa_offset 16
 1518              		.cfi_offset 3, -16
 1519              		.cfi_offset 4, -12
 1520              		.cfi_offset 5, -8
 1521              		.cfi_offset 14, -4
 1522 0002 0A4D     		ldr	r5, .L91
 1523              		.loc 1 401 0
 1524 0004 0446     		mov	r4, r0
 1525              	.LVL166:
 1526              	.L87:
 1527              		.loc 1 404 0 discriminator 1
 1528 0006 FFF7FEFF 		bl	chThdYield
 1529              	.LVL167:
 1530              		.loc 1 405 0 discriminator 1
 1531 000a FFF7FEFF 		bl	chThdYield
 1532              	.LVL168:
 1533              		.loc 1 406 0 discriminator 1
 1534 000e FFF7FEFF 		bl	chThdYield
 1535              	.LVL169:
 1536              		.loc 1 407 0 discriminator 1
 1537 0012 FFF7FEFF 		bl	chThdYield
 1538              	.LVL170:
 1539              		.loc 1 408 0 discriminator 1
ARM GAS  /tmp/ccdZK4qd.s 			page 28


 1540 0016 2368     		ldr	r3, [r4]
 1541              		.loc 1 412 0 discriminator 1
 1542 0018 AA69     		ldr	r2, [r5, #24]
 1543              		.loc 1 408 0 discriminator 1
 1544 001a 0433     		adds	r3, r3, #4
 1545 001c 2360     		str	r3, [r4]
 1546              		.loc 1 412 0 discriminator 1
 1547 001e 92F82130 		ldrb	r3, [r2, #33]	@ zero_extendqisi2
 1548 0022 5B07     		lsls	r3, r3, #29
 1549 0024 EFD5     		bpl	.L87
 1550              		.loc 1 414 0
 1551 0026 0020     		movs	r0, #0
 1552 0028 38BD     		pop	{r3, r4, r5, pc}
 1553              	.LVL171:
 1554              	.L92:
 1555 002a 00BF     		.align	2
 1556              	.L91:
 1557 002c 00000000 		.word	rlist
 1558              		.cfi_endproc
 1559              	.LFE20:
 1560              		.size	thread8, .-thread8
 1561              		.section	.text.bmk9_execute,"ax",%progbits
 1562              		.align	2
 1563              		.p2align 4,,15
 1564              		.thumb
 1565              		.thumb_func
 1566              		.type	bmk9_execute, %function
 1567              	bmk9_execute:
 1568              	.LFB22:
 1569              		.loc 1 455 0
 1570              		.cfi_startproc
 1571              		@ args = 0, pretend = 0, frame = 0
 1572              		@ frame_needed = 0, uses_anonymous_args = 0
 1573 0000 30B5     		push	{r4, r5, lr}
 1574              		.cfi_def_cfa_offset 12
 1575              		.cfi_offset 4, -12
 1576              		.cfi_offset 5, -8
 1577              		.cfi_offset 14, -4
 1578 0002 83B0     		sub	sp, sp, #12
 1579              		.cfi_def_cfa_offset 24
 1580              		.loc 1 460 0
 1581 0004 0024     		movs	r4, #0
 1582 0006 2346     		mov	r3, r4
 1583 0008 2548     		ldr	r0, .L98
 1584 000a 2649     		ldr	r1, .L98+4
 1585 000c 0094     		str	r4, [sp]
 1586 000e 1022     		movs	r2, #16
 1587 0010 FFF7FEFF 		bl	chIQInit
 1588              	.LVL172:
 1589              		.loc 1 462 0
 1590 0014 FFF7FEFF 		bl	test_wait_tick
 1591              	.LVL173:
 1592              		.loc 1 463 0
 1593 0018 4FF47A70 		mov	r0, #1000
 1594 001c 224D     		ldr	r5, .L98+8
 1595 001e FFF7FEFF 		bl	test_start_timer
 1596              	.LVL174:
ARM GAS  /tmp/ccdZK4qd.s 			page 29


 1597              	.L94:
 1598              	.LBB9:
 1599              		.loc 1 465 0 discriminator 1
 1600 0022 2023     		movs	r3, #32
 1601              	@ 465 "../../ChibiOS_2.6.5/test/testbmk.c" 1
 1602 0024 83F31188 		msr     BASEPRI, r3
 1603              	@ 0 "" 2
 1604              		.thumb
 1605              	.LBE9:
 1606 0028 FFF7FEFF 		bl	dbg_check_lock
 1607              	.LVL175:
 1608              		.loc 1 466 0 discriminator 1
 1609 002c 0021     		movs	r1, #0
 1610 002e 1C48     		ldr	r0, .L98
 1611 0030 FFF7FEFF 		bl	chIQPutI
 1612              	.LVL176:
 1613              		.loc 1 467 0 discriminator 1
 1614 0034 0121     		movs	r1, #1
 1615 0036 1A48     		ldr	r0, .L98
 1616 0038 FFF7FEFF 		bl	chIQPutI
 1617              	.LVL177:
 1618              		.loc 1 468 0 discriminator 1
 1619 003c 0221     		movs	r1, #2
 1620 003e 1848     		ldr	r0, .L98
 1621 0040 FFF7FEFF 		bl	chIQPutI
 1622              	.LVL178:
 1623              		.loc 1 469 0 discriminator 1
 1624 0044 0321     		movs	r1, #3
 1625 0046 1648     		ldr	r0, .L98
 1626 0048 FFF7FEFF 		bl	chIQPutI
 1627              	.LVL179:
 1628              		.loc 1 470 0 discriminator 1
 1629 004c FFF7FEFF 		bl	dbg_check_unlock
 1630              	.LVL180:
 1631              	.LBB10:
 1632 0050 0023     		movs	r3, #0
 1633              	@ 470 "../../ChibiOS_2.6.5/test/testbmk.c" 1
 1634 0052 83F31188 		msr     BASEPRI, r3
 1635              	@ 0 "" 2
 1636              		.thumb
 1637              	.LBE10:
 1638              		.loc 1 471 0 discriminator 1
 1639 0056 4FF0FF31 		mov	r1, #-1
 1640 005a 1148     		ldr	r0, .L98
 1641 005c FFF7FEFF 		bl	chIQGetTimeout
 1642              	.LVL181:
 1643              		.loc 1 472 0 discriminator 1
 1644 0060 4FF0FF31 		mov	r1, #-1
 1645 0064 0E48     		ldr	r0, .L98
 1646 0066 FFF7FEFF 		bl	chIQGetTimeout
 1647              	.LVL182:
 1648              		.loc 1 473 0 discriminator 1
 1649 006a 4FF0FF31 		mov	r1, #-1
 1650 006e 0C48     		ldr	r0, .L98
 1651 0070 FFF7FEFF 		bl	chIQGetTimeout
 1652              	.LVL183:
 1653              		.loc 1 474 0 discriminator 1
ARM GAS  /tmp/ccdZK4qd.s 			page 30


 1654 0074 0A48     		ldr	r0, .L98
 1655 0076 4FF0FF31 		mov	r1, #-1
 1656 007a FFF7FEFF 		bl	chIQGetTimeout
 1657              	.LVL184:
 1658              		.loc 1 479 0 discriminator 1
 1659 007e 2B78     		ldrb	r3, [r5]	@ zero_extendqisi2
 1660              		.loc 1 475 0 discriminator 1
 1661 0080 0134     		adds	r4, r4, #1
 1662              	.LVL185:
 1663              		.loc 1 479 0 discriminator 1
 1664 0082 002B     		cmp	r3, #0
 1665 0084 CDD0     		beq	.L94
 1666              		.loc 1 480 0
 1667 0086 0948     		ldr	r0, .L98+12
 1668 0088 FFF7FEFF 		bl	test_print
 1669              	.LVL186:
 1670              		.loc 1 481 0
 1671 008c A000     		lsls	r0, r4, #2
 1672 008e FFF7FEFF 		bl	test_printn
 1673              	.LVL187:
 1674              		.loc 1 482 0
 1675 0092 0748     		ldr	r0, .L98+16
 1676              		.loc 1 483 0
 1677 0094 03B0     		add	sp, sp, #12
 1678              		.cfi_def_cfa_offset 12
 1679              		@ sp needed
 1680 0096 BDE83040 		pop	{r4, r5, lr}
 1681              		.cfi_restore 14
 1682              		.cfi_restore 5
 1683              		.cfi_restore 4
 1684              		.cfi_def_cfa_offset 0
 1685              	.LVL188:
 1686              		.loc 1 482 0
 1687 009a FFF7FEBF 		b	test_println
 1688              	.LVL189:
 1689              	.L99:
 1690 009e 00BF     		.align	2
 1691              	.L98:
 1692 00a0 00000000 		.word	.LANCHOR1
 1693 00a4 00000000 		.word	.LANCHOR2
 1694 00a8 00000000 		.word	test_timer_done
 1695 00ac A8000000 		.word	.LC11
 1696 00b0 F0000000 		.word	.LC16
 1697              		.cfi_endproc
 1698              	.LFE22:
 1699              		.size	bmk9_execute, .-bmk9_execute
 1700              		.section	.text.bmk10_execute,"ax",%progbits
 1701              		.align	2
 1702              		.p2align 4,,15
 1703              		.thumb
 1704              		.thumb_func
 1705              		.type	bmk10_execute, %function
 1706              	bmk10_execute:
 1707              	.LFB24:
 1708              		.loc 1 504 0
 1709              		.cfi_startproc
 1710              		@ args = 0, pretend = 0, frame = 0
ARM GAS  /tmp/ccdZK4qd.s 			page 31


 1711              		@ frame_needed = 0, uses_anonymous_args = 0
 1712              	.LVL190:
 1713 0000 38B5     		push	{r3, r4, r5, lr}
 1714              		.cfi_def_cfa_offset 16
 1715              		.cfi_offset 3, -16
 1716              		.cfi_offset 4, -12
 1717              		.cfi_offset 5, -8
 1718              		.cfi_offset 14, -4
 1719              		.loc 1 508 0
 1720 0002 FFF7FEFF 		bl	test_wait_tick
 1721              	.LVL191:
 1722              		.loc 1 509 0
 1723 0006 4FF47A70 		mov	r0, #1000
 1724 000a FFF7FEFF 		bl	test_start_timer
 1725              	.LVL192:
 1726 000e 174D     		ldr	r5, .L105
 1727              		.loc 1 506 0
 1728 0010 0024     		movs	r4, #0
 1729              	.LVL193:
 1730              	.L101:
 1731              	.LBB11:
 1732              		.loc 1 511 0 discriminator 1
 1733 0012 2023     		movs	r3, #32
 1734              	@ 511 "../../ChibiOS_2.6.5/test/testbmk.c" 1
 1735 0014 83F31188 		msr     BASEPRI, r3
 1736              	@ 0 "" 2
 1737              		.thumb
 1738              	.LBE11:
 1739 0018 FFF7FEFF 		bl	dbg_check_lock
 1740              	.LVL194:
 1741              		.loc 1 512 0 discriminator 1
 1742 001c 1448     		ldr	r0, .L105+4
 1743 001e 154A     		ldr	r2, .L105+8
 1744 0020 0121     		movs	r1, #1
 1745 0022 0023     		movs	r3, #0
 1746 0024 FFF7FEFF 		bl	chVTSetI
 1747              	.LVL195:
 1748              		.loc 1 513 0 discriminator 1
 1749 0028 124A     		ldr	r2, .L105+8
 1750 002a 1348     		ldr	r0, .L105+12
 1751 002c 42F21071 		movw	r1, #10000
 1752 0030 0023     		movs	r3, #0
 1753 0032 FFF7FEFF 		bl	chVTSetI
 1754              	.LVL196:
 1755              		.loc 1 514 0 discriminator 1
 1756 0036 0E48     		ldr	r0, .L105+4
 1757 0038 FFF7FEFF 		bl	chVTResetI
 1758              	.LVL197:
 1759              		.loc 1 515 0 discriminator 1
 1760 003c 0E48     		ldr	r0, .L105+12
 1761 003e FFF7FEFF 		bl	chVTResetI
 1762              	.LVL198:
 1763              		.loc 1 516 0 discriminator 1
 1764 0042 FFF7FEFF 		bl	dbg_check_unlock
 1765              	.LVL199:
 1766              	.LBB12:
 1767 0046 0023     		movs	r3, #0
ARM GAS  /tmp/ccdZK4qd.s 			page 32


 1768              	@ 516 "../../ChibiOS_2.6.5/test/testbmk.c" 1
 1769 0048 83F31188 		msr     BASEPRI, r3
 1770              	@ 0 "" 2
 1771              		.thumb
 1772              	.LBE12:
 1773              		.loc 1 521 0 discriminator 1
 1774 004c 2B78     		ldrb	r3, [r5]	@ zero_extendqisi2
 1775              		.loc 1 517 0 discriminator 1
 1776 004e 0134     		adds	r4, r4, #1
 1777              	.LVL200:
 1778              		.loc 1 521 0 discriminator 1
 1779 0050 002B     		cmp	r3, #0
 1780 0052 DED0     		beq	.L101
 1781              		.loc 1 522 0
 1782 0054 0948     		ldr	r0, .L105+16
 1783 0056 FFF7FEFF 		bl	test_print
 1784              	.LVL201:
 1785              		.loc 1 523 0
 1786 005a 6000     		lsls	r0, r4, #1
 1787 005c FFF7FEFF 		bl	test_printn
 1788              	.LVL202:
 1789              		.loc 1 524 0
 1790 0060 0748     		ldr	r0, .L105+20
 1791              		.loc 1 525 0
 1792 0062 BDE83840 		pop	{r3, r4, r5, lr}
 1793              		.cfi_restore 14
 1794              		.cfi_restore 5
 1795              		.cfi_restore 4
 1796              		.cfi_restore 3
 1797              		.cfi_def_cfa_offset 0
 1798              	.LVL203:
 1799              		.loc 1 524 0
 1800 0066 FFF7FEBF 		b	test_println
 1801              	.LVL204:
 1802              	.L106:
 1803 006a 00BF     		.align	2
 1804              	.L105:
 1805 006c 00000000 		.word	test_timer_done
 1806 0070 00000000 		.word	.LANCHOR3
 1807 0074 00000000 		.word	tmo
 1808 0078 00000000 		.word	.LANCHOR4
 1809 007c A8000000 		.word	.LC11
 1810 0080 FC000000 		.word	.LC17
 1811              		.cfi_endproc
 1812              	.LFE24:
 1813              		.size	bmk10_execute, .-bmk10_execute
 1814              		.section	.text.bmk11_execute,"ax",%progbits
 1815              		.align	2
 1816              		.p2align 4,,15
 1817              		.thumb
 1818              		.thumb_func
 1819              		.type	bmk11_execute, %function
 1820              	bmk11_execute:
 1821              	.LFB26:
 1822              		.loc 1 550 0
 1823              		.cfi_startproc
 1824              		@ args = 0, pretend = 0, frame = 0
ARM GAS  /tmp/ccdZK4qd.s 			page 33


 1825              		@ frame_needed = 0, uses_anonymous_args = 0
 1826              	.LVL205:
 1827 0000 38B5     		push	{r3, r4, r5, lr}
 1828              		.cfi_def_cfa_offset 16
 1829              		.cfi_offset 3, -16
 1830              		.cfi_offset 4, -12
 1831              		.cfi_offset 5, -8
 1832              		.cfi_offset 14, -4
 1833              		.loc 1 553 0
 1834 0002 FFF7FEFF 		bl	test_wait_tick
 1835              	.LVL206:
 1836              		.loc 1 554 0
 1837 0006 4FF47A70 		mov	r0, #1000
 1838 000a FFF7FEFF 		bl	test_start_timer
 1839              	.LVL207:
 1840 000e 144D     		ldr	r5, .L112
 1841              		.loc 1 551 0
 1842 0010 0024     		movs	r4, #0
 1843              	.LVL208:
 1844              	.L108:
 1845              		.loc 1 556 0 discriminator 1
 1846 0012 1448     		ldr	r0, .L112+4
 1847 0014 FFF7FEFF 		bl	chSemWait
 1848              	.LVL209:
 1849              		.loc 1 557 0 discriminator 1
 1850 0018 1248     		ldr	r0, .L112+4
 1851 001a FFF7FEFF 		bl	chSemSignal
 1852              	.LVL210:
 1853              		.loc 1 558 0 discriminator 1
 1854 001e 1148     		ldr	r0, .L112+4
 1855 0020 FFF7FEFF 		bl	chSemWait
 1856              	.LVL211:
 1857              		.loc 1 559 0 discriminator 1
 1858 0024 0F48     		ldr	r0, .L112+4
 1859 0026 FFF7FEFF 		bl	chSemSignal
 1860              	.LVL212:
 1861              		.loc 1 560 0 discriminator 1
 1862 002a 0E48     		ldr	r0, .L112+4
 1863 002c FFF7FEFF 		bl	chSemWait
 1864              	.LVL213:
 1865              		.loc 1 561 0 discriminator 1
 1866 0030 0C48     		ldr	r0, .L112+4
 1867 0032 FFF7FEFF 		bl	chSemSignal
 1868              	.LVL214:
 1869              		.loc 1 562 0 discriminator 1
 1870 0036 0B48     		ldr	r0, .L112+4
 1871 0038 FFF7FEFF 		bl	chSemWait
 1872              	.LVL215:
 1873              		.loc 1 563 0 discriminator 1
 1874 003c 0948     		ldr	r0, .L112+4
 1875 003e FFF7FEFF 		bl	chSemSignal
 1876              	.LVL216:
 1877              		.loc 1 568 0 discriminator 1
 1878 0042 2B78     		ldrb	r3, [r5]	@ zero_extendqisi2
 1879              		.loc 1 564 0 discriminator 1
 1880 0044 0134     		adds	r4, r4, #1
 1881              	.LVL217:
ARM GAS  /tmp/ccdZK4qd.s 			page 34


 1882              		.loc 1 568 0 discriminator 1
 1883 0046 002B     		cmp	r3, #0
 1884 0048 E3D0     		beq	.L108
 1885              		.loc 1 569 0
 1886 004a 0748     		ldr	r0, .L112+8
 1887 004c FFF7FEFF 		bl	test_print
 1888              	.LVL218:
 1889              		.loc 1 570 0
 1890 0050 A000     		lsls	r0, r4, #2
 1891 0052 FFF7FEFF 		bl	test_printn
 1892              	.LVL219:
 1893              		.loc 1 571 0
 1894 0056 0548     		ldr	r0, .L112+12
 1895              		.loc 1 572 0
 1896 0058 BDE83840 		pop	{r3, r4, r5, lr}
 1897              		.cfi_restore 14
 1898              		.cfi_restore 5
 1899              		.cfi_restore 4
 1900              		.cfi_restore 3
 1901              		.cfi_def_cfa_offset 0
 1902              	.LVL220:
 1903              		.loc 1 571 0
 1904 005c FFF7FEBF 		b	test_println
 1905              	.LVL221:
 1906              	.L113:
 1907              		.align	2
 1908              	.L112:
 1909 0060 00000000 		.word	test_timer_done
 1910 0064 00000000 		.word	.LANCHOR0
 1911 0068 A8000000 		.word	.LC11
 1912 006c 08010000 		.word	.LC18
 1913              		.cfi_endproc
 1914              	.LFE26:
 1915              		.size	bmk11_execute, .-bmk11_execute
 1916              		.section	.text.bmk12_execute,"ax",%progbits
 1917              		.align	2
 1918              		.p2align 4,,15
 1919              		.thumb
 1920              		.thumb_func
 1921              		.type	bmk12_execute, %function
 1922              	bmk12_execute:
 1923              	.LFB28:
 1924              		.loc 1 598 0
 1925              		.cfi_startproc
 1926              		@ args = 0, pretend = 0, frame = 0
 1927              		@ frame_needed = 0, uses_anonymous_args = 0
 1928              	.LVL222:
 1929 0000 38B5     		push	{r3, r4, r5, lr}
 1930              		.cfi_def_cfa_offset 16
 1931              		.cfi_offset 3, -16
 1932              		.cfi_offset 4, -12
 1933              		.cfi_offset 5, -8
 1934              		.cfi_offset 14, -4
 1935              		.loc 1 601 0
 1936 0002 FFF7FEFF 		bl	test_wait_tick
 1937              	.LVL223:
 1938              		.loc 1 602 0
ARM GAS  /tmp/ccdZK4qd.s 			page 35


 1939 0006 4FF47A70 		mov	r0, #1000
 1940 000a FFF7FEFF 		bl	test_start_timer
 1941              	.LVL224:
 1942 000e 124D     		ldr	r5, .L119
 1943              		.loc 1 599 0
 1944 0010 0024     		movs	r4, #0
 1945              	.LVL225:
 1946              	.L115:
 1947              		.loc 1 604 0 discriminator 1
 1948 0012 1248     		ldr	r0, .L119+4
 1949 0014 FFF7FEFF 		bl	chMtxLock
 1950              	.LVL226:
 1951              		.loc 1 605 0 discriminator 1
 1952 0018 FFF7FEFF 		bl	chMtxUnlock
 1953              	.LVL227:
 1954              		.loc 1 606 0 discriminator 1
 1955 001c 0F48     		ldr	r0, .L119+4
 1956 001e FFF7FEFF 		bl	chMtxLock
 1957              	.LVL228:
 1958              		.loc 1 607 0 discriminator 1
 1959 0022 FFF7FEFF 		bl	chMtxUnlock
 1960              	.LVL229:
 1961              		.loc 1 608 0 discriminator 1
 1962 0026 0D48     		ldr	r0, .L119+4
 1963 0028 FFF7FEFF 		bl	chMtxLock
 1964              	.LVL230:
 1965              		.loc 1 609 0 discriminator 1
 1966 002c FFF7FEFF 		bl	chMtxUnlock
 1967              	.LVL231:
 1968              		.loc 1 610 0 discriminator 1
 1969 0030 0A48     		ldr	r0, .L119+4
 1970 0032 FFF7FEFF 		bl	chMtxLock
 1971              	.LVL232:
 1972              		.loc 1 611 0 discriminator 1
 1973 0036 FFF7FEFF 		bl	chMtxUnlock
 1974              	.LVL233:
 1975              		.loc 1 616 0 discriminator 1
 1976 003a 2B78     		ldrb	r3, [r5]	@ zero_extendqisi2
 1977              		.loc 1 612 0 discriminator 1
 1978 003c 0134     		adds	r4, r4, #1
 1979              	.LVL234:
 1980              		.loc 1 616 0 discriminator 1
 1981 003e 002B     		cmp	r3, #0
 1982 0040 E7D0     		beq	.L115
 1983              		.loc 1 617 0
 1984 0042 0748     		ldr	r0, .L119+8
 1985 0044 FFF7FEFF 		bl	test_print
 1986              	.LVL235:
 1987              		.loc 1 618 0
 1988 0048 A000     		lsls	r0, r4, #2
 1989 004a FFF7FEFF 		bl	test_printn
 1990              	.LVL236:
 1991              		.loc 1 619 0
 1992 004e 0548     		ldr	r0, .L119+12
 1993              		.loc 1 620 0
 1994 0050 BDE83840 		pop	{r3, r4, r5, lr}
 1995              		.cfi_restore 14
ARM GAS  /tmp/ccdZK4qd.s 			page 36


 1996              		.cfi_restore 5
 1997              		.cfi_restore 4
 1998              		.cfi_restore 3
 1999              		.cfi_def_cfa_offset 0
 2000              	.LVL237:
 2001              		.loc 1 619 0
 2002 0054 FFF7FEBF 		b	test_println
 2003              	.LVL238:
 2004              	.L120:
 2005              		.align	2
 2006              	.L119:
 2007 0058 00000000 		.word	test_timer_done
 2008 005c 00000000 		.word	.LANCHOR5
 2009 0060 A8000000 		.word	.LC11
 2010 0064 18010000 		.word	.LC19
 2011              		.cfi_endproc
 2012              	.LFE28:
 2013              		.size	bmk12_execute, .-bmk12_execute
 2014              		.section	.text.bmk12_setup,"ax",%progbits
 2015              		.align	2
 2016              		.p2align 4,,15
 2017              		.thumb
 2018              		.thumb_func
 2019              		.type	bmk12_setup, %function
 2020              	bmk12_setup:
 2021              	.LFB27:
 2022              		.loc 1 593 0
 2023              		.cfi_startproc
 2024              		@ args = 0, pretend = 0, frame = 0
 2025              		@ frame_needed = 0, uses_anonymous_args = 0
 2026              		@ link register save eliminated.
 2027              		.loc 1 595 0
 2028 0000 0148     		ldr	r0, .L122
 2029 0002 FFF7FEBF 		b	chMtxInit
 2030              	.LVL239:
 2031              	.L123:
 2032 0006 00BF     		.align	2
 2033              	.L122:
 2034 0008 00000000 		.word	.LANCHOR5
 2035              		.cfi_endproc
 2036              	.LFE27:
 2037              		.size	bmk12_setup, .-bmk12_setup
 2038              		.global	patternbmk
 2039              		.global	testbmk13
 2040              		.global	testbmk12
 2041              		.global	testbmk11
 2042              		.global	testbmk10
 2043              		.global	testbmk9
 2044              		.global	testbmk8
 2045              		.global	testbmk7
 2046              		.global	testbmk6
 2047              		.global	testbmk5
 2048              		.global	testbmk4
 2049              		.global	testbmk3
 2050              		.global	testbmk2
 2051              		.global	testbmk1
 2052              		.section	.rodata.testbmk8,"a",%progbits
ARM GAS  /tmp/ccdZK4qd.s 			page 37


 2053              		.align	2
 2054              		.type	testbmk8, %object
 2055              		.size	testbmk8, 16
 2056              	testbmk8:
 2057 0000 D0010000 		.word	.LC25
 2058 0004 00000000 		.word	0
 2059 0008 00000000 		.word	0
 2060 000c 00000000 		.word	bmk8_execute
 2061              		.section	.rodata.patternbmk,"a",%progbits
 2062              		.align	2
 2063              		.type	patternbmk, %object
 2064              		.size	patternbmk, 56
 2065              	patternbmk:
 2066 0000 00000000 		.word	testbmk1
 2067 0004 00000000 		.word	testbmk2
 2068 0008 00000000 		.word	testbmk3
 2069 000c 00000000 		.word	testbmk4
 2070 0010 00000000 		.word	testbmk5
 2071 0014 00000000 		.word	testbmk6
 2072 0018 00000000 		.word	testbmk7
 2073 001c 00000000 		.word	testbmk8
 2074 0020 00000000 		.word	testbmk9
 2075 0024 00000000 		.word	testbmk10
 2076 0028 00000000 		.word	testbmk11
 2077 002c 00000000 		.word	testbmk12
 2078 0030 00000000 		.word	testbmk13
 2079 0034 00000000 		.word	0
 2080              		.section	.rodata.testbmk3,"a",%progbits
 2081              		.align	2
 2082              		.type	testbmk3, %object
 2083              		.size	testbmk3, 16
 2084              	testbmk3:
 2085 0000 80020000 		.word	.LC30
 2086 0004 00000000 		.word	0
 2087 0008 00000000 		.word	0
 2088 000c 00000000 		.word	bmk3_execute
 2089              		.section	.rodata.testbmk10,"a",%progbits
 2090              		.align	2
 2091              		.type	testbmk10, %object
 2092              		.size	testbmk10, 16
 2093              	testbmk10:
 2094 0000 88010000 		.word	.LC23
 2095 0004 00000000 		.word	0
 2096 0008 00000000 		.word	0
 2097 000c 00000000 		.word	bmk10_execute
 2098              		.section	.bss.vt2.5021,"aw",%nobits
 2099              		.align	2
 2100              		.set	.LANCHOR4,. + 0
 2101              		.type	vt2.5021, %object
 2102              		.size	vt2.5021, 20
 2103              	vt2.5021:
 2104 0000 00000000 		.space	20
 2104      00000000 
 2104      00000000 
 2104      00000000 
 2104      00000000 
 2105              		.section	.rodata.testbmk4,"a",%progbits
ARM GAS  /tmp/ccdZK4qd.s 			page 38


 2106              		.align	2
 2107              		.type	testbmk4, %object
 2108              		.size	testbmk4, 16
 2109              	testbmk4:
 2110 0000 64020000 		.word	.LC29
 2111 0004 00000000 		.word	0
 2112 0008 00000000 		.word	0
 2113 000c 00000000 		.word	bmk4_execute
 2114              		.section	.bss.ib.5007,"aw",%nobits
 2115              		.align	2
 2116              		.set	.LANCHOR2,. + 0
 2117              		.type	ib.5007, %object
 2118              		.size	ib.5007, 16
 2119              	ib.5007:
 2120 0000 00000000 		.space	16
 2120      00000000 
 2120      00000000 
 2120      00000000 
 2121              		.section	.rodata.testbmk12,"a",%progbits
 2122              		.align	2
 2123              		.type	testbmk12, %object
 2124              		.size	testbmk12, 16
 2125              	testbmk12:
 2126 0000 44010000 		.word	.LC21
 2127 0004 00000000 		.word	bmk12_setup
 2128 0008 00000000 		.word	0
 2129 000c 00000000 		.word	bmk12_execute
 2130              		.section	.bss.vt1.5020,"aw",%nobits
 2131              		.align	2
 2132              		.set	.LANCHOR3,. + 0
 2133              		.type	vt1.5020, %object
 2134              		.size	vt1.5020, 20
 2135              	vt1.5020:
 2136 0000 00000000 		.space	20
 2136      00000000 
 2136      00000000 
 2136      00000000 
 2136      00000000 
 2137              		.section	.rodata.testbmk2,"a",%progbits
 2138              		.align	2
 2139              		.type	testbmk2, %object
 2140              		.size	testbmk2, 16
 2141              	testbmk2:
 2142 0000 98020000 		.word	.LC31
 2143 0004 00000000 		.word	0
 2144 0008 00000000 		.word	0
 2145 000c 00000000 		.word	bmk2_execute
 2146              		.section	.rodata.str1.4,"aMS",%progbits,1
 2147              		.align	2
 2148              	.LC0:
 2149 0000 2D2D2D20 		.ascii	"--- System: \000"
 2149      53797374 
 2149      656D3A20 
 2149      00
 2150 000d 000000   		.space	3
 2151              	.LC1:
 2152 0010 20627974 		.ascii	" bytes\000"
ARM GAS  /tmp/ccdZK4qd.s 			page 39


 2152      657300
 2153 0017 00       		.space	1
 2154              	.LC2:
 2155 0018 2D2D2D20 		.ascii	"--- Thread: \000"
 2155      54687265 
 2155      61643A20 
 2155      00
 2156 0025 000000   		.space	3
 2157              	.LC3:
 2158 0028 2D2D2D20 		.ascii	"--- Timer : \000"
 2158      54696D65 
 2158      72203A20 
 2158      00
 2159 0035 000000   		.space	3
 2160              	.LC4:
 2161 0038 2D2D2D20 		.ascii	"--- Semaph: \000"
 2161      53656D61 
 2161      70683A20 
 2161      00
 2162 0045 000000   		.space	3
 2163              	.LC5:
 2164 0048 2D2D2D20 		.ascii	"--- EventS: \000"
 2164      4576656E 
 2164      74533A20 
 2164      00
 2165 0055 000000   		.space	3
 2166              	.LC6:
 2167 0058 2D2D2D20 		.ascii	"--- EventL: \000"
 2167      4576656E 
 2167      744C3A20 
 2167      00
 2168 0065 000000   		.space	3
 2169              	.LC7:
 2170 0068 2D2D2D20 		.ascii	"--- Mutex : \000"
 2170      4D757465 
 2170      78203A20 
 2170      00
 2171 0075 000000   		.space	3
 2172              	.LC8:
 2173 0078 2D2D2D20 		.ascii	"--- CondV.: \000"
 2173      436F6E64 
 2173      562E3A20 
 2173      00
 2174 0085 000000   		.space	3
 2175              	.LC9:
 2176 0088 2D2D2D20 		.ascii	"--- Queue : \000"
 2176      51756575 
 2176      65203A20 
 2176      00
 2177 0095 000000   		.space	3
 2178              	.LC10:
 2179 0098 2D2D2D20 		.ascii	"--- MailB.: \000"
 2179      4D61696C 
 2179      422E3A20 
 2179      00
 2180 00a5 000000   		.space	3
 2181              	.LC11:
ARM GAS  /tmp/ccdZK4qd.s 			page 40


 2182 00a8 2D2D2D20 		.ascii	"--- Score : \000"
 2182      53636F72 
 2182      65203A20 
 2182      00
 2183 00b5 000000   		.space	3
 2184              	.LC12:
 2185 00b8 20746872 		.ascii	" threads/S\000"
 2185      65616473 
 2185      2F5300
 2186 00c3 00       		.space	1
 2187              	.LC13:
 2188 00c4 206D7367 		.ascii	" msgs/S, \000"
 2188      732F532C 
 2188      2000
 2189 00ce 0000     		.space	2
 2190              	.LC14:
 2191 00d0 20637478 		.ascii	" ctxswc/S\000"
 2191      7377632F 
 2191      5300
 2192 00da 0000     		.space	2
 2193              	.LC15:
 2194 00dc 20726573 		.ascii	" reschedules/S, \000"
 2194      63686564 
 2194      756C6573 
 2194      2F532C20 
 2194      00
 2195 00ed 000000   		.space	3
 2196              	.LC16:
 2197 00f0 20627974 		.ascii	" bytes/S\000"
 2197      65732F53 
 2197      00
 2198 00f9 000000   		.space	3
 2199              	.LC17:
 2200 00fc 2074696D 		.ascii	" timers/S\000"
 2200      6572732F 
 2200      5300
 2201 0106 0000     		.space	2
 2202              	.LC18:
 2203 0108 20776169 		.ascii	" wait+signal/S\000"
 2203      742B7369 
 2203      676E616C 
 2203      2F5300
 2204 0117 00       		.space	1
 2205              	.LC19:
 2206 0118 206C6F63 		.ascii	" lock+unlock/S\000"
 2206      6B2B756E 
 2206      6C6F636B 
 2206      2F5300
 2207 0127 00       		.space	1
 2208              	.LC20:
 2209 0128 42656E63 		.ascii	"Benchmark, RAM footprint\000"
 2209      686D6172 
 2209      6B2C2052 
 2209      414D2066 
 2209      6F6F7470 
 2210 0141 000000   		.space	3
 2211              	.LC21:
ARM GAS  /tmp/ccdZK4qd.s 			page 41


 2212 0144 42656E63 		.ascii	"Benchmark, mutexes lock/unlock\000"
 2212      686D6172 
 2212      6B2C206D 
 2212      75746578 
 2212      6573206C 
 2213 0163 00       		.space	1
 2214              	.LC22:
 2215 0164 42656E63 		.ascii	"Benchmark, semaphores wait/signal\000"
 2215      686D6172 
 2215      6B2C2073 
 2215      656D6170 
 2215      686F7265 
 2216 0186 0000     		.space	2
 2217              	.LC23:
 2218 0188 42656E63 		.ascii	"Benchmark, virtual timers set/reset\000"
 2218      686D6172 
 2218      6B2C2076 
 2218      69727475 
 2218      616C2074 
 2219              	.LC24:
 2220 01ac 42656E63 		.ascii	"Benchmark, I/O Queues throughput\000"
 2220      686D6172 
 2220      6B2C2049 
 2220      2F4F2051 
 2220      75657565 
 2221 01cd 000000   		.space	3
 2222              	.LC25:
 2223 01d0 42656E63 		.ascii	"Benchmark, round robin context switching\000"
 2223      686D6172 
 2223      6B2C2072 
 2223      6F756E64 
 2223      20726F62 
 2224 01f9 000000   		.space	3
 2225              	.LC26:
 2226 01fc 42656E63 		.ascii	"Benchmark, mass reschedule, 5 threads\000"
 2226      686D6172 
 2226      6B2C206D 
 2226      61737320 
 2226      72657363 
 2227 0222 0000     		.space	2
 2228              	.LC27:
 2229 0224 42656E63 		.ascii	"Benchmark, threads, create only\000"
 2229      686D6172 
 2229      6B2C2074 
 2229      68726561 
 2229      64732C20 
 2230              	.LC28:
 2231 0244 42656E63 		.ascii	"Benchmark, threads, full cycle\000"
 2231      686D6172 
 2231      6B2C2074 
 2231      68726561 
 2231      64732C20 
 2232 0263 00       		.space	1
 2233              	.LC29:
 2234 0264 42656E63 		.ascii	"Benchmark, context switch\000"
 2234      686D6172 
 2234      6B2C2063 
ARM GAS  /tmp/ccdZK4qd.s 			page 42


 2234      6F6E7465 
 2234      78742073 
 2235 027e 0000     		.space	2
 2236              	.LC30:
 2237 0280 42656E63 		.ascii	"Benchmark, messages #3\000"
 2237      686D6172 
 2237      6B2C206D 
 2237      65737361 
 2237      67657320 
 2238 0297 00       		.space	1
 2239              	.LC31:
 2240 0298 42656E63 		.ascii	"Benchmark, messages #2\000"
 2240      686D6172 
 2240      6B2C206D 
 2240      65737361 
 2240      67657320 
 2241 02af 00       		.space	1
 2242              	.LC32:
 2243 02b0 42656E63 		.ascii	"Benchmark, messages #1\000"
 2243      686D6172 
 2243      6B2C206D 
 2243      65737361 
 2243      67657320 
 2244              		.section	.rodata.testbmk9,"a",%progbits
 2245              		.align	2
 2246              		.type	testbmk9, %object
 2247              		.size	testbmk9, 16
 2248              	testbmk9:
 2249 0000 AC010000 		.word	.LC24
 2250 0004 00000000 		.word	0
 2251 0008 00000000 		.word	0
 2252 000c 00000000 		.word	bmk9_execute
 2253              		.section	.bss.sem1,"aw",%nobits
 2254              		.align	2
 2255              		.set	.LANCHOR0,. + 0
 2256              		.type	sem1, %object
 2257              		.size	sem1, 12
 2258              	sem1:
 2259 0000 00000000 		.space	12
 2259      00000000 
 2259      00000000 
 2260              		.section	.bss.mtx1,"aw",%nobits
 2261              		.align	2
 2262              		.set	.LANCHOR5,. + 0
 2263              		.type	mtx1, %object
 2264              		.size	mtx1, 16
 2265              	mtx1:
 2266 0000 00000000 		.space	16
 2266      00000000 
 2266      00000000 
 2266      00000000 
 2267              		.section	.rodata.testbmk1,"a",%progbits
 2268              		.align	2
 2269              		.type	testbmk1, %object
 2270              		.size	testbmk1, 16
 2271              	testbmk1:
 2272 0000 B0020000 		.word	.LC32
ARM GAS  /tmp/ccdZK4qd.s 			page 43


 2273 0004 00000000 		.word	0
 2274 0008 00000000 		.word	0
 2275 000c 00000000 		.word	bmk1_execute
 2276              		.section	.rodata.testbmk11,"a",%progbits
 2277              		.align	2
 2278              		.type	testbmk11, %object
 2279              		.size	testbmk11, 16
 2280              	testbmk11:
 2281 0000 64010000 		.word	.LC22
 2282 0004 00000000 		.word	bmk11_setup
 2283 0008 00000000 		.word	0
 2284 000c 00000000 		.word	bmk11_execute
 2285              		.section	.bss.iq.5008,"aw",%nobits
 2286              		.align	2
 2287              		.set	.LANCHOR1,. + 0
 2288              		.type	iq.5008, %object
 2289              		.size	iq.5008, 36
 2290              	iq.5008:
 2291 0000 00000000 		.space	36
 2291      00000000 
 2291      00000000 
 2291      00000000 
 2291      00000000 
 2292              		.section	.rodata.testbmk13,"a",%progbits
 2293              		.align	2
 2294              		.type	testbmk13, %object
 2295              		.size	testbmk13, 16
 2296              	testbmk13:
 2297 0000 28010000 		.word	.LC20
 2298 0004 00000000 		.word	0
 2299 0008 00000000 		.word	0
 2300 000c 00000000 		.word	bmk13_execute
 2301              		.section	.rodata.testbmk5,"a",%progbits
 2302              		.align	2
 2303              		.type	testbmk5, %object
 2304              		.size	testbmk5, 16
 2305              	testbmk5:
 2306 0000 44020000 		.word	.LC28
 2307 0004 00000000 		.word	0
 2308 0008 00000000 		.word	0
 2309 000c 00000000 		.word	bmk5_execute
 2310              		.section	.rodata.testbmk6,"a",%progbits
 2311              		.align	2
 2312              		.type	testbmk6, %object
 2313              		.size	testbmk6, 16
 2314              	testbmk6:
 2315 0000 24020000 		.word	.LC27
 2316 0004 00000000 		.word	0
 2317 0008 00000000 		.word	0
 2318 000c 00000000 		.word	bmk6_execute
 2319              		.section	.rodata.testbmk7,"a",%progbits
 2320              		.align	2
 2321              		.type	testbmk7, %object
 2322              		.size	testbmk7, 16
 2323              	testbmk7:
 2324 0000 FC010000 		.word	.LC26
 2325 0004 00000000 		.word	bmk7_setup
ARM GAS  /tmp/ccdZK4qd.s 			page 44


 2326 0008 00000000 		.word	0
 2327 000c 00000000 		.word	bmk7_execute
 2328              		.text
 2329              	.Letext0:
 2330              		.file 2 "/usr/lib/gcc/arm-none-eabi/4.9.3/include/stddef.h"
 2331              		.file 3 "/usr/include/newlib/machine/_default_types.h"
 2332              		.file 4 "/usr/include/newlib/sys/_stdint.h"
 2333              		.file 5 "../../ChibiOS_2.6.5/os/ports/GCC/ARMCMx/chtypes.h"
 2334              		.file 6 "../../ChibiOS_2.6.5/os/kernel/include/chlists.h"
 2335              		.file 7 "../../ChibiOS_2.6.5/os/kernel/include/chthreads.h"
 2336              		.file 8 "../../ChibiOS_2.6.5/os/ports/GCC/ARMCMx/chcore_v7m.h"
 2337              		.file 9 "../../ChibiOS_2.6.5/os/kernel/include/chvt.h"
 2338              		.file 10 "../../ChibiOS_2.6.5/os/kernel/include/chschd.h"
 2339              		.file 11 "../../ChibiOS_2.6.5/os/kernel/include/chsem.h"
 2340              		.file 12 "../../ChibiOS_2.6.5/os/kernel/include/chmtx.h"
 2341              		.file 13 "../../ChibiOS_2.6.5/os/kernel/include/chqueues.h"
 2342              		.file 14 "../../ChibiOS_2.6.5/test/test.h"
 2343              		.file 15 "../../ChibiOS_2.6.5/os/kernel/include/chmsg.h"
 2344              		.file 16 "../../ChibiOS_2.6.5/os/kernel/include/chdebug.h"