ARM GAS  /tmp/ccLSGJhs.s 			page 1


   1              		.syntax unified
   2              		.cpu cortex-m4
   3              		.fpu softvfp
   4              		.eabi_attribute 20, 1
   5              		.eabi_attribute 21, 1
   6              		.eabi_attribute 23, 3
   7              		.eabi_attribute 24, 1
   8              		.eabi_attribute 25, 1
   9              		.eabi_attribute 26, 1
  10              		.eabi_attribute 30, 2
  11              		.eabi_attribute 34, 1
  12              		.eabi_attribute 18, 4
  13              		.thumb
  14              		.file	"testsem.c"
  15              		.text
  16              	.Ltext0:
  17              		.cfi_sections	.debug_frame
  18              		.section	.text.sem1_execute,"ax",%progbits
  19              		.align	2
  20              		.p2align 4,,15
  21              		.thumb
  22              		.thumb_func
  23              		.type	sem1_execute, %function
  24              	sem1_execute:
  25              	.LFB9:
  26              		.file 1 "../../ChibiOS_2.6.5/test/testsem.c"
  27              		.loc 1 84 0
  28              		.cfi_startproc
  29              		@ args = 0, pretend = 0, frame = 0
  30              		@ frame_needed = 0, uses_anonymous_args = 0
  31 0000 2DE9F043 		push	{r4, r5, r6, r7, r8, r9, lr}
  32              		.cfi_def_cfa_offset 28
  33              		.cfi_offset 4, -28
  34              		.cfi_offset 5, -24
  35              		.cfi_offset 6, -20
  36              		.cfi_offset 7, -16
  37              		.cfi_offset 8, -12
  38              		.cfi_offset 9, -8
  39              		.cfi_offset 14, -4
  40              		.loc 1 86 0
  41 0004 464E     		ldr	r6, .L6
  42 0006 474F     		ldr	r7, .L6+4
  43 0008 B369     		ldr	r3, [r6, #24]
  44 000a D7F80080 		ldr	r8, [r7]
  45 000e 9A68     		ldr	r2, [r3, #8]
  46 0010 DFF83491 		ldr	r9, .L6+40
  47 0014 444B     		ldr	r3, .L6+8
  48 0016 454D     		ldr	r5, .L6+12
  49              		.loc 1 91 0
  50 0018 454C     		ldr	r4, .L6+16
  51              		.loc 1 84 0
  52 001a 83B0     		sub	sp, sp, #12
  53              		.cfi_def_cfa_offset 40
  54              		.loc 1 86 0
  55 001c 0532     		adds	r2, r2, #5
  56 001e 4FF4A871 		mov	r1, #336
  57 0022 CDF80090 		str	r9, [sp]
ARM GAS  /tmp/ccLSGJhs.s 			page 2


  58 0026 4046     		mov	r0, r8
  59 0028 FFF7FEFF 		bl	chThdCreateStatic
  60              	.LVL0:
  61              		.loc 1 87 0
  62 002c B369     		ldr	r3, [r6, #24]
  63 002e 7968     		ldr	r1, [r7, #4]
  64 0030 9A68     		ldr	r2, [r3, #8]
  65 0032 404B     		ldr	r3, .L6+20
  66              		.loc 1 86 0
  67 0034 2860     		str	r0, [r5]
  68              		.loc 1 87 0
  69 0036 0132     		adds	r2, r2, #1
  70 0038 0846     		mov	r0, r1
  71 003a 0093     		str	r3, [sp]
  72 003c 4FF4A871 		mov	r1, #336
  73 0040 394B     		ldr	r3, .L6+8
  74 0042 FFF7FEFF 		bl	chThdCreateStatic
  75              	.LVL1:
  76              		.loc 1 88 0
  77 0046 B369     		ldr	r3, [r6, #24]
  78 0048 B968     		ldr	r1, [r7, #8]
  79 004a 9A68     		ldr	r2, [r3, #8]
  80 004c 3A4B     		ldr	r3, .L6+24
  81              		.loc 1 87 0
  82 004e 6860     		str	r0, [r5, #4]
  83              		.loc 1 88 0
  84 0050 0332     		adds	r2, r2, #3
  85 0052 0846     		mov	r0, r1
  86 0054 0093     		str	r3, [sp]
  87 0056 4FF4A871 		mov	r1, #336
  88 005a 334B     		ldr	r3, .L6+8
  89 005c FFF7FEFF 		bl	chThdCreateStatic
  90              	.LVL2:
  91              		.loc 1 89 0
  92 0060 B369     		ldr	r3, [r6, #24]
  93 0062 F968     		ldr	r1, [r7, #12]
  94 0064 9A68     		ldr	r2, [r3, #8]
  95 0066 354B     		ldr	r3, .L6+28
  96              		.loc 1 88 0
  97 0068 A860     		str	r0, [r5, #8]
  98              		.loc 1 89 0
  99 006a 0432     		adds	r2, r2, #4
 100 006c 0846     		mov	r0, r1
 101 006e 0093     		str	r3, [sp]
 102 0070 4FF4A871 		mov	r1, #336
 103 0074 2C4B     		ldr	r3, .L6+8
 104 0076 FFF7FEFF 		bl	chThdCreateStatic
 105              	.LVL3:
 106              		.loc 1 90 0
 107 007a B369     		ldr	r3, [r6, #24]
 108 007c 3969     		ldr	r1, [r7, #16]
 109 007e 9A68     		ldr	r2, [r3, #8]
 110 0080 2F4B     		ldr	r3, .L6+32
 111              		.loc 1 89 0
 112 0082 E860     		str	r0, [r5, #12]
 113              		.loc 1 90 0
 114 0084 0232     		adds	r2, r2, #2
ARM GAS  /tmp/ccLSGJhs.s 			page 3


 115 0086 0846     		mov	r0, r1
 116 0088 0093     		str	r3, [sp]
 117 008a 4FF4A871 		mov	r1, #336
 118 008e 264B     		ldr	r3, .L6+8
 119 0090 FFF7FEFF 		bl	chThdCreateStatic
 120              	.LVL4:
 121 0094 2861     		str	r0, [r5, #16]
 122              		.loc 1 91 0
 123 0096 2046     		mov	r0, r4
 124 0098 FFF7FEFF 		bl	chSemSignal
 125              	.LVL5:
 126              		.loc 1 92 0
 127 009c 2046     		mov	r0, r4
 128 009e FFF7FEFF 		bl	chSemSignal
 129              	.LVL6:
 130              		.loc 1 93 0
 131 00a2 2046     		mov	r0, r4
 132 00a4 FFF7FEFF 		bl	chSemSignal
 133              	.LVL7:
 134              		.loc 1 94 0
 135 00a8 2046     		mov	r0, r4
 136 00aa FFF7FEFF 		bl	chSemSignal
 137              	.LVL8:
 138              		.loc 1 95 0
 139 00ae 2046     		mov	r0, r4
 140 00b0 FFF7FEFF 		bl	chSemSignal
 141              	.LVL9:
 142              		.loc 1 96 0
 143 00b4 FFF7FEFF 		bl	test_wait_threads
 144              	.LVL10:
 145              		.loc 1 100 0
 146 00b8 0120     		movs	r0, #1
 147 00ba 2249     		ldr	r1, .L6+36
 148 00bc FFF7FEFF 		bl	_test_assert_sequence
 149              	.LVL11:
 150 00c0 0746     		mov	r7, r0
 151 00c2 10B1     		cbz	r0, .L5
 152              		.loc 1 109 0
 153 00c4 03B0     		add	sp, sp, #12
 154              		.cfi_remember_state
 155              		.cfi_def_cfa_offset 28
 156              		@ sp needed
 157 00c6 BDE8F083 		pop	{r4, r5, r6, r7, r8, r9, pc}
 158              	.L5:
 159              		.cfi_restore_state
 160              		.loc 1 102 0
 161 00ca B269     		ldr	r2, [r6, #24]
 162 00cc 164B     		ldr	r3, .L6+8
 163 00ce 9268     		ldr	r2, [r2, #8]
 164 00d0 CDF80090 		str	r9, [sp]
 165 00d4 0532     		adds	r2, r2, #5
 166 00d6 4046     		mov	r0, r8
 167 00d8 4FF4A871 		mov	r1, #336
 168 00dc FFF7FEFF 		bl	chThdCreateStatic
 169              	.LVL12:
 170              	.LBB2:
 171              		.loc 1 103 0
ARM GAS  /tmp/ccLSGJhs.s 			page 4


 172 00e0 2023     		movs	r3, #32
 173              	.LBE2:
 174              		.loc 1 102 0
 175 00e2 2860     		str	r0, [r5]
 176              	.LBB3:
 177              		.loc 1 103 0
 178              	@ 103 "../../ChibiOS_2.6.5/test/testsem.c" 1
 179 00e4 83F31188 		msr     BASEPRI, r3
 180              	@ 0 "" 2
 181              		.thumb
 182              	.LBE3:
 183 00e8 FFF7FEFF 		bl	dbg_check_lock
 184              	.LVL13:
 185              		.loc 1 104 0
 186 00ec 2046     		mov	r0, r4
 187 00ee 0221     		movs	r1, #2
 188 00f0 FFF7FEFF 		bl	chSemAddCounterI
 189              	.LVL14:
 190              		.loc 1 105 0
 191 00f4 FFF7FEFF 		bl	chSchRescheduleS
 192              	.LVL15:
 193              		.loc 1 106 0
 194 00f8 FFF7FEFF 		bl	dbg_check_unlock
 195              	.LVL16:
 196              	.LBB4:
 197 00fc 3B46     		mov	r3, r7
 198              	@ 106 "../../ChibiOS_2.6.5/test/testsem.c" 1
 199 00fe 83F31188 		msr     BASEPRI, r3
 200              	@ 0 "" 2
 201              		.thumb
 202              	.LBE4:
 203              		.loc 1 107 0
 204 0102 FFF7FEFF 		bl	test_wait_threads
 205              	.LVL17:
 206              		.loc 1 108 0
 207 0106 A168     		ldr	r1, [r4, #8]
 208 0108 0220     		movs	r0, #2
 209 010a A1F10101 		sub	r1, #1
 210 010e B1FA81F1 		clz	r1, r1
 211 0112 4909     		lsrs	r1, r1, #5
 212              		.loc 1 109 0
 213 0114 03B0     		add	sp, sp, #12
 214              		.cfi_def_cfa_offset 28
 215              		@ sp needed
 216 0116 BDE8F043 		pop	{r4, r5, r6, r7, r8, r9, lr}
 217              		.cfi_restore 14
 218              		.cfi_restore 9
 219              		.cfi_restore 8
 220              		.cfi_restore 7
 221              		.cfi_restore 6
 222              		.cfi_restore 5
 223              		.cfi_restore 4
 224              		.cfi_def_cfa_offset 0
 225              		.loc 1 108 0
 226 011a FFF7FEBF 		b	_test_assert
 227              	.LVL18:
 228              	.L7:
ARM GAS  /tmp/ccLSGJhs.s 			page 5


 229 011e 00BF     		.align	2
 230              	.L6:
 231 0120 00000000 		.word	rlist
 232 0124 00000000 		.word	wa
 233 0128 00000000 		.word	thread1
 234 012c 00000000 		.word	threads
 235 0130 00000000 		.word	.LANCHOR0
 236 0134 04000000 		.word	.LC1
 237 0138 08000000 		.word	.LC2
 238 013c 0C000000 		.word	.LC3
 239 0140 10000000 		.word	.LC4
 240 0144 14000000 		.word	.LC5
 241 0148 00000000 		.word	.LC0
 242              		.cfi_endproc
 243              	.LFE9:
 244              		.size	sem1_execute, .-sem1_execute
 245              		.section	.text.thread3,"ax",%progbits
 246              		.align	2
 247              		.p2align 4,,15
 248              		.thumb
 249              		.thumb_func
 250              		.type	thread3, %function
 251              	thread3:
 252              	.LFB14:
 253              		.loc 1 210 0
 254              		.cfi_startproc
 255              		@ args = 0, pretend = 0, frame = 0
 256              		@ frame_needed = 0, uses_anonymous_args = 0
 257              	.LVL19:
 258 0000 10B5     		push	{r4, lr}
 259              		.cfi_def_cfa_offset 8
 260              		.cfi_offset 4, -8
 261              		.cfi_offset 14, -4
 262              		.loc 1 213 0
 263 0002 044C     		ldr	r4, .L10
 264 0004 2046     		mov	r0, r4
 265              	.LVL20:
 266 0006 FFF7FEFF 		bl	chSemWait
 267              	.LVL21:
 268              		.loc 1 214 0
 269 000a 2046     		mov	r0, r4
 270 000c FFF7FEFF 		bl	chSemSignal
 271              	.LVL22:
 272              		.loc 1 216 0
 273 0010 0020     		movs	r0, #0
 274 0012 10BD     		pop	{r4, pc}
 275              	.L11:
 276              		.align	2
 277              	.L10:
 278 0014 00000000 		.word	.LANCHOR0
 279              		.cfi_endproc
 280              	.LFE14:
 281              		.size	thread3, .-thread3
 282              		.section	.text.thread1,"ax",%progbits
 283              		.align	2
 284              		.p2align 4,,15
 285              		.thumb
ARM GAS  /tmp/ccLSGJhs.s 			page 6


 286              		.thumb_func
 287              		.type	thread1, %function
 288              	thread1:
 289              	.LFB8:
 290              		.loc 1 77 0
 291              		.cfi_startproc
 292              		@ args = 0, pretend = 0, frame = 0
 293              		@ frame_needed = 0, uses_anonymous_args = 0
 294              	.LVL23:
 295 0000 10B5     		push	{r4, lr}
 296              		.cfi_def_cfa_offset 8
 297              		.cfi_offset 4, -8
 298              		.cfi_offset 14, -4
 299              		.loc 1 77 0
 300 0002 0446     		mov	r4, r0
 301              		.loc 1 79 0
 302 0004 0348     		ldr	r0, .L14
 303              	.LVL24:
 304 0006 FFF7FEFF 		bl	chSemWait
 305              	.LVL25:
 306              		.loc 1 80 0
 307 000a 2078     		ldrb	r0, [r4]	@ zero_extendqisi2
 308 000c FFF7FEFF 		bl	test_emit_token
 309              	.LVL26:
 310              		.loc 1 82 0
 311 0010 0020     		movs	r0, #0
 312 0012 10BD     		pop	{r4, pc}
 313              	.LVL27:
 314              	.L15:
 315              		.align	2
 316              	.L14:
 317 0014 00000000 		.word	.LANCHOR0
 318              		.cfi_endproc
 319              	.LFE8:
 320              		.size	thread1, .-thread1
 321              		.section	.text.sem1_setup,"ax",%progbits
 322              		.align	2
 323              		.p2align 4,,15
 324              		.thumb
 325              		.thumb_func
 326              		.type	sem1_setup, %function
 327              	sem1_setup:
 328              	.LFB7:
 329              		.loc 1 72 0
 330              		.cfi_startproc
 331              		@ args = 0, pretend = 0, frame = 0
 332              		@ frame_needed = 0, uses_anonymous_args = 0
 333              		@ link register save eliminated.
 334              		.loc 1 74 0
 335 0000 0148     		ldr	r0, .L17
 336 0002 0021     		movs	r1, #0
 337 0004 FFF7FEBF 		b	chSemInit
 338              	.LVL28:
 339              	.L18:
 340              		.align	2
 341              	.L17:
 342 0008 00000000 		.word	.LANCHOR0
ARM GAS  /tmp/ccLSGJhs.s 			page 7


 343              		.cfi_endproc
 344              	.LFE7:
 345              		.size	sem1_setup, .-sem1_setup
 346              		.section	.text.sem2_setup,"ax",%progbits
 347              		.align	2
 348              		.p2align 4,,15
 349              		.thumb
 350              		.thumb_func
 351              		.type	sem2_setup, %function
 352              	sem2_setup:
 353              	.LFB10:
 354              		.loc 1 129 0
 355              		.cfi_startproc
 356              		@ args = 0, pretend = 0, frame = 0
 357              		@ frame_needed = 0, uses_anonymous_args = 0
 358              		@ link register save eliminated.
 359              		.loc 1 131 0
 360 0000 0148     		ldr	r0, .L20
 361 0002 0021     		movs	r1, #0
 362 0004 FFF7FEBF 		b	chSemInit
 363              	.LVL29:
 364              	.L21:
 365              		.align	2
 366              	.L20:
 367 0008 00000000 		.word	.LANCHOR0
 368              		.cfi_endproc
 369              	.LFE10:
 370              		.size	sem2_setup, .-sem2_setup
 371              		.section	.text.sem3_setup,"ax",%progbits
 372              		.align	2
 373              		.p2align 4,,15
 374              		.thumb
 375              		.thumb_func
 376              		.type	sem3_setup, %function
 377              	sem3_setup:
 378              	.LFB13:
 379              		.loc 1 205 0
 380              		.cfi_startproc
 381              		@ args = 0, pretend = 0, frame = 0
 382              		@ frame_needed = 0, uses_anonymous_args = 0
 383              		@ link register save eliminated.
 384              		.loc 1 207 0
 385 0000 0148     		ldr	r0, .L23
 386 0002 0021     		movs	r1, #0
 387 0004 FFF7FEBF 		b	chSemInit
 388              	.LVL30:
 389              	.L24:
 390              		.align	2
 391              	.L23:
 392 0008 00000000 		.word	.LANCHOR0
 393              		.cfi_endproc
 394              	.LFE13:
 395              		.size	sem3_setup, .-sem3_setup
 396              		.section	.text.thread2,"ax",%progbits
 397              		.align	2
 398              		.p2align 4,,15
 399              		.thumb
ARM GAS  /tmp/ccLSGJhs.s 			page 8


 400              		.thumb_func
 401              		.type	thread2, %function
 402              	thread2:
 403              	.LFB11:
 404              		.loc 1 134 0
 405              		.cfi_startproc
 406              		@ args = 0, pretend = 0, frame = 0
 407              		@ frame_needed = 0, uses_anonymous_args = 0
 408              	.LVL31:
 409 0000 08B5     		push	{r3, lr}
 410              		.cfi_def_cfa_offset 8
 411              		.cfi_offset 3, -8
 412              		.cfi_offset 14, -4
 413              		.loc 1 137 0
 414 0002 3220     		movs	r0, #50
 415              	.LVL32:
 416 0004 FFF7FEFF 		bl	chThdSleep
 417              	.LVL33:
 418              	.LBB5:
 419              		.loc 1 138 0
 420 0008 2023     		movs	r3, #32
 421              	@ 138 "../../ChibiOS_2.6.5/test/testsem.c" 1
 422 000a 83F31188 		msr     BASEPRI, r3
 423              	@ 0 "" 2
 424              		.thumb
 425              	.LBE5:
 426 000e FFF7FEFF 		bl	dbg_check_lock
 427              	.LVL34:
 428              		.loc 1 139 0
 429 0012 0648     		ldr	r0, .L27
 430 0014 FFF7FEFF 		bl	chSemSignalI
 431              	.LVL35:
 432              		.loc 1 140 0
 433 0018 FFF7FEFF 		bl	chSchRescheduleS
 434              	.LVL36:
 435              		.loc 1 141 0
 436 001c FFF7FEFF 		bl	dbg_check_unlock
 437              	.LVL37:
 438              	.LBB6:
 439 0020 0023     		movs	r3, #0
 440              	@ 141 "../../ChibiOS_2.6.5/test/testsem.c" 1
 441 0022 83F31188 		msr     BASEPRI, r3
 442              	@ 0 "" 2
 443              		.thumb
 444              	.LBE6:
 445              		.loc 1 143 0
 446 0026 1846     		mov	r0, r3
 447 0028 08BD     		pop	{r3, pc}
 448              	.L28:
 449 002a 00BF     		.align	2
 450              	.L27:
 451 002c 00000000 		.word	.LANCHOR0
 452              		.cfi_endproc
 453              	.LFE11:
 454              		.size	thread2, .-thread2
 455              		.section	.text.thread4,"ax",%progbits
 456              		.align	2
ARM GAS  /tmp/ccLSGJhs.s 			page 9


 457              		.p2align 4,,15
 458              		.thumb
 459              		.thumb_func
 460              		.type	thread4, %function
 461              	thread4:
 462              	.LFB16:
 463              		.loc 1 246 0
 464              		.cfi_startproc
 465              		@ args = 0, pretend = 0, frame = 0
 466              		@ frame_needed = 0, uses_anonymous_args = 0
 467              	.LVL38:
 468 0000 10B5     		push	{r4, lr}
 469              		.cfi_def_cfa_offset 8
 470              		.cfi_offset 4, -8
 471              		.cfi_offset 14, -4
 472              	.LBB7:
 473              		.loc 1 248 0
 474 0002 2023     		movs	r3, #32
 475              	.LBE7:
 476              		.loc 1 246 0
 477 0004 0446     		mov	r4, r0
 478              	.LBB8:
 479              		.loc 1 248 0
 480              	@ 248 "../../ChibiOS_2.6.5/test/testsem.c" 1
 481 0006 83F31188 		msr     BASEPRI, r3
 482              	@ 0 "" 2
 483              		.thumb
 484              	.LBE8:
 485 000a FFF7FEFF 		bl	dbg_check_lock
 486              	.LVL39:
 487 000e A368     		ldr	r3, [r4, #8]
 488 0010 002B     		cmp	r3, #0
 489 0012 08DD     		ble	.L32
 490              	.L30:
 491              		.loc 1 248 0 is_stmt 0 discriminator 3
 492 0014 FFF7FEFF 		bl	chSchRescheduleS
 493              	.LVL40:
 494 0018 FFF7FEFF 		bl	dbg_check_unlock
 495              	.LVL41:
 496              	.LBB9:
 497 001c 0023     		movs	r3, #0
 498              	@ 248 "../../ChibiOS_2.6.5/test/testsem.c" 1
 499 001e 83F31188 		msr     BASEPRI, r3
 500              	@ 0 "" 2
 501              		.thumb
 502              	.LBE9:
 503              		.loc 1 250 0 is_stmt 1 discriminator 3
 504 0022 1846     		mov	r0, r3
 505 0024 10BD     		pop	{r4, pc}
 506              	.LVL42:
 507              	.L32:
 508              		.loc 1 248 0 discriminator 1
 509 0026 2046     		mov	r0, r4
 510 0028 FFF7FEFF 		bl	chSemSignalI
 511              	.LVL43:
 512 002c F2E7     		b	.L30
 513              		.cfi_endproc
ARM GAS  /tmp/ccLSGJhs.s 			page 10


 514              	.LFE16:
 515              		.size	thread4, .-thread4
 516 002e 00BF     		.section	.text.sem4_execute,"ax",%progbits
 517              		.align	2
 518              		.p2align 4,,15
 519              		.thumb
 520              		.thumb_func
 521              		.type	sem4_execute, %function
 522              	sem4_execute:
 523              	.LFB17:
 524              		.loc 1 252 0
 525              		.cfi_startproc
 526              		@ args = 0, pretend = 0, frame = 16
 527              		@ frame_needed = 0, uses_anonymous_args = 0
 528 0000 00B5     		push	{lr}
 529              		.cfi_def_cfa_offset 4
 530              		.cfi_offset 14, -4
 531 0002 87B0     		sub	sp, sp, #28
 532              		.cfi_def_cfa_offset 32
 533              		.loc 1 256 0
 534 0004 03A8     		add	r0, sp, #12
 535 0006 0021     		movs	r1, #0
 536 0008 FFF7FEFF 		bl	chSemInit
 537              	.LVL44:
 538              		.loc 1 257 0
 539 000c 03A8     		add	r0, sp, #12
 540 000e 0021     		movs	r1, #0
 541 0010 FFF7FEFF 		bl	chSemReset
 542              	.LVL45:
 543              		.loc 1 258 0
 544 0014 0599     		ldr	r1, [sp, #20]
 545 0016 0029     		cmp	r1, #0
 546 0018 CCBF     		ite	gt
 547 001a 0021     		movgt	r1, #0
 548 001c 0121     		movle	r1, #1
 549 001e 0120     		movs	r0, #1
 550 0020 FFF7FEFF 		bl	_test_assert
 551              	.LVL46:
 552 0024 10B1     		cbz	r0, .L39
 553              	.L33:
 554              		.loc 1 280 0
 555 0026 07B0     		add	sp, sp, #28
 556              		.cfi_remember_state
 557              		.cfi_def_cfa_offset 4
 558              		@ sp needed
 559 0028 5DF804FB 		ldr	pc, [sp], #4
 560              	.L39:
 561              		.cfi_restore_state
 562              		.loc 1 262 0
 563 002c 354B     		ldr	r3, .L42
 564              		.loc 1 261 0
 565 002e 364A     		ldr	r2, .L42+4
 566              		.loc 1 262 0
 567 0030 9B69     		ldr	r3, [r3, #24]
 568              		.loc 1 261 0
 569 0032 1068     		ldr	r0, [r2]
 570 0034 9A68     		ldr	r2, [r3, #8]
ARM GAS  /tmp/ccLSGJhs.s 			page 11


 571 0036 354B     		ldr	r3, .L42+8
 572 0038 03A9     		add	r1, sp, #12
 573 003a 0091     		str	r1, [sp]
 574 003c 013A     		subs	r2, r2, #1
 575 003e 4FF4A871 		mov	r1, #336
 576 0042 FFF7FEFF 		bl	chThdCreateStatic
 577              	.LVL47:
 578 0046 324B     		ldr	r3, .L42+12
 579 0048 1860     		str	r0, [r3]
 580              		.loc 1 265 0
 581 004a 03A8     		add	r0, sp, #12
 582 004c FFF7FEFF 		bl	chSemWait
 583              	.LVL48:
 584              		.loc 1 268 0
 585 0050 0599     		ldr	r1, [sp, #20]
 586 0052 0029     		cmp	r1, #0
 587 0054 CCBF     		ite	gt
 588 0056 0021     		movgt	r1, #0
 589 0058 0121     		movle	r1, #1
 590 005a 0220     		movs	r0, #2
 591 005c FFF7FEFF 		bl	_test_assert
 592              	.LVL49:
 593 0060 0028     		cmp	r0, #0
 594 0062 E0D1     		bne	.L33
 595              	.LBB10:
 596              		.loc 1 272 0
 597 0064 2023     		movs	r3, #32
 598              	@ 272 "../../ChibiOS_2.6.5/test/testsem.c" 1
 599 0066 83F31188 		msr     BASEPRI, r3
 600              	@ 0 "" 2
 601              		.thumb
 602              	.LBE10:
 603 006a FFF7FEFF 		bl	dbg_check_lock
 604              	.LVL50:
 605 006e 059B     		ldr	r3, [sp, #20]
 606 0070 002B     		cmp	r3, #0
 607 0072 3EDD     		ble	.L40
 608              	.L35:
 609              		.loc 1 272 0 is_stmt 0 discriminator 3
 610 0074 FFF7FEFF 		bl	chSchRescheduleS
 611              	.LVL51:
 612 0078 FFF7FEFF 		bl	dbg_check_unlock
 613              	.LVL52:
 614              	.LBB11:
 615 007c 0023     		movs	r3, #0
 616              	@ 272 "../../ChibiOS_2.6.5/test/testsem.c" 1
 617 007e 83F31188 		msr     BASEPRI, r3
 618              	@ 0 "" 2
 619              		.thumb
 620              	.LBE11:
 621              		.loc 1 273 0 is_stmt 1 discriminator 3
 622 0082 0599     		ldr	r1, [sp, #20]
 623 0084 9942     		cmp	r1, r3
 624 0086 D4BF     		ite	le
 625 0088 0021     		movle	r1, #0
 626 008a 0121     		movgt	r1, #1
 627 008c 0320     		movs	r0, #3
ARM GAS  /tmp/ccLSGJhs.s 			page 12


 628 008e FFF7FEFF 		bl	_test_assert
 629              	.LVL53:
 630 0092 0028     		cmp	r0, #0
 631 0094 C7D1     		bne	.L33
 632              		.loc 1 274 0
 633 0096 0599     		ldr	r1, [sp, #20]
 634 0098 0420     		movs	r0, #4
 635 009a A1F10101 		sub	r1, #1
 636 009e B1FA81F1 		clz	r1, r1
 637 00a2 4909     		lsrs	r1, r1, #5
 638 00a4 FFF7FEFF 		bl	_test_assert
 639              	.LVL54:
 640 00a8 0028     		cmp	r0, #0
 641 00aa BCD1     		bne	.L33
 642              	.LBB12:
 643              		.loc 1 277 0
 644 00ac 2023     		movs	r3, #32
 645              	@ 277 "../../ChibiOS_2.6.5/test/testsem.c" 1
 646 00ae 83F31188 		msr     BASEPRI, r3
 647              	@ 0 "" 2
 648              		.thumb
 649              	.LBE12:
 650 00b2 FFF7FEFF 		bl	dbg_check_lock
 651              	.LVL55:
 652 00b6 059B     		ldr	r3, [sp, #20]
 653 00b8 002B     		cmp	r3, #0
 654 00ba 1EDD     		ble	.L41
 655              	.L36:
 656              		.loc 1 277 0 is_stmt 0 discriminator 3
 657 00bc FFF7FEFF 		bl	chSchRescheduleS
 658              	.LVL56:
 659 00c0 FFF7FEFF 		bl	dbg_check_unlock
 660              	.LVL57:
 661              	.LBB13:
 662 00c4 0023     		movs	r3, #0
 663              	@ 277 "../../ChibiOS_2.6.5/test/testsem.c" 1
 664 00c6 83F31188 		msr     BASEPRI, r3
 665              	@ 0 "" 2
 666              		.thumb
 667              	.LBE13:
 668              		.loc 1 278 0 is_stmt 1 discriminator 3
 669 00ca 0599     		ldr	r1, [sp, #20]
 670 00cc 9942     		cmp	r1, r3
 671 00ce D4BF     		ite	le
 672 00d0 0021     		movle	r1, #0
 673 00d2 0121     		movgt	r1, #1
 674 00d4 0320     		movs	r0, #3
 675 00d6 FFF7FEFF 		bl	_test_assert
 676              	.LVL58:
 677 00da 0028     		cmp	r0, #0
 678 00dc A3D1     		bne	.L33
 679              		.loc 1 279 0
 680 00de 0599     		ldr	r1, [sp, #20]
 681 00e0 0520     		movs	r0, #5
 682 00e2 A1F10101 		sub	r1, #1
 683 00e6 B1FA81F1 		clz	r1, r1
 684 00ea 4909     		lsrs	r1, r1, #5
ARM GAS  /tmp/ccLSGJhs.s 			page 13


 685 00ec FFF7FEFF 		bl	_test_assert
 686              	.LVL59:
 687 00f0 99E7     		b	.L33
 688              	.L40:
 689              		.loc 1 272 0 discriminator 1
 690 00f2 03A8     		add	r0, sp, #12
 691 00f4 FFF7FEFF 		bl	chSemSignalI
 692              	.LVL60:
 693 00f8 BCE7     		b	.L35
 694              	.L41:
 695              		.loc 1 277 0 discriminator 1
 696 00fa 03A8     		add	r0, sp, #12
 697 00fc FFF7FEFF 		bl	chSemSignalI
 698              	.LVL61:
 699 0100 DCE7     		b	.L36
 700              	.L43:
 701 0102 00BF     		.align	2
 702              	.L42:
 703 0104 00000000 		.word	rlist
 704 0108 00000000 		.word	wa
 705 010c 00000000 		.word	thread4
 706 0110 00000000 		.word	threads
 707              		.cfi_endproc
 708              	.LFE17:
 709              		.size	sem4_execute, .-sem4_execute
 710              		.section	.text.sem2_execute,"ax",%progbits
 711              		.align	2
 712              		.p2align 4,,15
 713              		.thumb
 714              		.thumb_func
 715              		.type	sem2_execute, %function
 716              	sem2_execute:
 717              	.LFB12:
 718              		.loc 1 145 0
 719              		.cfi_startproc
 720              		@ args = 0, pretend = 0, frame = 0
 721              		@ frame_needed = 0, uses_anonymous_args = 0
 722 0000 70B5     		push	{r4, r5, r6, lr}
 723              		.cfi_def_cfa_offset 16
 724              		.cfi_offset 4, -16
 725              		.cfi_offset 5, -12
 726              		.cfi_offset 6, -8
 727              		.cfi_offset 14, -4
 728              		.loc 1 153 0
 729 0002 4A4C     		ldr	r4, .L52
 730              		.loc 1 145 0
 731 0004 82B0     		sub	sp, sp, #8
 732              		.cfi_def_cfa_offset 24
 733              		.loc 1 153 0
 734 0006 0021     		movs	r1, #0
 735 0008 2046     		mov	r0, r4
 736 000a FFF7FEFF 		bl	chSemWaitTimeout
 737              	.LVL62:
 738              		.loc 1 154 0
 739 000e A0F1FF31 		sub	r1, r0, #-1
 740 0012 0120     		movs	r0, #1
 741              	.LVL63:
ARM GAS  /tmp/ccLSGJhs.s 			page 14


 742 0014 B1FA81F1 		clz	r1, r1
 743              	.LVL64:
 744 0018 4909     		lsrs	r1, r1, #5
 745 001a FFF7FEFF 		bl	_test_assert
 746              	.LVL65:
 747 001e 08B1     		cbz	r0, .L51
 748              	.L44:
 749              		.loc 1 183 0
 750 0020 02B0     		add	sp, sp, #8
 751              		.cfi_remember_state
 752              		.cfi_def_cfa_offset 16
 753              		@ sp needed
 754 0022 70BD     		pop	{r4, r5, r6, pc}
 755              	.L51:
 756              		.cfi_restore_state
 757              		.loc 1 155 0
 758 0024 2168     		ldr	r1, [r4]
 759 0026 0220     		movs	r0, #2
 760 0028 091B     		subs	r1, r1, r4
 761 002a B1FA81F1 		clz	r1, r1
 762 002e 4909     		lsrs	r1, r1, #5
 763 0030 FFF7FEFF 		bl	_test_assert
 764              	.LVL66:
 765 0034 0028     		cmp	r0, #0
 766 0036 F3D1     		bne	.L44
 767              		.loc 1 156 0
 768 0038 A168     		ldr	r1, [r4, #8]
 769 003a B1FA81F1 		clz	r1, r1
 770 003e 0320     		movs	r0, #3
 771 0040 4909     		lsrs	r1, r1, #5
 772 0042 FFF7FEFF 		bl	_test_assert
 773              	.LVL67:
 774 0046 0028     		cmp	r0, #0
 775 0048 EAD1     		bne	.L44
 776              	.LBB16:
 777              	.LBB17:
 778              		.loc 1 161 0
 779 004a 394B     		ldr	r3, .L52+4
 780 004c 394A     		ldr	r2, .L52+8
 781 004e 9B69     		ldr	r3, [r3, #24]
 782 0050 1168     		ldr	r1, [r2]
 783 0052 9A68     		ldr	r2, [r3, #8]
 784 0054 384B     		ldr	r3, .L52+12
 785 0056 0090     		str	r0, [sp]
 786 0058 013A     		subs	r2, r2, #1
 787 005a 0846     		mov	r0, r1
 788 005c 4FF4A871 		mov	r1, #336
 789 0060 FFF7FEFF 		bl	chThdCreateStatic
 790              	.LVL68:
 791 0064 354B     		ldr	r3, .L52+16
 792              		.loc 1 163 0
 793 0066 4FF4FA71 		mov	r1, #500
 794              		.loc 1 161 0
 795 006a 1860     		str	r0, [r3]
 796              		.loc 1 163 0
 797 006c 2046     		mov	r0, r4
 798 006e FFF7FEFF 		bl	chSemWaitTimeout
ARM GAS  /tmp/ccLSGJhs.s 			page 15


 799              	.LVL69:
 800 0072 0546     		mov	r5, r0
 801              	.LVL70:
 802              		.loc 1 164 0
 803 0074 FFF7FEFF 		bl	test_wait_threads
 804              	.LVL71:
 805              		.loc 1 165 0
 806 0078 B5FA85F1 		clz	r1, r5
 807 007c 0420     		movs	r0, #4
 808 007e 4909     		lsrs	r1, r1, #5
 809 0080 FFF7FEFF 		bl	_test_assert
 810              	.LVL72:
 811 0084 0028     		cmp	r0, #0
 812 0086 CBD1     		bne	.L44
 813              		.loc 1 166 0
 814 0088 2168     		ldr	r1, [r4]
 815 008a 0520     		movs	r0, #5
 816 008c 091B     		subs	r1, r1, r4
 817 008e B1FA81F1 		clz	r1, r1
 818 0092 4909     		lsrs	r1, r1, #5
 819 0094 FFF7FEFF 		bl	_test_assert
 820              	.LVL73:
 821 0098 0028     		cmp	r0, #0
 822 009a C1D1     		bne	.L44
 823              		.loc 1 167 0
 824 009c A168     		ldr	r1, [r4, #8]
 825 009e B1FA81F1 		clz	r1, r1
 826 00a2 0620     		movs	r0, #6
 827 00a4 4909     		lsrs	r1, r1, #5
 828 00a6 FFF7FEFF 		bl	_test_assert
 829              	.LVL74:
 830 00aa 0028     		cmp	r0, #0
 831 00ac B8D1     		bne	.L44
 832              		.loc 1 172 0
 833 00ae FFF7FEFF 		bl	test_wait_tick
 834              	.LVL75:
 835              		.loc 1 173 0
 836 00b2 234B     		ldr	r3, .L52+20
 837 00b4 DE68     		ldr	r6, [r3, #12]
 838              	.LVL76:
 839 00b6 4125     		movs	r5, #65
 840              	.LVL77:
 841              	.L48:
 842              		.loc 1 175 0
 843 00b8 2846     		mov	r0, r5
 844 00ba FFF7FEFF 		bl	test_emit_token
 845              	.LVL78:
 846              		.loc 1 176 0
 847 00be 4FF4FA71 		mov	r1, #500
 848 00c2 1A48     		ldr	r0, .L52
 849 00c4 FFF7FEFF 		bl	chSemWaitTimeout
 850              	.LVL79:
 851              		.loc 1 177 0
 852 00c8 A0F1FF31 		sub	r1, r0, #-1
 853 00cc 0720     		movs	r0, #7
 854              	.LVL80:
 855 00ce B1FA81F1 		clz	r1, r1
ARM GAS  /tmp/ccLSGJhs.s 			page 16


 856              	.LVL81:
 857 00d2 4909     		lsrs	r1, r1, #5
 858 00d4 FFF7FEFF 		bl	_test_assert
 859              	.LVL82:
 860 00d8 0028     		cmp	r0, #0
 861 00da A1D1     		bne	.L44
 862              		.loc 1 178 0
 863 00dc 2168     		ldr	r1, [r4]
 864 00de 0820     		movs	r0, #8
 865 00e0 091B     		subs	r1, r1, r4
 866 00e2 B1FA81F1 		clz	r1, r1
 867 00e6 4909     		lsrs	r1, r1, #5
 868 00e8 FFF7FEFF 		bl	_test_assert
 869              	.LVL83:
 870 00ec 0028     		cmp	r0, #0
 871 00ee 97D1     		bne	.L44
 872              		.loc 1 179 0
 873 00f0 A168     		ldr	r1, [r4, #8]
 874 00f2 B1FA81F1 		clz	r1, r1
 875 00f6 0920     		movs	r0, #9
 876 00f8 4909     		lsrs	r1, r1, #5
 877 00fa FFF7FEFF 		bl	_test_assert
 878              	.LVL84:
 879 00fe 0135     		adds	r5, r5, #1
 880 0100 EDB2     		uxtb	r5, r5
 881 0102 0028     		cmp	r0, #0
 882 0104 8CD1     		bne	.L44
 883              		.loc 1 174 0
 884 0106 462D     		cmp	r5, #70
 885 0108 D6D1     		bne	.L48
 886              		.loc 1 181 0
 887 010a 0A20     		movs	r0, #10
 888 010c 0D49     		ldr	r1, .L52+24
 889 010e FFF7FEFF 		bl	_test_assert_sequence
 890              	.LVL85:
 891 0112 0028     		cmp	r0, #0
 892 0114 84D1     		bne	.L44
 893              		.loc 1 182 0
 894 0116 0B20     		movs	r0, #11
 895 0118 06F6C411 		addw	r1, r6, #2500
 896 011c 06F6C912 		addw	r2, r6, #2505
 897              	.LBE17:
 898              	.LBE16:
 899              		.loc 1 183 0
 900 0120 02B0     		add	sp, sp, #8
 901              		.cfi_def_cfa_offset 16
 902              		@ sp needed
 903 0122 BDE87040 		pop	{r4, r5, r6, lr}
 904              		.cfi_restore 14
 905              		.cfi_restore 6
 906              		.cfi_restore 5
 907              		.cfi_restore 4
 908              		.cfi_def_cfa_offset 0
 909              	.LVL86:
 910              	.LBB19:
 911              	.LBB18:
 912              		.loc 1 182 0
ARM GAS  /tmp/ccLSGJhs.s 			page 17


 913 0126 FFF7FEBF 		b	_test_assert_time_window
 914              	.LVL87:
 915              	.L53:
 916 012a 00BF     		.align	2
 917              	.L52:
 918 012c 00000000 		.word	.LANCHOR0
 919 0130 00000000 		.word	rlist
 920 0134 00000000 		.word	wa
 921 0138 00000000 		.word	thread2
 922 013c 00000000 		.word	threads
 923 0140 00000000 		.word	vtlist
 924 0144 14000000 		.word	.LC5
 925              	.LBE18:
 926              	.LBE19:
 927              		.cfi_endproc
 928              	.LFE12:
 929              		.size	sem2_execute, .-sem2_execute
 930              		.section	.text.sem3_execute,"ax",%progbits
 931              		.align	2
 932              		.p2align 4,,15
 933              		.thumb
 934              		.thumb_func
 935              		.type	sem3_execute, %function
 936              	sem3_execute:
 937              	.LFB15:
 938              		.loc 1 218 0
 939              		.cfi_startproc
 940              		@ args = 0, pretend = 0, frame = 0
 941              		@ frame_needed = 0, uses_anonymous_args = 0
 942 0000 10B5     		push	{r4, lr}
 943              		.cfi_def_cfa_offset 8
 944              		.cfi_offset 4, -8
 945              		.cfi_offset 14, -4
 946              		.loc 1 220 0
 947 0002 204B     		ldr	r3, .L60
 948 0004 204A     		ldr	r2, .L60+4
 949 0006 9B69     		ldr	r3, [r3, #24]
 950 0008 1068     		ldr	r0, [r2]
 951 000a 9A68     		ldr	r2, [r3, #8]
 952 000c 1F4B     		ldr	r3, .L60+8
 953              		.loc 1 221 0
 954 000e 204C     		ldr	r4, .L60+12
 955              		.loc 1 218 0
 956 0010 82B0     		sub	sp, sp, #8
 957              		.cfi_def_cfa_offset 16
 958              		.loc 1 220 0
 959 0012 0021     		movs	r1, #0
 960 0014 0132     		adds	r2, r2, #1
 961 0016 0091     		str	r1, [sp]
 962 0018 4FF4A871 		mov	r1, #336
 963 001c FFF7FEFF 		bl	chThdCreateStatic
 964              	.LVL88:
 965 0020 1C4B     		ldr	r3, .L60+16
 966              		.loc 1 221 0
 967 0022 2146     		mov	r1, r4
 968              		.loc 1 220 0
 969 0024 1860     		str	r0, [r3]
ARM GAS  /tmp/ccLSGJhs.s 			page 18


 970              		.loc 1 221 0
 971 0026 2046     		mov	r0, r4
 972 0028 FFF7FEFF 		bl	chSemSignalWait
 973              	.LVL89:
 974              		.loc 1 222 0
 975 002c 2168     		ldr	r1, [r4]
 976 002e 0120     		movs	r0, #1
 977 0030 091B     		subs	r1, r1, r4
 978 0032 B1FA81F1 		clz	r1, r1
 979 0036 4909     		lsrs	r1, r1, #5
 980 0038 FFF7FEFF 		bl	_test_assert
 981              	.LVL90:
 982 003c 08B1     		cbz	r0, .L59
 983              	.L54:
 984              		.loc 1 228 0
 985 003e 02B0     		add	sp, sp, #8
 986              		.cfi_remember_state
 987              		.cfi_def_cfa_offset 8
 988              		@ sp needed
 989 0040 10BD     		pop	{r4, pc}
 990              	.L59:
 991              		.cfi_restore_state
 992              		.loc 1 223 0
 993 0042 A168     		ldr	r1, [r4, #8]
 994 0044 B1FA81F1 		clz	r1, r1
 995 0048 0220     		movs	r0, #2
 996 004a 4909     		lsrs	r1, r1, #5
 997 004c FFF7FEFF 		bl	_test_assert
 998              	.LVL91:
 999 0050 0028     		cmp	r0, #0
 1000 0052 F4D1     		bne	.L54
 1001              	.LBB22:
 1002              	.LBB23:
 1003              		.loc 1 225 0
 1004 0054 2146     		mov	r1, r4
 1005 0056 2046     		mov	r0, r4
 1006 0058 FFF7FEFF 		bl	chSemSignalWait
 1007              	.LVL92:
 1008              		.loc 1 226 0
 1009 005c 2168     		ldr	r1, [r4]
 1010 005e 0320     		movs	r0, #3
 1011 0060 091B     		subs	r1, r1, r4
 1012 0062 B1FA81F1 		clz	r1, r1
 1013 0066 4909     		lsrs	r1, r1, #5
 1014 0068 FFF7FEFF 		bl	_test_assert
 1015              	.LVL93:
 1016 006c 0028     		cmp	r0, #0
 1017 006e E6D1     		bne	.L54
 1018              		.loc 1 227 0
 1019 0070 A168     		ldr	r1, [r4, #8]
 1020 0072 B1FA81F1 		clz	r1, r1
 1021 0076 0420     		movs	r0, #4
 1022 0078 4909     		lsrs	r1, r1, #5
 1023              	.LBE23:
 1024              	.LBE22:
 1025              		.loc 1 228 0
 1026 007a 02B0     		add	sp, sp, #8
ARM GAS  /tmp/ccLSGJhs.s 			page 19


 1027              		.cfi_def_cfa_offset 8
 1028              		@ sp needed
 1029 007c BDE81040 		pop	{r4, lr}
 1030              		.cfi_restore 14
 1031              		.cfi_restore 4
 1032              		.cfi_def_cfa_offset 0
 1033              	.LBB25:
 1034              	.LBB24:
 1035              		.loc 1 227 0
 1036 0080 FFF7FEBF 		b	_test_assert
 1037              	.LVL94:
 1038              	.L61:
 1039              		.align	2
 1040              	.L60:
 1041 0084 00000000 		.word	rlist
 1042 0088 00000000 		.word	wa
 1043 008c 00000000 		.word	thread3
 1044 0090 00000000 		.word	.LANCHOR0
 1045 0094 00000000 		.word	threads
 1046              	.LBE24:
 1047              	.LBE25:
 1048              		.cfi_endproc
 1049              	.LFE15:
 1050              		.size	sem3_execute, .-sem3_execute
 1051              		.global	patternsem
 1052              		.global	testsem4
 1053              		.global	testsem3
 1054              		.global	testsem2
 1055              		.global	testsem1
 1056              		.section	.rodata.testsem1,"a",%progbits
 1057              		.align	2
 1058              		.type	testsem1, %object
 1059              		.size	testsem1, 16
 1060              	testsem1:
 1061 0000 74000000 		.word	.LC9
 1062 0004 00000000 		.word	sem1_setup
 1063 0008 00000000 		.word	0
 1064 000c 00000000 		.word	sem1_execute
 1065              		.section	.rodata.testsem2,"a",%progbits
 1066              		.align	2
 1067              		.type	testsem2, %object
 1068              		.size	testsem2, 16
 1069              	testsem2:
 1070 0000 60000000 		.word	.LC8
 1071 0004 00000000 		.word	sem2_setup
 1072 0008 00000000 		.word	0
 1073 000c 00000000 		.word	sem2_execute
 1074              		.section	.rodata.testsem3,"a",%progbits
 1075              		.align	2
 1076              		.type	testsem3, %object
 1077              		.size	testsem3, 16
 1078              	testsem3:
 1079 0000 40000000 		.word	.LC7
 1080 0004 00000000 		.word	sem3_setup
 1081 0008 00000000 		.word	0
 1082 000c 00000000 		.word	sem3_execute
 1083              		.section	.rodata.testsem4,"a",%progbits
ARM GAS  /tmp/ccLSGJhs.s 			page 20


 1084              		.align	2
 1085              		.type	testsem4, %object
 1086              		.size	testsem4, 16
 1087              	testsem4:
 1088 0000 1C000000 		.word	.LC6
 1089 0004 00000000 		.word	0
 1090 0008 00000000 		.word	0
 1091 000c 00000000 		.word	sem4_execute
 1092              		.section	.data.sem1,"aw",%progbits
 1093              		.align	2
 1094              		.set	.LANCHOR0,. + 0
 1095              		.type	sem1, %object
 1096              		.size	sem1, 12
 1097              	sem1:
 1098 0000 00000000 		.word	sem1
 1099 0004 00000000 		.word	sem1
 1100 0008 00000000 		.word	0
 1101              		.section	.rodata.patternsem,"a",%progbits
 1102              		.align	2
 1103              		.type	patternsem, %object
 1104              		.size	patternsem, 20
 1105              	patternsem:
 1106 0000 00000000 		.word	testsem1
 1107 0004 00000000 		.word	testsem2
 1108 0008 00000000 		.word	testsem3
 1109 000c 00000000 		.word	testsem4
 1110 0010 00000000 		.word	0
 1111              		.section	.rodata.str1.4,"aMS",%progbits,1
 1112              		.align	2
 1113              	.LC0:
 1114 0000 4100     		.ascii	"A\000"
 1115 0002 0000     		.space	2
 1116              	.LC1:
 1117 0004 4200     		.ascii	"B\000"
 1118 0006 0000     		.space	2
 1119              	.LC2:
 1120 0008 4300     		.ascii	"C\000"
 1121 000a 0000     		.space	2
 1122              	.LC3:
 1123 000c 4400     		.ascii	"D\000"
 1124 000e 0000     		.space	2
 1125              	.LC4:
 1126 0010 4500     		.ascii	"E\000"
 1127 0012 0000     		.space	2
 1128              	.LC5:
 1129 0014 41424344 		.ascii	"ABCDE\000"
 1129      4500
 1130 001a 0000     		.space	2
 1131              	.LC6:
 1132 001c 42696E61 		.ascii	"Binary Semaphores, functionality\000"
 1132      72792053 
 1132      656D6170 
 1132      686F7265 
 1132      732C2066 
 1133 003d 000000   		.space	3
 1134              	.LC7:
 1135 0040 53656D61 		.ascii	"Semaphores, atomic signal-wait\000"
ARM GAS  /tmp/ccLSGJhs.s 			page 21


 1135      70686F72 
 1135      65732C20 
 1135      61746F6D 
 1135      69632073 
 1136 005f 00       		.space	1
 1137              	.LC8:
 1138 0060 53656D61 		.ascii	"Semaphores, timeout\000"
 1138      70686F72 
 1138      65732C20 
 1138      74696D65 
 1138      6F757400 
 1139              	.LC9:
 1140 0074 53656D61 		.ascii	"Semaphores, enqueuing\000"
 1140      70686F72 
 1140      65732C20 
 1140      656E7175 
 1140      6575696E 
 1141              		.text
 1142              	.Letext0:
 1143              		.file 2 "/usr/lib/gcc/arm-none-eabi/4.9.3/include/stddef.h"
 1144              		.file 3 "/usr/include/newlib/machine/_default_types.h"
 1145              		.file 4 "/usr/include/newlib/sys/_stdint.h"
 1146              		.file 5 "../../ChibiOS_2.6.5/os/ports/GCC/ARMCMx/chtypes.h"
 1147              		.file 6 "../../ChibiOS_2.6.5/os/kernel/include/chlists.h"
 1148              		.file 7 "../../ChibiOS_2.6.5/os/kernel/include/chthreads.h"
 1149              		.file 8 "../../ChibiOS_2.6.5/os/ports/GCC/ARMCMx/chcore_v7m.h"
 1150              		.file 9 "../../ChibiOS_2.6.5/os/kernel/include/chvt.h"
 1151              		.file 10 "../../ChibiOS_2.6.5/os/kernel/include/chschd.h"
 1152              		.file 11 "../../ChibiOS_2.6.5/os/kernel/include/chsem.h"
 1153              		.file 12 "../../ChibiOS_2.6.5/os/kernel/include/chbsem.h"
 1154              		.file 13 "../../ChibiOS_2.6.5/os/kernel/include/chmtx.h"
 1155              		.file 14 "../../ChibiOS_2.6.5/test/test.h"
 1156              		.file 15 "../../ChibiOS_2.6.5/os/kernel/include/chdebug.h"