ARM GAS  /tmp/ccxVrktp.s 			page 1


   1              		.syntax unified
   2              		.cpu cortex-m4
   3              		.fpu softvfp
   4              		.eabi_attribute 20, 1
   5              		.eabi_attribute 21, 1
   6              		.eabi_attribute 23, 3
   7              		.eabi_attribute 24, 1
   8              		.eabi_attribute 25, 1
   9              		.eabi_attribute 26, 1
  10              		.eabi_attribute 30, 2
  11              		.eabi_attribute 34, 1
  12              		.eabi_attribute 18, 4
  13              		.thumb
  14              		.file	"usb.c"
  15              		.text
  16              	.Ltext0:
  17              		.cfi_sections	.debug_frame
  18              		.section	.text.usbInit,"ax",%progbits
  19              		.align	2
  20              		.p2align 4,,15
  21              		.global	usbInit
  22              		.thumb
  23              		.thumb_func
  24              		.type	usbInit, %function
  25              	usbInit:
  26              	.LFB120:
  27              		.file 1 "../../ChibiOS_2.6.5/os/hal/src/usb.c"
  28              		.loc 1 235 0
  29              		.cfi_startproc
  30              		@ args = 0, pretend = 0, frame = 0
  31              		@ frame_needed = 0, uses_anonymous_args = 0
  32              		@ link register save eliminated.
  33              		.loc 1 237 0
  34 0000 FFF7FEBF 		b	usb_lld_init
  35              	.LVL0:
  36              		.cfi_endproc
  37              	.LFE120:
  38              		.size	usbInit, .-usbInit
  39              		.section	.text.usbObjectInit,"ax",%progbits
  40              		.align	2
  41              		.p2align 4,,15
  42              		.global	usbObjectInit
  43              		.thumb
  44              		.thumb_func
  45              		.type	usbObjectInit, %function
  46              	usbObjectInit:
  47              	.LFB121:
  48              		.loc 1 247 0
  49              		.cfi_startproc
  50              		@ args = 0, pretend = 0, frame = 0
  51              		@ frame_needed = 0, uses_anonymous_args = 0
  52              		@ link register save eliminated.
  53              	.LVL1:
  54              		.loc 1 251 0
  55 0000 0023     		movs	r3, #0
  56              		.loc 1 250 0
  57 0002 0122     		movs	r2, #1
ARM GAS  /tmp/ccxVrktp.s 			page 2


  58 0004 0270     		strb	r2, [r0]
  59              		.loc 1 251 0
  60 0006 4360     		str	r3, [r0, #4]
  61              	.LVL2:
  62              		.loc 1 253 0
  63 0008 C361     		str	r3, [r0, #28]
  64              		.loc 1 254 0
  65 000a 8362     		str	r3, [r0, #40]
  66              	.LVL3:
  67              		.loc 1 253 0
  68 000c 0362     		str	r3, [r0, #32]
  69              		.loc 1 254 0
  70 000e C362     		str	r3, [r0, #44]
  71              	.LVL4:
  72              		.loc 1 253 0
  73 0010 4362     		str	r3, [r0, #36]
  74              		.loc 1 254 0
  75 0012 0363     		str	r3, [r0, #48]
  76              	.LVL5:
  77              		.loc 1 256 0
  78 0014 0381     		strh	r3, [r0, #8]	@ movhi
  79              		.loc 1 257 0
  80 0016 4381     		strh	r3, [r0, #10]	@ movhi
  81 0018 7047     		bx	lr
  82              		.cfi_endproc
  83              	.LFE121:
  84              		.size	usbObjectInit, .-usbObjectInit
  85 001a 00BF     		.section	.text.usbStart,"ax",%progbits
  86              		.align	2
  87              		.p2align 4,,15
  88              		.global	usbStart
  89              		.thumb
  90              		.thumb_func
  91              		.type	usbStart, %function
  92              	usbStart:
  93              	.LFB122:
  94              		.loc 1 268 0
  95              		.cfi_startproc
  96              		@ args = 0, pretend = 0, frame = 0
  97              		@ frame_needed = 0, uses_anonymous_args = 0
  98              	.LVL6:
  99 0000 70B5     		push	{r4, r5, r6, lr}
 100              		.cfi_def_cfa_offset 16
 101              		.cfi_offset 4, -16
 102              		.cfi_offset 5, -12
 103              		.cfi_offset 6, -8
 104              		.cfi_offset 14, -4
 105              		.loc 1 268 0
 106 0002 0E46     		mov	r6, r1
 107              		.loc 1 271 0
 108 0004 0446     		mov	r4, r0
 109 0006 E8B1     		cbz	r0, .L4
 110              		.loc 1 271 0 is_stmt 0 discriminator 2
 111 0008 E1B1     		cbz	r1, .L4
 112              	.LVL7:
 113              	.L5:
 114              	.LBB30:
ARM GAS  /tmp/ccxVrktp.s 			page 3


 115              		.loc 1 273 0 is_stmt 1
 116 000a 2023     		movs	r3, #32
 117              	@ 273 "../../ChibiOS_2.6.5/os/hal/src/usb.c" 1
 118 000c 83F31188 		msr     BASEPRI, r3
 119              	@ 0 "" 2
 120              		.thumb
 121              	.LBE30:
 122 0010 FFF7FEFF 		bl	dbg_check_lock
 123              	.LVL8:
 124              		.loc 1 274 0
 125 0014 2378     		ldrb	r3, [r4]	@ zero_extendqisi2
 126 0016 013B     		subs	r3, r3, #1
 127 0018 012B     		cmp	r3, #1
 128 001a 02D9     		bls	.L6
 129              		.loc 1 274 0 is_stmt 0 discriminator 1
 130 001c 0B48     		ldr	r0, .L12
 131 001e FFF7FEFF 		bl	chDbgPanic
 132              	.LVL9:
 133              	.L6:
 134              		.loc 1 278 0 is_stmt 1
 135 0022 0025     		movs	r5, #0
 136              		.loc 1 279 0
 137 0024 2046     		mov	r0, r4
 138              		.loc 1 276 0
 139 0026 6660     		str	r6, [r4, #4]
 140              	.LVL10:
 141              		.loc 1 278 0
 142 0028 E560     		str	r5, [r4, #12]
 143              	.LVL11:
 144 002a 2561     		str	r5, [r4, #16]
 145              	.LVL12:
 146 002c 6561     		str	r5, [r4, #20]
 147              	.LVL13:
 148 002e A561     		str	r5, [r4, #24]
 149              	.LVL14:
 150              		.loc 1 279 0
 151 0030 FFF7FEFF 		bl	usb_lld_start
 152              	.LVL15:
 153              		.loc 1 280 0
 154 0034 0223     		movs	r3, #2
 155 0036 2370     		strb	r3, [r4]
 156              		.loc 1 281 0
 157 0038 FFF7FEFF 		bl	dbg_check_unlock
 158              	.LVL16:
 159              	.LBB31:
 160 003c 2B46     		mov	r3, r5
 161              	@ 281 "../../ChibiOS_2.6.5/os/hal/src/usb.c" 1
 162 003e 83F31188 		msr     BASEPRI, r3
 163              	@ 0 "" 2
 164              		.thumb
 165 0042 70BD     		pop	{r4, r5, r6, pc}
 166              	.LVL17:
 167              	.L4:
 168              	.LBE31:
 169              		.loc 1 271 0 discriminator 3
 170 0044 0248     		ldr	r0, .L12+4
 171              	.LVL18:
ARM GAS  /tmp/ccxVrktp.s 			page 4


 172 0046 FFF7FEFF 		bl	chDbgPanic
 173              	.LVL19:
 174 004a DEE7     		b	.L5
 175              	.L13:
 176              		.align	2
 177              	.L12:
 178 004c 10000000 		.word	.LC1
 179 0050 00000000 		.word	.LC0
 180              		.cfi_endproc
 181              	.LFE122:
 182              		.size	usbStart, .-usbStart
 183              		.section	.text.usbStop,"ax",%progbits
 184              		.align	2
 185              		.p2align 4,,15
 186              		.global	usbStop
 187              		.thumb
 188              		.thumb_func
 189              		.type	usbStop, %function
 190              	usbStop:
 191              	.LFB123:
 192              		.loc 1 291 0
 193              		.cfi_startproc
 194              		@ args = 0, pretend = 0, frame = 0
 195              		@ frame_needed = 0, uses_anonymous_args = 0
 196              	.LVL20:
 197 0000 10B5     		push	{r4, lr}
 198              		.cfi_def_cfa_offset 8
 199              		.cfi_offset 4, -8
 200              		.cfi_offset 14, -4
 201              		.loc 1 293 0
 202 0002 0446     		mov	r4, r0
 203 0004 B0B1     		cbz	r0, .L18
 204              	.LVL21:
 205              	.L15:
 206              	.LBB32:
 207              		.loc 1 295 0
 208 0006 2023     		movs	r3, #32
 209              	@ 295 "../../ChibiOS_2.6.5/os/hal/src/usb.c" 1
 210 0008 83F31188 		msr     BASEPRI, r3
 211              	@ 0 "" 2
 212              		.thumb
 213              	.LBE32:
 214 000c FFF7FEFF 		bl	dbg_check_lock
 215              	.LVL22:
 216              		.loc 1 296 0
 217 0010 2378     		ldrb	r3, [r4]	@ zero_extendqisi2
 218 0012 013B     		subs	r3, r3, #1
 219 0014 032B     		cmp	r3, #3
 220 0016 02D9     		bls	.L16
 221              		.loc 1 296 0 is_stmt 0 discriminator 1
 222 0018 0848     		ldr	r0, .L19
 223 001a FFF7FEFF 		bl	chDbgPanic
 224              	.LVL23:
 225              	.L16:
 226              		.loc 1 299 0 is_stmt 1
 227 001e 2046     		mov	r0, r4
 228 0020 FFF7FEFF 		bl	usb_lld_stop
ARM GAS  /tmp/ccxVrktp.s 			page 5


 229              	.LVL24:
 230              		.loc 1 300 0
 231 0024 0123     		movs	r3, #1
 232 0026 2370     		strb	r3, [r4]
 233              		.loc 1 301 0
 234 0028 FFF7FEFF 		bl	dbg_check_unlock
 235              	.LVL25:
 236              	.LBB33:
 237 002c 0023     		movs	r3, #0
 238              	@ 301 "../../ChibiOS_2.6.5/os/hal/src/usb.c" 1
 239 002e 83F31188 		msr     BASEPRI, r3
 240              	@ 0 "" 2
 241              		.thumb
 242 0032 10BD     		pop	{r4, pc}
 243              	.LVL26:
 244              	.L18:
 245              	.LBE33:
 246              		.loc 1 293 0 discriminator 1
 247 0034 0248     		ldr	r0, .L19+4
 248              	.LVL27:
 249 0036 FFF7FEFF 		bl	chDbgPanic
 250              	.LVL28:
 251 003a E4E7     		b	.L15
 252              	.L20:
 253              		.align	2
 254              	.L19:
 255 003c 2C000000 		.word	.LC3
 256 0040 20000000 		.word	.LC2
 257              		.cfi_endproc
 258              	.LFE123:
 259              		.size	usbStop, .-usbStop
 260              		.section	.text.usbInitEndpointI,"ax",%progbits
 261              		.align	2
 262              		.p2align 4,,15
 263              		.global	usbInitEndpointI
 264              		.thumb
 265              		.thumb_func
 266              		.type	usbInitEndpointI, %function
 267              	usbInitEndpointI:
 268              	.LFB124:
 269              		.loc 1 318 0
 270              		.cfi_startproc
 271              		@ args = 0, pretend = 0, frame = 0
 272              		@ frame_needed = 0, uses_anonymous_args = 0
 273              	.LVL29:
 274 0000 F8B5     		push	{r3, r4, r5, r6, r7, lr}
 275              		.cfi_def_cfa_offset 24
 276              		.cfi_offset 3, -24
 277              		.cfi_offset 4, -20
 278              		.cfi_offset 5, -16
 279              		.cfi_offset 6, -12
 280              		.cfi_offset 7, -8
 281              		.cfi_offset 14, -4
 282              		.loc 1 318 0
 283 0002 0446     		mov	r4, r0
 284 0004 0E46     		mov	r6, r1
 285 0006 1546     		mov	r5, r2
ARM GAS  /tmp/ccxVrktp.s 			page 6


 286              		.loc 1 320 0
 287 0008 FFF7FEFF 		bl	chDbgCheckClassI
 288              	.LVL30:
 289              		.loc 1 321 0
 290 000c 04B3     		cbz	r4, .L22
 291              		.loc 1 321 0 is_stmt 0 discriminator 2
 292 000e FDB1     		cbz	r5, .L22
 293              	.L23:
 294              		.loc 1 322 0 is_stmt 1
 295 0010 2378     		ldrb	r3, [r4]	@ zero_extendqisi2
 296 0012 042B     		cmp	r3, #4
 297 0014 02D0     		beq	.L24
 298              		.loc 1 322 0 is_stmt 0 discriminator 1
 299 0016 1048     		ldr	r0, .L44
 300 0018 FFF7FEFF 		bl	chDbgPanic
 301              	.LVL31:
 302              	.L24:
 303 001c 04EB8607 		add	r7, r4, r6, lsl #2
 304              		.loc 1 324 0 is_stmt 1
 305 0020 FB68     		ldr	r3, [r7, #12]
 306 0022 13B1     		cbz	r3, .L25
 307              		.loc 1 324 0 is_stmt 0 discriminator 1
 308 0024 0D48     		ldr	r0, .L44+4
 309 0026 FFF7FEFF 		bl	chDbgPanic
 310              	.LVL32:
 311              	.L25:
 312              		.loc 1 328 0 is_stmt 1
 313 002a 6869     		ldr	r0, [r5, #20]
 314 002c 18B1     		cbz	r0, .L26
 315              		.loc 1 329 0
 316 002e 0021     		movs	r1, #0
 317 0030 1422     		movs	r2, #20
 318 0032 FFF7FEFF 		bl	memset
 319              	.LVL33:
 320              	.L26:
 321              		.loc 1 330 0
 322 0036 A869     		ldr	r0, [r5, #24]
 323 0038 18B1     		cbz	r0, .L27
 324              		.loc 1 331 0
 325 003a 0021     		movs	r1, #0
 326 003c 1022     		movs	r2, #16
 327 003e FFF7FEFF 		bl	memset
 328              	.LVL34:
 329              	.L27:
 330              		.loc 1 333 0
 331 0042 FD60     		str	r5, [r7, #12]
 332              		.loc 1 336 0
 333 0044 2046     		mov	r0, r4
 334 0046 3146     		mov	r1, r6
 335              		.loc 1 337 0
 336 0048 BDE8F840 		pop	{r3, r4, r5, r6, r7, lr}
 337              		.cfi_remember_state
 338              		.cfi_restore 14
 339              		.cfi_restore 7
 340              		.cfi_restore 6
 341              		.cfi_restore 5
 342              		.cfi_restore 4
ARM GAS  /tmp/ccxVrktp.s 			page 7


 343              		.cfi_restore 3
 344              		.cfi_def_cfa_offset 0
 345              	.LVL35:
 346              		.loc 1 336 0
 347 004c FFF7FEBF 		b	usb_lld_init_endpoint
 348              	.LVL36:
 349              	.L22:
 350              		.cfi_restore_state
 351              		.loc 1 321 0 discriminator 3
 352 0050 0348     		ldr	r0, .L44+8
 353 0052 FFF7FEFF 		bl	chDbgPanic
 354              	.LVL37:
 355 0056 DBE7     		b	.L23
 356              	.L45:
 357              		.align	2
 358              	.L44:
 359 0058 54000000 		.word	.LC5
 360 005c 70000000 		.word	.LC6
 361 0060 3C000000 		.word	.LC4
 362              		.cfi_endproc
 363              	.LFE124:
 364              		.size	usbInitEndpointI, .-usbInitEndpointI
 365              		.section	.text.usbDisableEndpointsI,"ax",%progbits
 366              		.align	2
 367              		.p2align 4,,15
 368              		.global	usbDisableEndpointsI
 369              		.thumb
 370              		.thumb_func
 371              		.type	usbDisableEndpointsI, %function
 372              	usbDisableEndpointsI:
 373              	.LFB125:
 374              		.loc 1 350 0
 375              		.cfi_startproc
 376              		@ args = 0, pretend = 0, frame = 0
 377              		@ frame_needed = 0, uses_anonymous_args = 0
 378              	.LVL38:
 379 0000 10B5     		push	{r4, lr}
 380              		.cfi_def_cfa_offset 8
 381              		.cfi_offset 4, -8
 382              		.cfi_offset 14, -4
 383              		.loc 1 350 0
 384 0002 0446     		mov	r4, r0
 385              		.loc 1 353 0
 386 0004 FFF7FEFF 		bl	chDbgCheckClassI
 387              	.LVL39:
 388              		.loc 1 354 0
 389 0008 B4B1     		cbz	r4, .L53
 390              	.L47:
 391              		.loc 1 355 0
 392 000a 2378     		ldrb	r3, [r4]	@ zero_extendqisi2
 393 000c 032B     		cmp	r3, #3
 394 000e 02D0     		beq	.L48
 395              		.loc 1 355 0 is_stmt 0 discriminator 1
 396 0010 0B48     		ldr	r0, .L54
 397 0012 FFF7FEFF 		bl	chDbgPanic
 398              	.LVL40:
 399              	.L48:
ARM GAS  /tmp/ccxVrktp.s 			page 8


 400              		.loc 1 358 0 is_stmt 1
 401 0016 2189     		ldrh	r1, [r4, #8]
 402              		.loc 1 359 0
 403 0018 6289     		ldrh	r2, [r4, #10]
 404              		.loc 1 361 0
 405 001a 0023     		movs	r3, #0
 406              		.loc 1 358 0
 407 001c 21F00101 		bic	r1, r1, #1
 408              		.loc 1 359 0
 409 0020 22F00102 		bic	r2, r2, #1
 410              		.loc 1 358 0
 411 0024 2181     		strh	r1, [r4, #8]	@ movhi
 412              		.loc 1 359 0
 413 0026 6281     		strh	r2, [r4, #10]	@ movhi
 414              	.LVL41:
 415              		.loc 1 361 0
 416 0028 2361     		str	r3, [r4, #16]
 417              	.LVL42:
 418 002a 6361     		str	r3, [r4, #20]
 419              	.LVL43:
 420 002c A361     		str	r3, [r4, #24]
 421              	.LVL44:
 422              		.loc 1 364 0
 423 002e 2046     		mov	r0, r4
 424              		.loc 1 365 0
 425 0030 BDE81040 		pop	{r4, lr}
 426              		.cfi_remember_state
 427              		.cfi_restore 14
 428              		.cfi_restore 4
 429              		.cfi_def_cfa_offset 0
 430              	.LVL45:
 431              		.loc 1 364 0
 432 0034 FFF7FEBF 		b	usb_lld_disable_endpoints
 433              	.LVL46:
 434              	.L53:
 435              		.cfi_restore_state
 436              		.loc 1 354 0 discriminator 1
 437 0038 0248     		ldr	r0, .L54+4
 438 003a FFF7FEFF 		bl	chDbgPanic
 439              	.LVL47:
 440 003e E4E7     		b	.L47
 441              	.L55:
 442              		.align	2
 443              	.L54:
 444 0040 A8000000 		.word	.LC8
 445 0044 8C000000 		.word	.LC7
 446              		.cfi_endproc
 447              	.LFE125:
 448              		.size	usbDisableEndpointsI, .-usbDisableEndpointsI
 449              		.section	.text.usbPrepareReceive,"ax",%progbits
 450              		.align	2
 451              		.p2align 4,,15
 452              		.global	usbPrepareReceive
 453              		.thumb
 454              		.thumb_func
 455              		.type	usbPrepareReceive, %function
 456              	usbPrepareReceive:
ARM GAS  /tmp/ccxVrktp.s 			page 9


 457              	.LFB126:
 458              		.loc 1 379 0
 459              		.cfi_startproc
 460              		@ args = 0, pretend = 0, frame = 0
 461              		@ frame_needed = 0, uses_anonymous_args = 0
 462              		@ link register save eliminated.
 463              	.LVL48:
 464 0000 30B4     		push	{r4, r5}
 465              		.cfi_def_cfa_offset 8
 466              		.cfi_offset 4, -8
 467              		.cfi_offset 5, -4
 468              		.loc 1 380 0
 469 0002 00EB8104 		add	r4, r0, r1, lsl #2
 470              		.loc 1 382 0
 471 0006 0025     		movs	r5, #0
 472              		.loc 1 380 0
 473 0008 E468     		ldr	r4, [r4, #12]
 474 000a A469     		ldr	r4, [r4, #24]
 475              	.LVL49:
 476              		.loc 1 383 0
 477 000c E260     		str	r2, [r4, #12]
 478              		.loc 1 384 0
 479 000e 6360     		str	r3, [r4, #4]
 480              		.loc 1 382 0
 481 0010 2570     		strb	r5, [r4]
 482              		.loc 1 385 0
 483 0012 A560     		str	r5, [r4, #8]
 484              		.loc 1 388 0
 485 0014 30BC     		pop	{r4, r5}
 486              		.cfi_restore 5
 487              		.cfi_restore 4
 488              		.cfi_def_cfa_offset 0
 489              	.LVL50:
 490              		.loc 1 387 0
 491 0016 FFF7FEBF 		b	usb_lld_prepare_receive
 492              	.LVL51:
 493              		.cfi_endproc
 494              	.LFE126:
 495              		.size	usbPrepareReceive, .-usbPrepareReceive
 496 001a 00BF     		.section	.text.usbPrepareTransmit,"ax",%progbits
 497              		.align	2
 498              		.p2align 4,,15
 499              		.global	usbPrepareTransmit
 500              		.thumb
 501              		.thumb_func
 502              		.type	usbPrepareTransmit, %function
 503              	usbPrepareTransmit:
 504              	.LFB127:
 505              		.loc 1 405 0
 506              		.cfi_startproc
 507              		@ args = 0, pretend = 0, frame = 0
 508              		@ frame_needed = 0, uses_anonymous_args = 0
 509              		@ link register save eliminated.
 510              	.LVL52:
 511 0000 30B4     		push	{r4, r5}
 512              		.cfi_def_cfa_offset 8
 513              		.cfi_offset 4, -8
ARM GAS  /tmp/ccxVrktp.s 			page 10


 514              		.cfi_offset 5, -4
 515              		.loc 1 406 0
 516 0002 00EB8104 		add	r4, r0, r1, lsl #2
 517              		.loc 1 408 0
 518 0006 0025     		movs	r5, #0
 519              		.loc 1 406 0
 520 0008 E468     		ldr	r4, [r4, #12]
 521 000a 6469     		ldr	r4, [r4, #20]
 522              	.LVL53:
 523              		.loc 1 409 0
 524 000c E260     		str	r2, [r4, #12]
 525              		.loc 1 410 0
 526 000e 6360     		str	r3, [r4, #4]
 527              		.loc 1 408 0
 528 0010 2570     		strb	r5, [r4]
 529              		.loc 1 411 0
 530 0012 A560     		str	r5, [r4, #8]
 531              		.loc 1 414 0
 532 0014 30BC     		pop	{r4, r5}
 533              		.cfi_restore 5
 534              		.cfi_restore 4
 535              		.cfi_def_cfa_offset 0
 536              	.LVL54:
 537              		.loc 1 413 0
 538 0016 FFF7FEBF 		b	usb_lld_prepare_transmit
 539              	.LVL55:
 540              		.cfi_endproc
 541              	.LFE127:
 542              		.size	usbPrepareTransmit, .-usbPrepareTransmit
 543 001a 00BF     		.section	.text.usbPrepareQueuedReceive,"ax",%progbits
 544              		.align	2
 545              		.p2align 4,,15
 546              		.global	usbPrepareQueuedReceive
 547              		.thumb
 548              		.thumb_func
 549              		.type	usbPrepareQueuedReceive, %function
 550              	usbPrepareQueuedReceive:
 551              	.LFB128:
 552              		.loc 1 434 0
 553              		.cfi_startproc
 554              		@ args = 0, pretend = 0, frame = 0
 555              		@ frame_needed = 0, uses_anonymous_args = 0
 556              		@ link register save eliminated.
 557              	.LVL56:
 558 0000 70B4     		push	{r4, r5, r6}
 559              		.cfi_def_cfa_offset 12
 560              		.cfi_offset 4, -12
 561              		.cfi_offset 5, -8
 562              		.cfi_offset 6, -4
 563              		.loc 1 435 0
 564 0002 00EB8104 		add	r4, r0, r1, lsl #2
 565              		.loc 1 437 0
 566 0006 0126     		movs	r6, #1
 567              		.loc 1 435 0
 568 0008 E468     		ldr	r4, [r4, #12]
 569 000a A469     		ldr	r4, [r4, #24]
 570              	.LVL57:
ARM GAS  /tmp/ccxVrktp.s 			page 11


 571              		.loc 1 440 0
 572 000c 0025     		movs	r5, #0
 573              		.loc 1 438 0
 574 000e E260     		str	r2, [r4, #12]
 575              		.loc 1 439 0
 576 0010 6360     		str	r3, [r4, #4]
 577              		.loc 1 437 0
 578 0012 2670     		strb	r6, [r4]
 579              		.loc 1 440 0
 580 0014 A560     		str	r5, [r4, #8]
 581              		.loc 1 443 0
 582 0016 70BC     		pop	{r4, r5, r6}
 583              		.cfi_restore 6
 584              		.cfi_restore 5
 585              		.cfi_restore 4
 586              		.cfi_def_cfa_offset 0
 587              	.LVL58:
 588              		.loc 1 442 0
 589 0018 FFF7FEBF 		b	usb_lld_prepare_receive
 590              	.LVL59:
 591              		.cfi_endproc
 592              	.LFE128:
 593              		.size	usbPrepareQueuedReceive, .-usbPrepareQueuedReceive
 594              		.section	.text.usbPrepareQueuedTransmit,"ax",%progbits
 595              		.align	2
 596              		.p2align 4,,15
 597              		.global	usbPrepareQueuedTransmit
 598              		.thumb
 599              		.thumb_func
 600              		.type	usbPrepareQueuedTransmit, %function
 601              	usbPrepareQueuedTransmit:
 602              	.LFB129:
 603              		.loc 1 460 0
 604              		.cfi_startproc
 605              		@ args = 0, pretend = 0, frame = 0
 606              		@ frame_needed = 0, uses_anonymous_args = 0
 607              		@ link register save eliminated.
 608              	.LVL60:
 609 0000 70B4     		push	{r4, r5, r6}
 610              		.cfi_def_cfa_offset 12
 611              		.cfi_offset 4, -12
 612              		.cfi_offset 5, -8
 613              		.cfi_offset 6, -4
 614              		.loc 1 461 0
 615 0002 00EB8104 		add	r4, r0, r1, lsl #2
 616              		.loc 1 463 0
 617 0006 0126     		movs	r6, #1
 618              		.loc 1 461 0
 619 0008 E468     		ldr	r4, [r4, #12]
 620 000a 6469     		ldr	r4, [r4, #20]
 621              	.LVL61:
 622              		.loc 1 466 0
 623 000c 0025     		movs	r5, #0
 624              		.loc 1 464 0
 625 000e E260     		str	r2, [r4, #12]
 626              		.loc 1 465 0
 627 0010 6360     		str	r3, [r4, #4]
ARM GAS  /tmp/ccxVrktp.s 			page 12


 628              		.loc 1 463 0
 629 0012 2670     		strb	r6, [r4]
 630              		.loc 1 466 0
 631 0014 A560     		str	r5, [r4, #8]
 632              		.loc 1 469 0
 633 0016 70BC     		pop	{r4, r5, r6}
 634              		.cfi_restore 6
 635              		.cfi_restore 5
 636              		.cfi_restore 4
 637              		.cfi_def_cfa_offset 0
 638              	.LVL62:
 639              		.loc 1 468 0
 640 0018 FFF7FEBF 		b	usb_lld_prepare_transmit
 641              	.LVL63:
 642              		.cfi_endproc
 643              	.LFE129:
 644              		.size	usbPrepareQueuedTransmit, .-usbPrepareQueuedTransmit
 645              		.section	.text.usbStartReceiveI,"ax",%progbits
 646              		.align	2
 647              		.p2align 4,,15
 648              		.global	usbStartReceiveI
 649              		.thumb
 650              		.thumb_func
 651              		.type	usbStartReceiveI, %function
 652              	usbStartReceiveI:
 653              	.LFB130:
 654              		.loc 1 485 0
 655              		.cfi_startproc
 656              		@ args = 0, pretend = 0, frame = 0
 657              		@ frame_needed = 0, uses_anonymous_args = 0
 658              	.LVL64:
 659 0000 70B5     		push	{r4, r5, r6, lr}
 660              		.cfi_def_cfa_offset 16
 661              		.cfi_offset 4, -16
 662              		.cfi_offset 5, -12
 663              		.cfi_offset 6, -8
 664              		.cfi_offset 14, -4
 665              		.loc 1 485 0
 666 0002 0546     		mov	r5, r0
 667 0004 0E46     		mov	r6, r1
 668              		.loc 1 487 0
 669 0006 FFF7FEFF 		bl	chDbgCheckClassI
 670              	.LVL65:
 671              		.loc 1 488 0
 672 000a 8DB1     		cbz	r5, .L69
 673              	.L65:
 674              		.loc 1 490 0
 675 000c 6B89     		ldrh	r3, [r5, #10]
 676 000e 43FA06F0 		asr	r0, r3, r6
 677 0012 10F00104 		ands	r4, r0, #1
 678 0016 01D0     		beq	.L70
 679              		.loc 1 491 0
 680 0018 0120     		movs	r0, #1
 681              		.loc 1 496 0
 682 001a 70BD     		pop	{r4, r5, r6, pc}
 683              	.LVL66:
 684              	.L70:
ARM GAS  /tmp/ccxVrktp.s 			page 13


 685              		.loc 1 493 0
 686 001c 0122     		movs	r2, #1
 687 001e B240     		lsls	r2, r2, r6
 688 0020 1343     		orrs	r3, r3, r2
 689              		.loc 1 494 0
 690 0022 2846     		mov	r0, r5
 691              		.loc 1 493 0
 692 0024 6B81     		strh	r3, [r5, #10]	@ movhi
 693              		.loc 1 494 0
 694 0026 3146     		mov	r1, r6
 695 0028 FFF7FEFF 		bl	usb_lld_start_out
 696              	.LVL67:
 697              		.loc 1 495 0
 698 002c 2046     		mov	r0, r4
 699 002e 70BD     		pop	{r4, r5, r6, pc}
 700              	.LVL68:
 701              	.L69:
 702              		.loc 1 488 0 discriminator 1
 703 0030 0148     		ldr	r0, .L71
 704 0032 FFF7FEFF 		bl	chDbgPanic
 705              	.LVL69:
 706 0036 E9E7     		b	.L65
 707              	.L72:
 708              		.align	2
 709              	.L71:
 710 0038 C4000000 		.word	.LC9
 711              		.cfi_endproc
 712              	.LFE130:
 713              		.size	usbStartReceiveI, .-usbStartReceiveI
 714              		.section	.text.usbStartTransmitI,"ax",%progbits
 715              		.align	2
 716              		.p2align 4,,15
 717              		.global	usbStartTransmitI
 718              		.thumb
 719              		.thumb_func
 720              		.type	usbStartTransmitI, %function
 721              	usbStartTransmitI:
 722              	.LFB131:
 723              		.loc 1 512 0
 724              		.cfi_startproc
 725              		@ args = 0, pretend = 0, frame = 0
 726              		@ frame_needed = 0, uses_anonymous_args = 0
 727              	.LVL70:
 728 0000 70B5     		push	{r4, r5, r6, lr}
 729              		.cfi_def_cfa_offset 16
 730              		.cfi_offset 4, -16
 731              		.cfi_offset 5, -12
 732              		.cfi_offset 6, -8
 733              		.cfi_offset 14, -4
 734              		.loc 1 512 0
 735 0002 0546     		mov	r5, r0
 736 0004 0E46     		mov	r6, r1
 737              		.loc 1 514 0
 738 0006 FFF7FEFF 		bl	chDbgCheckClassI
 739              	.LVL71:
 740              		.loc 1 515 0
 741 000a 8DB1     		cbz	r5, .L78
ARM GAS  /tmp/ccxVrktp.s 			page 14


 742              	.L74:
 743              		.loc 1 517 0
 744 000c 2B89     		ldrh	r3, [r5, #8]
 745 000e 43FA06F0 		asr	r0, r3, r6
 746 0012 10F00104 		ands	r4, r0, #1
 747 0016 01D0     		beq	.L79
 748              		.loc 1 518 0
 749 0018 0120     		movs	r0, #1
 750              		.loc 1 523 0
 751 001a 70BD     		pop	{r4, r5, r6, pc}
 752              	.LVL72:
 753              	.L79:
 754              		.loc 1 520 0
 755 001c 0122     		movs	r2, #1
 756 001e B240     		lsls	r2, r2, r6
 757 0020 1343     		orrs	r3, r3, r2
 758              		.loc 1 521 0
 759 0022 2846     		mov	r0, r5
 760              		.loc 1 520 0
 761 0024 2B81     		strh	r3, [r5, #8]	@ movhi
 762              		.loc 1 521 0
 763 0026 3146     		mov	r1, r6
 764 0028 FFF7FEFF 		bl	usb_lld_start_in
 765              	.LVL73:
 766              		.loc 1 522 0
 767 002c 2046     		mov	r0, r4
 768 002e 70BD     		pop	{r4, r5, r6, pc}
 769              	.LVL74:
 770              	.L78:
 771              		.loc 1 515 0 discriminator 1
 772 0030 0148     		ldr	r0, .L80
 773 0032 FFF7FEFF 		bl	chDbgPanic
 774              	.LVL75:
 775 0036 E9E7     		b	.L74
 776              	.L81:
 777              		.align	2
 778              	.L80:
 779 0038 DC000000 		.word	.LC10
 780              		.cfi_endproc
 781              	.LFE131:
 782              		.size	usbStartTransmitI, .-usbStartTransmitI
 783              		.section	.text.usbStallReceiveI,"ax",%progbits
 784              		.align	2
 785              		.p2align 4,,15
 786              		.global	usbStallReceiveI
 787              		.thumb
 788              		.thumb_func
 789              		.type	usbStallReceiveI, %function
 790              	usbStallReceiveI:
 791              	.LFB132:
 792              		.loc 1 537 0
 793              		.cfi_startproc
 794              		@ args = 0, pretend = 0, frame = 0
 795              		@ frame_needed = 0, uses_anonymous_args = 0
 796              	.LVL76:
 797 0000 70B5     		push	{r4, r5, r6, lr}
 798              		.cfi_def_cfa_offset 16
ARM GAS  /tmp/ccxVrktp.s 			page 15


 799              		.cfi_offset 4, -16
 800              		.cfi_offset 5, -12
 801              		.cfi_offset 6, -8
 802              		.cfi_offset 14, -4
 803              		.loc 1 537 0
 804 0002 0546     		mov	r5, r0
 805 0004 0E46     		mov	r6, r1
 806              		.loc 1 539 0
 807 0006 FFF7FEFF 		bl	chDbgCheckClassI
 808              	.LVL77:
 809              		.loc 1 540 0
 810 000a 65B1     		cbz	r5, .L87
 811              	.L83:
 812              		.loc 1 542 0
 813 000c 6889     		ldrh	r0, [r5, #10]
 814 000e 3041     		asrs	r0, r0, r6
 815 0010 10F00104 		ands	r4, r0, #1
 816 0014 01D0     		beq	.L88
 817              		.loc 1 543 0
 818 0016 0120     		movs	r0, #1
 819              		.loc 1 547 0
 820 0018 70BD     		pop	{r4, r5, r6, pc}
 821              	.LVL78:
 822              	.L88:
 823              		.loc 1 545 0
 824 001a 2846     		mov	r0, r5
 825 001c 3146     		mov	r1, r6
 826 001e FFF7FEFF 		bl	usb_lld_stall_out
 827              	.LVL79:
 828              		.loc 1 546 0
 829 0022 2046     		mov	r0, r4
 830 0024 70BD     		pop	{r4, r5, r6, pc}
 831              	.LVL80:
 832              	.L87:
 833              		.loc 1 540 0 discriminator 1
 834 0026 0248     		ldr	r0, .L89
 835 0028 FFF7FEFF 		bl	chDbgPanic
 836              	.LVL81:
 837 002c EEE7     		b	.L83
 838              	.L90:
 839 002e 00BF     		.align	2
 840              	.L89:
 841 0030 F4000000 		.word	.LC11
 842              		.cfi_endproc
 843              	.LFE132:
 844              		.size	usbStallReceiveI, .-usbStallReceiveI
 845              		.section	.text.usbStallTransmitI,"ax",%progbits
 846              		.align	2
 847              		.p2align 4,,15
 848              		.global	usbStallTransmitI
 849              		.thumb
 850              		.thumb_func
 851              		.type	usbStallTransmitI, %function
 852              	usbStallTransmitI:
 853              	.LFB133:
 854              		.loc 1 561 0
 855              		.cfi_startproc
ARM GAS  /tmp/ccxVrktp.s 			page 16


 856              		@ args = 0, pretend = 0, frame = 0
 857              		@ frame_needed = 0, uses_anonymous_args = 0
 858              	.LVL82:
 859 0000 70B5     		push	{r4, r5, r6, lr}
 860              		.cfi_def_cfa_offset 16
 861              		.cfi_offset 4, -16
 862              		.cfi_offset 5, -12
 863              		.cfi_offset 6, -8
 864              		.cfi_offset 14, -4
 865              		.loc 1 561 0
 866 0002 0546     		mov	r5, r0
 867 0004 0E46     		mov	r6, r1
 868              		.loc 1 563 0
 869 0006 FFF7FEFF 		bl	chDbgCheckClassI
 870              	.LVL83:
 871              		.loc 1 564 0
 872 000a 65B1     		cbz	r5, .L96
 873              	.L92:
 874              		.loc 1 566 0
 875 000c 2889     		ldrh	r0, [r5, #8]
 876 000e 3041     		asrs	r0, r0, r6
 877 0010 10F00104 		ands	r4, r0, #1
 878 0014 01D0     		beq	.L97
 879              		.loc 1 567 0
 880 0016 0120     		movs	r0, #1
 881              		.loc 1 571 0
 882 0018 70BD     		pop	{r4, r5, r6, pc}
 883              	.LVL84:
 884              	.L97:
 885              		.loc 1 569 0
 886 001a 2846     		mov	r0, r5
 887 001c 3146     		mov	r1, r6
 888 001e FFF7FEFF 		bl	usb_lld_stall_in
 889              	.LVL85:
 890              		.loc 1 570 0
 891 0022 2046     		mov	r0, r4
 892 0024 70BD     		pop	{r4, r5, r6, pc}
 893              	.LVL86:
 894              	.L96:
 895              		.loc 1 564 0 discriminator 1
 896 0026 0248     		ldr	r0, .L98
 897 0028 FFF7FEFF 		bl	chDbgPanic
 898              	.LVL87:
 899 002c EEE7     		b	.L92
 900              	.L99:
 901 002e 00BF     		.align	2
 902              	.L98:
 903 0030 0C010000 		.word	.LC12
 904              		.cfi_endproc
 905              	.LFE133:
 906              		.size	usbStallTransmitI, .-usbStallTransmitI
 907              		.section	.text._usb_reset,"ax",%progbits
 908              		.align	2
 909              		.p2align 4,,15
 910              		.global	_usb_reset
 911              		.thumb
 912              		.thumb_func
ARM GAS  /tmp/ccxVrktp.s 			page 17


 913              		.type	_usb_reset, %function
 914              	_usb_reset:
 915              	.LFB134:
 916              		.loc 1 582 0
 917              		.cfi_startproc
 918              		@ args = 0, pretend = 0, frame = 0
 919              		@ frame_needed = 0, uses_anonymous_args = 0
 920              		@ link register save eliminated.
 921              	.LVL88:
 922              		.loc 1 586 0
 923 0000 0022     		movs	r2, #0
 924              		.loc 1 585 0
 925 0002 0221     		movs	r1, #2
 926 0004 0170     		strb	r1, [r0]
 927              		.loc 1 586 0
 928 0006 A0F84C20 		strh	r2, [r0, #76]	@ movhi
 929              		.loc 1 587 0
 930 000a 80F84E20 		strb	r2, [r0, #78]
 931              		.loc 1 588 0
 932 000e 80F84F20 		strb	r2, [r0, #79]
 933              		.loc 1 589 0
 934 0012 0281     		strh	r2, [r0, #8]	@ movhi
 935              		.loc 1 590 0
 936 0014 4281     		strh	r2, [r0, #10]	@ movhi
 937              	.LVL89:
 938              		.loc 1 594 0
 939 0016 C260     		str	r2, [r0, #12]
 940              	.LVL90:
 941 0018 0261     		str	r2, [r0, #16]
 942              	.LVL91:
 943 001a 4261     		str	r2, [r0, #20]
 944              	.LVL92:
 945 001c 8261     		str	r2, [r0, #24]
 946              	.LVL93:
 947              		.loc 1 597 0
 948 001e 80F83420 		strb	r2, [r0, #52]
 949              		.loc 1 600 0
 950 0022 FFF7FEBF 		b	usb_lld_reset
 951              	.LVL94:
 952              		.cfi_endproc
 953              	.LFE134:
 954              		.size	_usb_reset, .-_usb_reset
 955 0026 00BF     		.section	.text._usb_ep0setup,"ax",%progbits
 956              		.align	2
 957              		.p2align 4,,15
 958              		.global	_usb_ep0setup
 959              		.thumb
 960              		.thumb_func
 961              		.type	_usb_ep0setup, %function
 962              	_usb_ep0setup:
 963              	.LFB135:
 964              		.loc 1 613 0
 965              		.cfi_startproc
 966              		@ args = 0, pretend = 0, frame = 0
 967              		@ frame_needed = 0, uses_anonymous_args = 0
 968              	.LVL95:
 969 0000 F8B5     		push	{r3, r4, r5, r6, r7, lr}
ARM GAS  /tmp/ccxVrktp.s 			page 18


 970              		.cfi_def_cfa_offset 24
 971              		.cfi_offset 3, -24
 972              		.cfi_offset 4, -20
 973              		.cfi_offset 5, -16
 974              		.cfi_offset 6, -12
 975              		.cfi_offset 7, -8
 976              		.cfi_offset 14, -4
 977              		.loc 1 616 0
 978 0002 0023     		movs	r3, #0
 979              		.loc 1 613 0
 980 0004 0446     		mov	r4, r0
 981              		.loc 1 616 0
 982 0006 80F83430 		strb	r3, [r0, #52]
 983              		.loc 1 617 0
 984 000a 00F14402 		add	r2, r0, #68
 985 000e FFF7FEFF 		bl	usb_lld_read_setup
 986              	.LVL96:
 987              		.loc 1 621 0
 988 0012 6368     		ldr	r3, [r4, #4]
 989 0014 9B68     		ldr	r3, [r3, #8]
 990 0016 8BB3     		cbz	r3, .L106
 991              		.loc 1 622 0 discriminator 1
 992 0018 2046     		mov	r0, r4
 993 001a 9847     		blx	r3
 994              	.LVL97:
 995              		.loc 1 621 0 discriminator 1
 996 001c 70B3     		cbz	r0, .L106
 997 001e E56B     		ldr	r5, [r4, #60]
 998 0020 94F84430 		ldrb	r3, [r4, #68]	@ zero_extendqisi2
 999              	.L145:
 1000              		.loc 1 646 0
 1001 0024 94F84B10 		ldrb	r1, [r4, #75]	@ zero_extendqisi2
 1002 0028 94F84A20 		ldrb	r2, [r4, #74]	@ zero_extendqisi2
 1003 002c 42EA0122 		orr	r2, r2, r1, lsl #8
 1004              	.LVL98:
 1005              		.loc 1 648 0
 1006 0030 AA42     		cmp	r2, r5
 1007              		.loc 1 649 0
 1008 0032 3CBF     		itt	cc
 1009 0034 E263     		strcc	r2, [r4, #60]
 1010 0036 1546     		movcc	r5, r2
 1011              		.loc 1 650 0
 1012 0038 13F0800F 		tst	r3, #128
 1013              	.LBB54:
 1014              	.LBB55:
 1015              		.loc 1 406 0
 1016 003c E368     		ldr	r3, [r4, #12]
 1017              	.LBE55:
 1018              	.LBE54:
 1019              		.loc 1 650 0
 1020 003e 40F09380 		bne	.L171
 1021              		.loc 1 676 0
 1022 0042 002D     		cmp	r5, #0
 1023 0044 73D1     		bne	.L172
 1024              	.LBB59:
 1025              	.LBB60:
 1026              		.loc 1 406 0
ARM GAS  /tmp/ccxVrktp.s 			page 19


 1027 0046 5B69     		ldr	r3, [r3, #20]
 1028              	.LBE60:
 1029              	.LBE59:
 1030              		.loc 1 687 0
 1031 0048 0522     		movs	r2, #5
 1032              	.LVL99:
 1033 004a 84F83420 		strb	r2, [r4, #52]
 1034              	.LVL100:
 1035              	.LBB62:
 1036              	.LBB61:
 1037              		.loc 1 413 0
 1038 004e 2046     		mov	r0, r4
 1039              		.loc 1 408 0
 1040 0050 1D70     		strb	r5, [r3]
 1041              	.LVL101:
 1042              		.loc 1 409 0
 1043 0052 DD60     		str	r5, [r3, #12]
 1044              		.loc 1 410 0
 1045 0054 5D60     		str	r5, [r3, #4]
 1046              		.loc 1 411 0
 1047 0056 9D60     		str	r5, [r3, #8]
 1048              		.loc 1 413 0
 1049 0058 2946     		mov	r1, r5
 1050 005a FFF7FEFF 		bl	usb_lld_prepare_transmit
 1051              	.LVL102:
 1052              	.LBE61:
 1053              	.LBE62:
 1054              	.LBB63:
 1055              		.loc 1 690 0
 1056 005e 2023     		movs	r3, #32
 1057              	@ 690 "../../ChibiOS_2.6.5/os/hal/src/usb.c" 1
 1058 0060 83F31188 		msr     BASEPRI, r3
 1059              	@ 0 "" 2
 1060              		.thumb
 1061              	.LBE63:
 1062 0064 FFF7FEFF 		bl	dbg_check_lock_from_isr
 1063              	.LVL103:
 1064              		.loc 1 691 0
 1065 0068 2946     		mov	r1, r5
 1066 006a 2046     		mov	r0, r4
 1067 006c FFF7FEFF 		bl	usbStartTransmitI
 1068              	.LVL104:
 1069              		.loc 1 692 0
 1070 0070 FFF7FEFF 		bl	dbg_check_unlock_from_isr
 1071              	.LVL105:
 1072              	.LBB64:
 1073 0074 2B46     		mov	r3, r5
 1074              	@ 692 "../../ChibiOS_2.6.5/os/hal/src/usb.c" 1
 1075 0076 83F31188 		msr     BASEPRI, r3
 1076              	@ 0 "" 2
 1077              		.thumb
 1078 007a F8BD     		pop	{r3, r4, r5, r6, r7, pc}
 1079              	.LVL106:
 1080              	.L106:
 1081              	.LBE64:
 1082              		.loc 1 625 0
 1083 007c 94F84430 		ldrb	r3, [r4, #68]	@ zero_extendqisi2
ARM GAS  /tmp/ccxVrktp.s 			page 20


 1084 0080 13F06007 		ands	r7, r3, #96
 1085 0084 11D0     		beq	.L173
 1086              	.L103:
 1087              		.loc 1 630 0
 1088 0086 2046     		mov	r0, r4
 1089 0088 0021     		movs	r1, #0
 1090 008a FFF7FEFF 		bl	usb_lld_stall_in
 1091              	.LVL107:
 1092              		.loc 1 631 0
 1093 008e 2046     		mov	r0, r4
 1094 0090 0021     		movs	r1, #0
 1095 0092 FFF7FEFF 		bl	usb_lld_stall_out
 1096              	.LVL108:
 1097              		.loc 1 632 0
 1098 0096 6368     		ldr	r3, [r4, #4]
 1099 0098 1B68     		ldr	r3, [r3]
 1100 009a 13B1     		cbz	r3, .L139
 1101              		.loc 1 632 0 is_stmt 0 discriminator 1
 1102 009c 2046     		mov	r0, r4
 1103 009e 0521     		movs	r1, #5
 1104 00a0 9847     		blx	r3
 1105              	.LVL109:
 1106              	.L139:
 1107              		.loc 1 633 0 is_stmt 1
 1108 00a2 0623     		movs	r3, #6
 1109 00a4 84F83430 		strb	r3, [r4, #52]
 1110              		.loc 1 634 0
 1111 00a8 F8BD     		pop	{r3, r4, r5, r6, r7, pc}
 1112              	.LVL110:
 1113              	.L173:
 1114              	.LBB65:
 1115              	.LBB66:
 1116              		.loc 1 95 0
 1117 00aa 94F84550 		ldrb	r5, [r4, #69]	@ zero_extendqisi2
 1118              		.loc 1 93 0
 1119 00ae 03F07F02 		and	r2, r3, #127
 1120              		.loc 1 94 0
 1121 00b2 42EA0526 		orr	r6, r2, r5, lsl #8
 1122              		.loc 1 93 0
 1123 00b6 B6F5407F 		cmp	r6, #768
 1124 00ba 00F01081 		beq	.L108
 1125 00be 18DD     		ble	.L174
 1126 00c0 B6F5C06F 		cmp	r6, #1536
 1127 00c4 00F0F280 		beq	.L116
 1128 00c8 40F38780 		ble	.L175
 1129 00cc B6F5106F 		cmp	r6, #2304
 1130 00d0 00F09680 		beq	.L120
 1131 00d4 40F60242 		movw	r2, #3074
 1132 00d8 9642     		cmp	r6, r2
 1133 00da 00F01381 		beq	.L113
 1134 00de B6F5006F 		cmp	r6, #2048
 1135 00e2 D0D1     		bne	.L103
 1136              		.loc 1 142 0
 1137 00e4 04F14F02 		add	r2, r4, #79
 1138 00e8 0125     		movs	r5, #1
 1139 00ea 2764     		str	r7, [r4, #64]
 1140 00ec A263     		str	r2, [r4, #56]
ARM GAS  /tmp/ccxVrktp.s 			page 21


 1141 00ee E563     		str	r5, [r4, #60]
 1142 00f0 98E7     		b	.L145
 1143              	.L174:
 1144              		.loc 1 93 0
 1145 00f2 022E     		cmp	r6, #2
 1146 00f4 00F0C380 		beq	.L110
 1147 00f8 40F3B880 		ble	.L176
 1148 00fc B6F5807F 		cmp	r6, #256
 1149 0100 00F0A480 		beq	.L114
 1150 0104 B6F5817F 		cmp	r6, #258
 1151 0108 BDD1     		bne	.L103
 1152              		.loc 1 188 0
 1153 010a 94F84620 		ldrb	r2, [r4, #70]	@ zero_extendqisi2
 1154 010e 002A     		cmp	r2, #0
 1155 0110 B9D1     		bne	.L103
 1156              		.loc 1 191 0
 1157 0112 94F84820 		ldrb	r2, [r4, #72]	@ zero_extendqisi2
 1158 0116 12F00F01 		ands	r1, r2, #15
 1159 011a 6CD0     		beq	.L137
 1160              		.loc 1 192 0
 1161 011c 1206     		lsls	r2, r2, #24
 1162              		.loc 1 193 0
 1163 011e 2046     		mov	r0, r4
 1164              		.loc 1 192 0
 1165 0120 00F11881 		bmi	.L177
 1166              	.LVL111:
 1167              		.loc 1 195 0
 1168 0124 FFF7FEFF 		bl	usb_lld_clear_out
 1169              	.LVL112:
 1170 0128 94F84430 		ldrb	r3, [r4, #68]	@ zero_extendqisi2
 1171 012c 63E0     		b	.L137
 1172              	.LVL113:
 1173              	.L172:
 1174              	.LBE66:
 1175              	.LBE65:
 1176              	.LBB70:
 1177              	.LBB71:
 1178              		.loc 1 380 0
 1179 012e 9B69     		ldr	r3, [r3, #24]
 1180              	.LBE71:
 1181              	.LBE70:
 1182              		.loc 1 679 0
 1183 0130 A26B     		ldr	r2, [r4, #56]
 1184              	.LVL114:
 1185              	.LBB74:
 1186              	.LBB72:
 1187              		.loc 1 382 0
 1188 0132 0026     		movs	r6, #0
 1189              	.LBE72:
 1190              	.LBE74:
 1191              		.loc 1 678 0
 1192 0134 0421     		movs	r1, #4
 1193              	.LVL115:
 1194 0136 84F83410 		strb	r1, [r4, #52]
 1195              	.LBB75:
 1196              	.LBB73:
 1197              		.loc 1 387 0
ARM GAS  /tmp/ccxVrktp.s 			page 22


 1198 013a 2046     		mov	r0, r4
 1199              		.loc 1 383 0
 1200 013c DA60     		str	r2, [r3, #12]
 1201              	.LVL116:
 1202              		.loc 1 384 0
 1203 013e 5D60     		str	r5, [r3, #4]
 1204              		.loc 1 382 0
 1205 0140 1E70     		strb	r6, [r3]
 1206              		.loc 1 385 0
 1207 0142 9E60     		str	r6, [r3, #8]
 1208              		.loc 1 387 0
 1209 0144 3146     		mov	r1, r6
 1210 0146 FFF7FEFF 		bl	usb_lld_prepare_receive
 1211              	.LVL117:
 1212              	.LBE73:
 1213              	.LBE75:
 1214              	.LBB76:
 1215              		.loc 1 680 0
 1216 014a 2023     		movs	r3, #32
 1217              	@ 680 "../../ChibiOS_2.6.5/os/hal/src/usb.c" 1
 1218 014c 83F31188 		msr     BASEPRI, r3
 1219              	@ 0 "" 2
 1220              		.thumb
 1221              	.LBE76:
 1222 0150 FFF7FEFF 		bl	dbg_check_lock_from_isr
 1223              	.LVL118:
 1224              		.loc 1 681 0
 1225 0154 3146     		mov	r1, r6
 1226 0156 2046     		mov	r0, r4
 1227 0158 FFF7FEFF 		bl	usbStartReceiveI
 1228              	.LVL119:
 1229              		.loc 1 682 0
 1230 015c FFF7FEFF 		bl	dbg_check_unlock_from_isr
 1231              	.LVL120:
 1232              	.LBB77:
 1233 0160 3346     		mov	r3, r6
 1234              	@ 682 "../../ChibiOS_2.6.5/os/hal/src/usb.c" 1
 1235 0162 83F31188 		msr     BASEPRI, r3
 1236              	@ 0 "" 2
 1237              		.thumb
 1238              	.LBE77:
 1239 0166 F8BD     		pop	{r3, r4, r5, r6, r7, pc}
 1240              	.LVL121:
 1241              	.L171:
 1242              		.loc 1 652 0
 1243 0168 E5B1     		cbz	r5, .L143
 1244              	.LBB78:
 1245              	.LBB56:
 1246              		.loc 1 406 0
 1247 016a 5B69     		ldr	r3, [r3, #20]
 1248              	.LBE56:
 1249              	.LBE78:
 1250              		.loc 1 655 0
 1251 016c A26B     		ldr	r2, [r4, #56]
 1252              	.LVL122:
 1253              	.LBB79:
 1254              	.LBB57:
ARM GAS  /tmp/ccxVrktp.s 			page 23


 1255              		.loc 1 408 0
 1256 016e 0026     		movs	r6, #0
 1257              	.LBE57:
 1258              	.LBE79:
 1259              		.loc 1 654 0
 1260 0170 0121     		movs	r1, #1
 1261              	.LVL123:
 1262 0172 84F83410 		strb	r1, [r4, #52]
 1263              	.LBB80:
 1264              	.LBB58:
 1265              		.loc 1 413 0
 1266 0176 2046     		mov	r0, r4
 1267              		.loc 1 409 0
 1268 0178 DA60     		str	r2, [r3, #12]
 1269              	.LVL124:
 1270              		.loc 1 410 0
 1271 017a 5D60     		str	r5, [r3, #4]
 1272              		.loc 1 408 0
 1273 017c 1E70     		strb	r6, [r3]
 1274              		.loc 1 411 0
 1275 017e 9E60     		str	r6, [r3, #8]
 1276              		.loc 1 413 0
 1277 0180 3146     		mov	r1, r6
 1278 0182 FFF7FEFF 		bl	usb_lld_prepare_transmit
 1279              	.LVL125:
 1280              	.LBE58:
 1281              	.LBE80:
 1282              	.LBB81:
 1283              		.loc 1 656 0
 1284 0186 2023     		movs	r3, #32
 1285              	@ 656 "../../ChibiOS_2.6.5/os/hal/src/usb.c" 1
 1286 0188 83F31188 		msr     BASEPRI, r3
 1287              	@ 0 "" 2
 1288              		.thumb
 1289              	.LBE81:
 1290 018c FFF7FEFF 		bl	dbg_check_lock_from_isr
 1291              	.LVL126:
 1292              		.loc 1 657 0
 1293 0190 3146     		mov	r1, r6
 1294 0192 2046     		mov	r0, r4
 1295 0194 FFF7FEFF 		bl	usbStartTransmitI
 1296              	.LVL127:
 1297              		.loc 1 658 0
 1298 0198 FFF7FEFF 		bl	dbg_check_unlock_from_isr
 1299              	.LVL128:
 1300              	.LBB82:
 1301 019c 3346     		mov	r3, r6
 1302              	@ 658 "../../ChibiOS_2.6.5/os/hal/src/usb.c" 1
 1303 019e 83F31188 		msr     BASEPRI, r3
 1304              	@ 0 "" 2
 1305              		.thumb
 1306              	.LBE82:
 1307 01a2 F8BD     		pop	{r3, r4, r5, r6, r7, pc}
 1308              	.LVL129:
 1309              	.L143:
 1310              	.LBB83:
 1311              	.LBB84:
ARM GAS  /tmp/ccxVrktp.s 			page 24


 1312              		.loc 1 380 0
 1313 01a4 9B69     		ldr	r3, [r3, #24]
 1314              	.LBE84:
 1315              	.LBE83:
 1316              		.loc 1 663 0
 1317 01a6 0322     		movs	r2, #3
 1318              	.LVL130:
 1319 01a8 84F83420 		strb	r2, [r4, #52]
 1320              	.LVL131:
 1321              	.LBB86:
 1322              	.LBB85:
 1323              		.loc 1 387 0
 1324 01ac 2046     		mov	r0, r4
 1325              		.loc 1 382 0
 1326 01ae 1D70     		strb	r5, [r3]
 1327              	.LVL132:
 1328              		.loc 1 383 0
 1329 01b0 DD60     		str	r5, [r3, #12]
 1330              		.loc 1 384 0
 1331 01b2 5D60     		str	r5, [r3, #4]
 1332              		.loc 1 385 0
 1333 01b4 9D60     		str	r5, [r3, #8]
 1334              		.loc 1 387 0
 1335 01b6 2946     		mov	r1, r5
 1336 01b8 FFF7FEFF 		bl	usb_lld_prepare_receive
 1337              	.LVL133:
 1338              	.LBE85:
 1339              	.LBE86:
 1340              	.LBB87:
 1341              		.loc 1 666 0
 1342 01bc 2023     		movs	r3, #32
 1343              	@ 666 "../../ChibiOS_2.6.5/os/hal/src/usb.c" 1
 1344 01be 83F31188 		msr     BASEPRI, r3
 1345              	@ 0 "" 2
 1346              		.thumb
 1347              	.LBE87:
 1348 01c2 FFF7FEFF 		bl	dbg_check_lock_from_isr
 1349              	.LVL134:
 1350              		.loc 1 667 0
 1351 01c6 2946     		mov	r1, r5
 1352 01c8 2046     		mov	r0, r4
 1353 01ca FFF7FEFF 		bl	usbStartReceiveI
 1354              	.LVL135:
 1355              		.loc 1 668 0
 1356 01ce FFF7FEFF 		bl	dbg_check_unlock_from_isr
 1357              	.LVL136:
 1358              	.LBB88:
 1359 01d2 2B46     		mov	r3, r5
 1360              	@ 668 "../../ChibiOS_2.6.5/os/hal/src/usb.c" 1
 1361 01d4 83F31188 		msr     BASEPRI, r3
 1362              	@ 0 "" 2
 1363              		.thumb
 1364 01d8 F8BD     		pop	{r3, r4, r5, r6, r7, pc}
 1365              	.LVL137:
 1366              	.L175:
 1367              	.LBE88:
 1368              	.LBB89:
ARM GAS  /tmp/ccxVrktp.s 			page 25


 1369              	.LBB69:
 1370              		.loc 1 93 0
 1371 01da 40F20232 		movw	r2, #770
 1372 01de 9642     		cmp	r6, r2
 1373 01e0 21D0     		beq	.L118
 1374 01e2 B6F5A06F 		cmp	r6, #1280
 1375 01e6 7FF44EAF 		bne	.L103
 1376              		.loc 1 123 0
 1377 01ea B4F84420 		ldrh	r2, [r4, #68]
 1378 01ee B2F5A06F 		cmp	r2, #1280
 1379 01f2 00F09D80 		beq	.L178
 1380              	.L137:
 1381              		.loc 1 210 0
 1382 01f6 0025     		movs	r5, #0
 1383 01f8 A563     		str	r5, [r4, #56]
 1384 01fa E563     		str	r5, [r4, #60]
 1385 01fc 2564     		str	r5, [r4, #64]
 1386 01fe 11E7     		b	.L145
 1387              	.L120:
 1388              		.loc 1 146 0
 1389 0200 94F84620 		ldrb	r2, [r4, #70]	@ zero_extendqisi2
 1390 0204 84F84F20 		strb	r2, [r4, #79]
 1391              		.loc 1 147 0
 1392 0208 002A     		cmp	r2, #0
 1393 020a 40F08280 		bne	.L127
 1394              		.loc 1 148 0
 1395 020e 0322     		movs	r2, #3
 1396 0210 2270     		strb	r2, [r4]
 1397              	.L128:
 1398              		.loc 1 151 0
 1399 0212 6268     		ldr	r2, [r4, #4]
 1400 0214 1268     		ldr	r2, [r2]
 1401 0216 002A     		cmp	r2, #0
 1402 0218 EDD0     		beq	.L137
 1403 021a 2046     		mov	r0, r4
 1404 021c 0221     		movs	r1, #2
 1405 021e 9047     		blx	r2
 1406              	.LVL138:
 1407 0220 94F84430 		ldrb	r3, [r4, #68]	@ zero_extendqisi2
 1408 0224 E7E7     		b	.L137
 1409              	.L118:
 1410              		.loc 1 201 0
 1411 0226 94F84620 		ldrb	r2, [r4, #70]	@ zero_extendqisi2
 1412 022a 002A     		cmp	r2, #0
 1413 022c 7FF42BAF 		bne	.L103
 1414              		.loc 1 204 0
 1415 0230 94F84820 		ldrb	r2, [r4, #72]	@ zero_extendqisi2
 1416 0234 12F00F01 		ands	r1, r2, #15
 1417 0238 DDD0     		beq	.L137
 1418              		.loc 1 205 0
 1419 023a 1306     		lsls	r3, r2, #24
 1420              		.loc 1 206 0
 1421 023c 2046     		mov	r0, r4
 1422              		.loc 1 205 0
 1423 023e 00F18E80 		bmi	.L179
 1424              	.LVL139:
 1425              		.loc 1 208 0
ARM GAS  /tmp/ccxVrktp.s 			page 26


 1426 0242 FFF7FEFF 		bl	usb_lld_stall_out
 1427              	.LVL140:
 1428 0246 94F84430 		ldrb	r3, [r4, #68]	@ zero_extendqisi2
 1429 024a D4E7     		b	.L137
 1430              	.L114:
 1431              		.loc 1 103 0
 1432 024c 94F84620 		ldrb	r2, [r4, #70]	@ zero_extendqisi2
 1433 0250 012A     		cmp	r2, #1
 1434 0252 7FF418AF 		bne	.L103
 1435              		.loc 1 104 0
 1436 0256 B4F84C20 		ldrh	r2, [r4, #76]
 1437              		.loc 1 105 0
 1438 025a A763     		str	r7, [r4, #56]
 1439              		.loc 1 104 0
 1440 025c 22F00202 		bic	r2, r2, #2
 1441              		.loc 1 105 0
 1442 0260 E763     		str	r7, [r4, #60]
 1443 0262 2764     		str	r7, [r4, #64]
 1444 0264 3D46     		mov	r5, r7
 1445              		.loc 1 104 0
 1446 0266 A4F84C20 		strh	r2, [r4, #76]	@ movhi
 1447 026a DBE6     		b	.L145
 1448              	.L176:
 1449              		.loc 1 93 0
 1450 026c 002E     		cmp	r6, #0
 1451 026e 46D1     		bne	.L180
 1452              		.loc 1 98 0
 1453 0270 04F14C02 		add	r2, r4, #76
 1454 0274 0225     		movs	r5, #2
 1455 0276 2664     		str	r6, [r4, #64]
 1456 0278 A263     		str	r2, [r4, #56]
 1457 027a E563     		str	r5, [r4, #60]
 1458 027c D2E6     		b	.L145
 1459              	.L110:
 1460              		.loc 1 162 0
 1461 027e 94F84810 		ldrb	r1, [r4, #72]	@ zero_extendqisi2
 1462 0282 11F0800F 		tst	r1, #128
 1463              		.loc 1 163 0
 1464 0286 2046     		mov	r0, r4
 1465 0288 01F00F01 		and	r1, r1, #15
 1466              		.loc 1 162 0
 1467 028c 44D1     		bne	.L181
 1468              	.LVL141:
 1469              		.loc 1 175 0
 1470 028e FFF7FEFF 		bl	usb_lld_get_status_out
 1471              	.LVL142:
 1472 0292 0128     		cmp	r0, #1
 1473 0294 44D0     		beq	.L133
 1474              	.L169:
 1475 0296 0228     		cmp	r0, #2
 1476 0298 7FF4F5AE 		bne	.L103
 1477              		.loc 1 180 0
 1478 029c 324B     		ldr	r3, .L182
 1479 029e A363     		str	r3, [r4, #56]
 1480 02a0 E063     		str	r0, [r4, #60]
 1481 02a2 2764     		str	r7, [r4, #64]
 1482 02a4 0546     		mov	r5, r0
ARM GAS  /tmp/ccxVrktp.s 			page 27


 1483 02a6 94F84430 		ldrb	r3, [r4, #68]	@ zero_extendqisi2
 1484 02aa BBE6     		b	.L145
 1485              	.L116:
 1486              		.loc 1 133 0
 1487 02ac 6268     		ldr	r2, [r4, #4]
 1488              		.loc 1 135 0
 1489 02ae 94F84900 		ldrb	r0, [r4, #73]	@ zero_extendqisi2
 1490              		.loc 1 133 0
 1491 02b2 94F84830 		ldrb	r3, [r4, #72]	@ zero_extendqisi2
 1492 02b6 5568     		ldr	r5, [r2, #4]
 1493 02b8 94F84710 		ldrb	r1, [r4, #71]	@ zero_extendqisi2
 1494 02bc 94F84620 		ldrb	r2, [r4, #70]	@ zero_extendqisi2
 1495 02c0 43EA0023 		orr	r3, r3, r0, lsl #8
 1496 02c4 2046     		mov	r0, r4
 1497 02c6 A847     		blx	r5
 1498              	.LVL143:
 1499              		.loc 1 136 0
 1500 02c8 0028     		cmp	r0, #0
 1501 02ca 3FF4DCAE 		beq	.L103
 1502              		.loc 1 138 0
 1503 02ce 4368     		ldr	r3, [r0, #4]
 1504 02d0 0568     		ldr	r5, [r0]
 1505 02d2 E563     		str	r5, [r4, #60]
 1506 02d4 A363     		str	r3, [r4, #56]
 1507 02d6 2764     		str	r7, [r4, #64]
 1508 02d8 94F84430 		ldrb	r3, [r4, #68]	@ zero_extendqisi2
 1509 02dc A2E6     		b	.L145
 1510              	.LVL144:
 1511              	.L108:
 1512              		.loc 1 112 0
 1513 02de 94F84620 		ldrb	r2, [r4, #70]	@ zero_extendqisi2
 1514 02e2 012A     		cmp	r2, #1
 1515 02e4 7FF4CFAE 		bne	.L103
 1516              		.loc 1 113 0
 1517 02e8 B4F84C20 		ldrh	r2, [r4, #76]
 1518              		.loc 1 114 0
 1519 02ec A763     		str	r7, [r4, #56]
 1520              		.loc 1 113 0
 1521 02ee 42F00202 		orr	r2, r2, #2
 1522              		.loc 1 114 0
 1523 02f2 E763     		str	r7, [r4, #60]
 1524 02f4 2764     		str	r7, [r4, #64]
 1525 02f6 3D46     		mov	r5, r7
 1526              		.loc 1 113 0
 1527 02f8 A4F84C20 		strh	r2, [r4, #76]	@ movhi
 1528 02fc 92E6     		b	.L145
 1529              	.L180:
 1530              		.loc 1 93 0
 1531 02fe 012E     		cmp	r6, #1
 1532 0300 7FF4C1AE 		bne	.L103
 1533              	.L113:
 1534              		.loc 1 158 0
 1535 0304 194A     		ldr	r2, .L182+4
 1536 0306 A263     		str	r2, [r4, #56]
 1537 0308 0225     		movs	r5, #2
 1538 030a 0022     		movs	r2, #0
 1539 030c E563     		str	r5, [r4, #60]
ARM GAS  /tmp/ccxVrktp.s 			page 28


 1540 030e 2264     		str	r2, [r4, #64]
 1541 0310 88E6     		b	.L145
 1542              	.L127:
 1543              		.loc 1 150 0
 1544 0312 0422     		movs	r2, #4
 1545 0314 2270     		strb	r2, [r4]
 1546 0316 7CE7     		b	.L128
 1547              	.LVL145:
 1548              	.L181:
 1549              		.loc 1 163 0
 1550 0318 FFF7FEFF 		bl	usb_lld_get_status_in
 1551              	.LVL146:
 1552 031c 0128     		cmp	r0, #1
 1553 031e BAD1     		bne	.L169
 1554              	.L133:
 1555              		.loc 1 177 0
 1556 0320 134B     		ldr	r3, .L182+8
 1557 0322 A363     		str	r3, [r4, #56]
 1558 0324 E663     		str	r6, [r4, #60]
 1559 0326 2764     		str	r7, [r4, #64]
 1560 0328 3546     		mov	r5, r6
 1561 032a 94F84430 		ldrb	r3, [r4, #68]	@ zero_extendqisi2
 1562 032e 79E6     		b	.L145
 1563              	.L178:
 1564              	.LVL147:
 1565              	.LBB67:
 1566              	.LBB68:
 1567              		.loc 1 71 0
 1568 0330 94F84630 		ldrb	r3, [r4, #70]	@ zero_extendqisi2
 1569 0334 84F84E30 		strb	r3, [r4, #78]
 1570              		.loc 1 72 0
 1571 0338 2046     		mov	r0, r4
 1572 033a FFF7FEFF 		bl	usb_lld_set_address
 1573              	.LVL148:
 1574              		.loc 1 73 0
 1575 033e 6368     		ldr	r3, [r4, #4]
 1576 0340 1B68     		ldr	r3, [r3]
 1577 0342 13B1     		cbz	r3, .L126
 1578 0344 2046     		mov	r0, r4
 1579 0346 0121     		movs	r1, #1
 1580 0348 9847     		blx	r3
 1581              	.LVL149:
 1582              	.L126:
 1583              		.loc 1 74 0
 1584 034a 0322     		movs	r2, #3
 1585 034c 94F84430 		ldrb	r3, [r4, #68]	@ zero_extendqisi2
 1586 0350 2270     		strb	r2, [r4]
 1587 0352 50E7     		b	.L137
 1588              	.LVL150:
 1589              	.L177:
 1590              	.LBE68:
 1591              	.LBE67:
 1592              		.loc 1 193 0
 1593 0354 FFF7FEFF 		bl	usb_lld_clear_in
 1594              	.LVL151:
 1595 0358 94F84430 		ldrb	r3, [r4, #68]	@ zero_extendqisi2
 1596 035c 4BE7     		b	.L137
ARM GAS  /tmp/ccxVrktp.s 			page 29


 1597              	.LVL152:
 1598              	.L179:
 1599              		.loc 1 206 0
 1600 035e FFF7FEFF 		bl	usb_lld_stall_in
 1601              	.LVL153:
 1602 0362 94F84430 		ldrb	r3, [r4, #68]	@ zero_extendqisi2
 1603 0366 46E7     		b	.L137
 1604              	.L183:
 1605              		.align	2
 1606              	.L182:
 1607 0368 00000000 		.word	.LANCHOR2
 1608 036c 00000000 		.word	.LANCHOR0
 1609 0370 00000000 		.word	.LANCHOR1
 1610              	.LBE69:
 1611              	.LBE89:
 1612              		.cfi_endproc
 1613              	.LFE135:
 1614              		.size	_usb_ep0setup, .-_usb_ep0setup
 1615              		.section	.text._usb_ep0in,"ax",%progbits
 1616              		.align	2
 1617              		.p2align 4,,15
 1618              		.global	_usb_ep0in
 1619              		.thumb
 1620              		.thumb_func
 1621              		.type	_usb_ep0in, %function
 1622              	_usb_ep0in:
 1623              	.LFB136:
 1624              		.loc 1 710 0
 1625              		.cfi_startproc
 1626              		@ args = 0, pretend = 0, frame = 0
 1627              		@ frame_needed = 0, uses_anonymous_args = 0
 1628              	.LVL154:
 1629 0000 38B5     		push	{r3, r4, r5, lr}
 1630              		.cfi_def_cfa_offset 16
 1631              		.cfi_offset 3, -16
 1632              		.cfi_offset 4, -12
 1633              		.cfi_offset 5, -8
 1634              		.cfi_offset 14, -4
 1635              		.loc 1 714 0
 1636 0002 90F83430 		ldrb	r3, [r0, #52]	@ zero_extendqisi2
 1637 0006 022B     		cmp	r3, #2
 1638              		.loc 1 710 0
 1639 0008 0446     		mov	r4, r0
 1640              		.loc 1 714 0
 1641 000a 47D0     		beq	.L186
 1642 000c 052B     		cmp	r3, #5
 1643 000e 3ED0     		beq	.L187
 1644 0010 012B     		cmp	r3, #1
 1645 0012 10D0     		beq	.L202
 1646              		.loc 1 753 0
 1647 0014 0021     		movs	r1, #0
 1648              	.LVL155:
 1649 0016 FFF7FEFF 		bl	usb_lld_stall_in
 1650              	.LVL156:
 1651              		.loc 1 754 0
 1652 001a 2046     		mov	r0, r4
 1653 001c 0021     		movs	r1, #0
ARM GAS  /tmp/ccxVrktp.s 			page 30


 1654 001e FFF7FEFF 		bl	usb_lld_stall_out
 1655              	.LVL157:
 1656              		.loc 1 755 0
 1657 0022 6368     		ldr	r3, [r4, #4]
 1658 0024 1B68     		ldr	r3, [r3]
 1659 0026 13B1     		cbz	r3, .L193
 1660              		.loc 1 755 0 is_stmt 0 discriminator 1
 1661 0028 2046     		mov	r0, r4
 1662 002a 0521     		movs	r1, #5
 1663 002c 9847     		blx	r3
 1664              	.LVL158:
 1665              	.L193:
 1666              		.loc 1 756 0 is_stmt 1
 1667 002e 0623     		movs	r3, #6
 1668 0030 84F83430 		strb	r3, [r4, #52]
 1669 0034 38BD     		pop	{r3, r4, r5, pc}
 1670              	.LVL159:
 1671              	.L202:
 1672              		.loc 1 716 0
 1673 0036 90F84B30 		ldrb	r3, [r0, #75]	@ zero_extendqisi2
 1674 003a 90F84A20 		ldrb	r2, [r0, #74]	@ zero_extendqisi2
 1675              		.loc 1 720 0
 1676 003e C16B     		ldr	r1, [r0, #60]
 1677              	.LVL160:
 1678              		.loc 1 716 0
 1679 0040 42EA0322 		orr	r2, r2, r3, lsl #8
 1680              		.loc 1 720 0
 1681 0044 8A42     		cmp	r2, r1
 1682 0046 C268     		ldr	r2, [r0, #12]
 1683 0048 05D9     		bls	.L190
 1684              		.loc 1 720 0 is_stmt 0 discriminator 1
 1685 004a 158A     		ldrh	r5, [r2, #16]
 1686 004c B1FBF5F3 		udiv	r3, r1, r5
 1687 0050 05FB1315 		mls	r5, r5, r3, r1
 1688 0054 25B3     		cbz	r5, .L203
 1689              	.LVL161:
 1690              	.L190:
 1691              	.LBB90:
 1692              	.LBB91:
 1693              		.loc 1 380 0 is_stmt 1
 1694 0056 9369     		ldr	r3, [r2, #24]
 1695              		.loc 1 382 0
 1696 0058 0025     		movs	r5, #0
 1697              	.LBE91:
 1698              	.LBE90:
 1699              		.loc 1 731 0
 1700 005a 0322     		movs	r2, #3
 1701 005c 84F83420 		strb	r2, [r4, #52]
 1702              	.LVL162:
 1703              	.LBB93:
 1704              	.LBB92:
 1705              		.loc 1 387 0
 1706 0060 2946     		mov	r1, r5
 1707              		.loc 1 382 0
 1708 0062 1D70     		strb	r5, [r3]
 1709              		.loc 1 383 0
 1710 0064 DD60     		str	r5, [r3, #12]
ARM GAS  /tmp/ccxVrktp.s 			page 31


 1711              		.loc 1 384 0
 1712 0066 5D60     		str	r5, [r3, #4]
 1713              		.loc 1 385 0
 1714 0068 9D60     		str	r5, [r3, #8]
 1715              		.loc 1 387 0
 1716 006a 2046     		mov	r0, r4
 1717              	.LVL163:
 1718 006c FFF7FEFF 		bl	usb_lld_prepare_receive
 1719              	.LVL164:
 1720              	.LBE92:
 1721              	.LBE93:
 1722              	.LBB94:
 1723              		.loc 1 734 0
 1724 0070 2023     		movs	r3, #32
 1725              	@ 734 "../../ChibiOS_2.6.5/os/hal/src/usb.c" 1
 1726 0072 83F31188 		msr     BASEPRI, r3
 1727              	@ 0 "" 2
 1728              		.thumb
 1729              	.LBE94:
 1730 0076 FFF7FEFF 		bl	dbg_check_lock_from_isr
 1731              	.LVL165:
 1732              		.loc 1 735 0
 1733 007a 2946     		mov	r1, r5
 1734 007c 2046     		mov	r0, r4
 1735 007e FFF7FEFF 		bl	usbStartReceiveI
 1736              	.LVL166:
 1737              		.loc 1 736 0
 1738 0082 FFF7FEFF 		bl	dbg_check_unlock_from_isr
 1739              	.LVL167:
 1740              	.LBB95:
 1741 0086 2B46     		mov	r3, r5
 1742              	@ 736 "../../ChibiOS_2.6.5/os/hal/src/usb.c" 1
 1743 0088 83F31188 		msr     BASEPRI, r3
 1744              	@ 0 "" 2
 1745              		.thumb
 1746              	.LBE95:
 1747              		.loc 1 740 0
 1748 008c 38BD     		pop	{r3, r4, r5, pc}
 1749              	.LVL168:
 1750              	.L187:
 1751              		.loc 1 743 0
 1752 008e 036C     		ldr	r3, [r0, #64]
 1753 0090 03B1     		cbz	r3, .L192
 1754              		.loc 1 744 0
 1755 0092 9847     		blx	r3
 1756              	.LVL169:
 1757              	.L192:
 1758              		.loc 1 745 0
 1759 0094 0023     		movs	r3, #0
 1760 0096 84F83430 		strb	r3, [r4, #52]
 1761              		.loc 1 746 0
 1762 009a 38BD     		pop	{r3, r4, r5, pc}
 1763              	.LVL170:
 1764              	.L186:
 1765 009c C268     		ldr	r2, [r0, #12]
 1766 009e DAE7     		b	.L190
 1767              	.LVL171:
ARM GAS  /tmp/ccxVrktp.s 			page 32


 1768              	.L203:
 1769              	.LBB96:
 1770              	.LBB97:
 1771              		.loc 1 406 0
 1772 00a0 5369     		ldr	r3, [r2, #20]
 1773              	.LVL172:
 1774              		.loc 1 413 0
 1775 00a2 2946     		mov	r1, r5
 1776              		.loc 1 408 0
 1777 00a4 1D70     		strb	r5, [r3]
 1778              	.LVL173:
 1779              		.loc 1 409 0
 1780 00a6 DD60     		str	r5, [r3, #12]
 1781              		.loc 1 410 0
 1782 00a8 5D60     		str	r5, [r3, #4]
 1783              		.loc 1 411 0
 1784 00aa 9D60     		str	r5, [r3, #8]
 1785              		.loc 1 413 0
 1786 00ac FFF7FEFF 		bl	usb_lld_prepare_transmit
 1787              	.LVL174:
 1788              	.LBE97:
 1789              	.LBE96:
 1790              	.LBB98:
 1791              		.loc 1 722 0
 1792 00b0 2023     		movs	r3, #32
 1793              	@ 722 "../../ChibiOS_2.6.5/os/hal/src/usb.c" 1
 1794 00b2 83F31188 		msr     BASEPRI, r3
 1795              	@ 0 "" 2
 1796              		.thumb
 1797              	.LBE98:
 1798 00b6 FFF7FEFF 		bl	dbg_check_lock_from_isr
 1799              	.LVL175:
 1800              		.loc 1 723 0
 1801 00ba 2946     		mov	r1, r5
 1802 00bc 2046     		mov	r0, r4
 1803 00be FFF7FEFF 		bl	usbStartTransmitI
 1804              	.LVL176:
 1805              		.loc 1 724 0
 1806 00c2 FFF7FEFF 		bl	dbg_check_unlock_from_isr
 1807              	.LVL177:
 1808              	.LBB99:
 1809 00c6 2B46     		mov	r3, r5
 1810              	@ 724 "../../ChibiOS_2.6.5/os/hal/src/usb.c" 1
 1811 00c8 83F31188 		msr     BASEPRI, r3
 1812              	@ 0 "" 2
 1813              		.thumb
 1814              	.LBE99:
 1815              		.loc 1 725 0
 1816 00cc 0223     		movs	r3, #2
 1817 00ce 84F83430 		strb	r3, [r4, #52]
 1818              		.loc 1 726 0
 1819 00d2 38BD     		pop	{r3, r4, r5, pc}
 1820              		.cfi_endproc
 1821              	.LFE136:
 1822              		.size	_usb_ep0in, .-_usb_ep0in
 1823              		.section	.text._usb_ep0out,"ax",%progbits
 1824              		.align	2
ARM GAS  /tmp/ccxVrktp.s 			page 33


 1825              		.p2align 4,,15
 1826              		.global	_usb_ep0out
 1827              		.thumb
 1828              		.thumb_func
 1829              		.type	_usb_ep0out, %function
 1830              	_usb_ep0out:
 1831              	.LFB137:
 1832              		.loc 1 769 0
 1833              		.cfi_startproc
 1834              		@ args = 0, pretend = 0, frame = 0
 1835              		@ frame_needed = 0, uses_anonymous_args = 0
 1836              	.LVL178:
 1837 0000 38B5     		push	{r3, r4, r5, lr}
 1838              		.cfi_def_cfa_offset 16
 1839              		.cfi_offset 3, -16
 1840              		.cfi_offset 4, -12
 1841              		.cfi_offset 5, -8
 1842              		.cfi_offset 14, -4
 1843              		.loc 1 772 0
 1844 0002 90F83430 		ldrb	r3, [r0, #52]	@ zero_extendqisi2
 1845 0006 032B     		cmp	r3, #3
 1846              		.loc 1 769 0
 1847 0008 0446     		mov	r4, r0
 1848              		.loc 1 772 0
 1849 000a 2FD0     		beq	.L206
 1850 000c 042B     		cmp	r3, #4
 1851 000e 11D0     		beq	.L218
 1852              	.L205:
 1853              		.loc 1 802 0
 1854 0010 2046     		mov	r0, r4
 1855              	.LVL179:
 1856 0012 0021     		movs	r1, #0
 1857              	.LVL180:
 1858 0014 FFF7FEFF 		bl	usb_lld_stall_in
 1859              	.LVL181:
 1860              		.loc 1 803 0
 1861 0018 2046     		mov	r0, r4
 1862 001a 0021     		movs	r1, #0
 1863 001c FFF7FEFF 		bl	usb_lld_stall_out
 1864              	.LVL182:
 1865              		.loc 1 804 0
 1866 0020 6368     		ldr	r3, [r4, #4]
 1867 0022 1B68     		ldr	r3, [r3]
 1868 0024 13B1     		cbz	r3, .L210
 1869              		.loc 1 804 0 is_stmt 0 discriminator 1
 1870 0026 2046     		mov	r0, r4
 1871 0028 0521     		movs	r1, #5
 1872 002a 9847     		blx	r3
 1873              	.LVL183:
 1874              	.L210:
 1875              		.loc 1 805 0 is_stmt 1
 1876 002c 0623     		movs	r3, #6
 1877 002e 84F83430 		strb	r3, [r4, #52]
 1878 0032 38BD     		pop	{r3, r4, r5, pc}
 1879              	.LVL184:
 1880              	.L218:
 1881              	.LBB100:
ARM GAS  /tmp/ccxVrktp.s 			page 34


 1882              	.LBB101:
 1883              		.loc 1 406 0
 1884 0034 C368     		ldr	r3, [r0, #12]
 1885 0036 5B69     		ldr	r3, [r3, #20]
 1886              		.loc 1 408 0
 1887 0038 0025     		movs	r5, #0
 1888              	.LBE101:
 1889              	.LBE100:
 1890              		.loc 1 775 0
 1891 003a 0522     		movs	r2, #5
 1892 003c 80F83420 		strb	r2, [r0, #52]
 1893              	.LVL185:
 1894              	.LBB103:
 1895              	.LBB102:
 1896              		.loc 1 413 0
 1897 0040 2946     		mov	r1, r5
 1898              	.LVL186:
 1899              		.loc 1 408 0
 1900 0042 1D70     		strb	r5, [r3]
 1901              		.loc 1 409 0
 1902 0044 DD60     		str	r5, [r3, #12]
 1903              		.loc 1 410 0
 1904 0046 5D60     		str	r5, [r3, #4]
 1905              		.loc 1 411 0
 1906 0048 9D60     		str	r5, [r3, #8]
 1907              		.loc 1 413 0
 1908 004a FFF7FEFF 		bl	usb_lld_prepare_transmit
 1909              	.LVL187:
 1910              	.LBE102:
 1911              	.LBE103:
 1912              	.LBB104:
 1913              		.loc 1 778 0
 1914 004e 2023     		movs	r3, #32
 1915              	@ 778 "../../ChibiOS_2.6.5/os/hal/src/usb.c" 1
 1916 0050 83F31188 		msr     BASEPRI, r3
 1917              	@ 0 "" 2
 1918              		.thumb
 1919              	.LBE104:
 1920 0054 FFF7FEFF 		bl	dbg_check_lock_from_isr
 1921              	.LVL188:
 1922              		.loc 1 779 0
 1923 0058 2946     		mov	r1, r5
 1924 005a 2046     		mov	r0, r4
 1925 005c FFF7FEFF 		bl	usbStartTransmitI
 1926              	.LVL189:
 1927              		.loc 1 780 0
 1928 0060 FFF7FEFF 		bl	dbg_check_unlock_from_isr
 1929              	.LVL190:
 1930              	.LBB105:
 1931 0064 2B46     		mov	r3, r5
 1932              	@ 780 "../../ChibiOS_2.6.5/os/hal/src/usb.c" 1
 1933 0066 83F31188 		msr     BASEPRI, r3
 1934              	@ 0 "" 2
 1935              		.thumb
 1936              	.LBE105:
 1937              		.loc 1 784 0
 1938 006a 38BD     		pop	{r3, r4, r5, pc}
ARM GAS  /tmp/ccxVrktp.s 			page 35


 1939              	.LVL191:
 1940              	.L206:
 1941              		.loc 1 789 0
 1942 006c C368     		ldr	r3, [r0, #12]
 1943 006e 9B69     		ldr	r3, [r3, #24]
 1944 0070 9B68     		ldr	r3, [r3, #8]
 1945 0072 002B     		cmp	r3, #0
 1946 0074 CCD1     		bne	.L205
 1947              		.loc 1 792 0
 1948 0076 036C     		ldr	r3, [r0, #64]
 1949 0078 03B1     		cbz	r3, .L209
 1950              		.loc 1 793 0
 1951 007a 9847     		blx	r3
 1952              	.LVL192:
 1953              	.L209:
 1954              		.loc 1 794 0
 1955 007c 0023     		movs	r3, #0
 1956 007e 84F83430 		strb	r3, [r4, #52]
 1957              		.loc 1 795 0
 1958 0082 38BD     		pop	{r3, r4, r5, pc}
 1959              		.cfi_endproc
 1960              	.LFE137:
 1961              		.size	_usb_ep0out, .-_usb_ep0out
 1962              		.section	.rodata.zero_status,"a",%progbits
 1963              		.align	2
 1964              		.set	.LANCHOR0,. + 0
 1965              		.type	zero_status, %object
 1966              		.size	zero_status, 2
 1967              	zero_status:
 1968 0000 0000     		.space	2
 1969              		.section	.rodata.active_status,"a",%progbits
 1970              		.align	2
 1971              		.set	.LANCHOR2,. + 0
 1972              		.type	active_status, %object
 1973              		.size	active_status, 2
 1974              	active_status:
 1975 0000 0000     		.space	2
 1976              		.section	.rodata.str1.4,"aMS",%progbits,1
 1977              		.align	2
 1978              	.LC0:
 1979 0000 22757362 		.ascii	"\"usbStart\"()\000"
 1979      53746172 
 1979      74222829 
 1979      00
 1980 000d 000000   		.space	3
 1981              	.LC1:
 1982 0010 75736253 		.ascii	"usbStart(), #1\000"
 1982      74617274 
 1982      28292C20 
 1982      233100
 1983 001f 00       		.space	1
 1984              	.LC2:
 1985 0020 22757362 		.ascii	"\"usbStop\"()\000"
 1985      53746F70 
 1985      22282900 
 1986              	.LC3:
 1987 002c 75736253 		.ascii	"usbStop(), #1\000"
ARM GAS  /tmp/ccxVrktp.s 			page 36


 1987      746F7028 
 1987      292C2023 
 1987      3100
 1988 003a 0000     		.space	2
 1989              	.LC4:
 1990 003c 22757362 		.ascii	"\"usbInitEndpointI\"()\000"
 1990      496E6974 
 1990      456E6470 
 1990      6F696E74 
 1990      49222829 
 1991 0051 000000   		.space	3
 1992              	.LC5:
 1993 0054 75736245 		.ascii	"usbEnableEndpointI(), #1\000"
 1993      6E61626C 
 1993      65456E64 
 1993      706F696E 
 1993      74492829 
 1994 006d 000000   		.space	3
 1995              	.LC6:
 1996 0070 75736245 		.ascii	"usbEnableEndpointI(), #2\000"
 1996      6E61626C 
 1996      65456E64 
 1996      706F696E 
 1996      74492829 
 1997 0089 000000   		.space	3
 1998              	.LC7:
 1999 008c 22757362 		.ascii	"\"usbDisableEndpointsI\"()\000"
 1999      44697361 
 1999      626C6545 
 1999      6E64706F 
 1999      696E7473 
 2000 00a5 000000   		.space	3
 2001              	.LC8:
 2002 00a8 75736244 		.ascii	"usbDisableEndpointsI(), #1\000"
 2002      69736162 
 2002      6C65456E 
 2002      64706F69 
 2002      6E747349 
 2003 00c3 00       		.space	1
 2004              	.LC9:
 2005 00c4 22757362 		.ascii	"\"usbStartReceiveI\"()\000"
 2005      53746172 
 2005      74526563 
 2005      65697665 
 2005      49222829 
 2006 00d9 000000   		.space	3
 2007              	.LC10:
 2008 00dc 22757362 		.ascii	"\"usbStartTransmitI\"()\000"
 2008      53746172 
 2008      74547261 
 2008      6E736D69 
 2008      74492228 
 2009 00f2 0000     		.space	2
 2010              	.LC11:
 2011 00f4 22757362 		.ascii	"\"usbStallReceiveI\"()\000"
 2011      5374616C 
 2011      6C526563 
ARM GAS  /tmp/ccxVrktp.s 			page 37


 2011      65697665 
 2011      49222829 
 2012 0109 000000   		.space	3
 2013              	.LC12:
 2014 010c 22757362 		.ascii	"\"usbStallTransmitI\"()\000"
 2014      5374616C 
 2014      6C547261 
 2014      6E736D69 
 2014      74492228 
 2015              		.section	.rodata.halted_status,"a",%progbits
 2016              		.align	2
 2017              		.set	.LANCHOR1,. + 0
 2018              		.type	halted_status, %object
 2019              		.size	halted_status, 2
 2020              	halted_status:
 2021 0000 01       		.byte	1
 2022 0001 00       		.byte	0
 2023              		.text
 2024              	.Letext0:
 2025              		.file 2 "/usr/lib/gcc/arm-none-eabi/4.9.3/include/stddef.h"
 2026              		.file 3 "/usr/include/newlib/machine/_default_types.h"
 2027              		.file 4 "/usr/include/newlib/sys/_stdint.h"
 2028              		.file 5 "../../ChibiOS_2.6.5/os/ports/GCC/ARMCMx/chtypes.h"
 2029              		.file 6 "../../ChibiOS_2.6.5/os/kernel/include/chlists.h"
 2030              		.file 7 "../../ChibiOS_2.6.5/os/kernel/include/chthreads.h"
 2031              		.file 8 "../../ChibiOS_2.6.5/os/ports/GCC/ARMCMx/chcore_v7m.h"
 2032              		.file 9 "../../ChibiOS_2.6.5/os/kernel/include/chmtx.h"
 2033              		.file 10 "../../ChibiOS_2.6.5/os/kernel/include/chqueues.h"
 2034              		.file 11 "../../ChibiOS_2.6.5/os/hal/include/usb.h"
 2035              		.file 12 "../../ChibiOS_2.6.5/os/hal/platforms/STM32/OTGv1/usb_lld.h"
 2036              		.file 13 "../../ChibiOS_2.6.5/os/hal/platforms/STM32/OTGv1/stm32_otg.h"
 2037              		.file 14 "../../ChibiOS_2.6.5/os/kernel/include/chdebug.h"
 2038              		.file 15 "../../ChibiOS_2.6.5/os/ports/common/ARMCMx/CMSIS/include/core_cm4.h"