ARM GAS  /tmp/ccivEqpo.s 			page 1


   1              		.syntax unified
   2              		.cpu cortex-m4
   3              		.fpu softvfp
   4              		.eabi_attribute 20, 1
   5              		.eabi_attribute 21, 1
   6              		.eabi_attribute 23, 3
   7              		.eabi_attribute 24, 1
   8              		.eabi_attribute 25, 1
   9              		.eabi_attribute 26, 1
  10              		.eabi_attribute 30, 2
  11              		.eabi_attribute 34, 1
  12              		.eabi_attribute 18, 4
  13              		.thumb
  14              		.file	"USB.c"
  15              		.text
  16              	.Ltext0:
  17              		.cfi_sections	.debug_frame
  18              		.section	.text.get_descriptor,"ax",%progbits
  19              		.align	2
  20              		.p2align 4,,15
  21              		.thumb
  22              		.thumb_func
  23              		.type	get_descriptor, %function
  24              	get_descriptor:
  25              	.LFB119:
  26              		.file 1 "USB/USB.c"
  27              		.loc 1 40 0
  28              		.cfi_startproc
  29              		@ args = 0, pretend = 0, frame = 0
  30              		@ frame_needed = 0, uses_anonymous_args = 0
  31              		@ link register save eliminated.
  32              	.LVL0:
  33              		.loc 1 44 0
  34 0000 0229     		cmp	r1, #2
  35 0002 06D0     		beq	.L3
  36 0004 0329     		cmp	r1, #3
  37 0006 06D0     		beq	.L4
  38 0008 0129     		cmp	r1, #1
  39              		.loc 1 53 0
  40 000a 0648     		ldr	r0, .L9
  41              	.LVL1:
  42 000c 18BF     		it	ne
  43 000e 0020     		movne	r0, #0
  44 0010 7047     		bx	lr
  45              	.LVL2:
  46              	.L3:
  47              		.loc 1 48 0
  48 0012 0548     		ldr	r0, .L9+4
  49              	.LVL3:
  50 0014 7047     		bx	lr
  51              	.LVL4:
  52              	.L4:
  53              		.loc 1 50 0
  54 0016 032A     		cmp	r2, #3
  55              		.loc 1 51 0
  56 0018 9ABF     		itte	ls
  57 001a 044B     		ldrls	r3, .L9+8
ARM GAS  /tmp/ccivEqpo.s 			page 2


  58              	.LVL5:
  59 001c 03EBC200 		addls	r0, r3, r2, lsl #3
  60              	.LVL6:
  61              		.loc 1 53 0
  62 0020 0020     		movhi	r0, #0
  63              		.loc 1 54 0
  64 0022 7047     		bx	lr
  65              	.L10:
  66              		.align	2
  67              	.L9:
  68 0024 00000000 		.word	.LANCHOR0
  69 0028 00000000 		.word	.LANCHOR1
  70 002c 00000000 		.word	.LANCHOR2
  71              		.cfi_endproc
  72              	.LFE119:
  73              		.size	get_descriptor, .-get_descriptor
  74              		.section	.text.usb_event,"ax",%progbits
  75              		.align	2
  76              		.p2align 4,,15
  77              		.thumb
  78              		.thumb_func
  79              		.type	usb_event, %function
  80              	usb_event:
  81              	.LFB120:
  82              		.loc 1 106 0
  83              		.cfi_startproc
  84              		@ args = 0, pretend = 0, frame = 0
  85              		@ frame_needed = 0, uses_anonymous_args = 0
  86              	.LVL7:
  87              		.loc 1 108 0
  88 0000 0229     		cmp	r1, #2
  89 0002 1AD1     		bne	.L15
  90              		.loc 1 106 0
  91 0004 38B5     		push	{r3, r4, r5, lr}
  92              		.cfi_def_cfa_offset 16
  93              		.cfi_offset 3, -16
  94              		.cfi_offset 4, -12
  95              		.cfi_offset 5, -8
  96              		.cfi_offset 14, -4
  97 0006 0546     		mov	r5, r0
  98 0008 0C46     		mov	r4, r1
  99              	.LVL8:
 100              	.LBB8:
 101              	.LBB9:
 102              	.LBB10:
 103              		.loc 1 114 0
 104 000a 2023     		movs	r3, #32
 105              	@ 114 "USB/USB.c" 1
 106 000c 83F31188 		msr     BASEPRI, r3
 107              	@ 0 "" 2
 108              		.thumb
 109              	.LBE10:
 110 0010 FFF7FEFF 		bl	dbg_check_lock_from_isr
 111              	.LVL9:
 112              		.loc 1 119 0
 113 0014 2846     		mov	r0, r5
 114 0016 0121     		movs	r1, #1
ARM GAS  /tmp/ccivEqpo.s 			page 3


 115 0018 084A     		ldr	r2, .L16
 116 001a FFF7FEFF 		bl	usbInitEndpointI
 117              	.LVL10:
 118              		.loc 1 120 0
 119 001e 2146     		mov	r1, r4
 120 0020 074A     		ldr	r2, .L16+4
 121 0022 2846     		mov	r0, r5
 122 0024 FFF7FEFF 		bl	usbInitEndpointI
 123              	.LVL11:
 124              		.loc 1 123 0
 125 0028 0648     		ldr	r0, .L16+8
 126 002a FFF7FEFF 		bl	sduConfigureHookI
 127              	.LVL12:
 128              		.loc 1 125 0
 129 002e FFF7FEFF 		bl	dbg_check_unlock_from_isr
 130              	.LVL13:
 131              	.LBB11:
 132 0032 0023     		movs	r3, #0
 133              	@ 125 "USB/USB.c" 1
 134 0034 83F31188 		msr     BASEPRI, r3
 135              	@ 0 "" 2
 136              		.thumb
 137 0038 38BD     		pop	{r3, r4, r5, pc}
 138              	.LVL14:
 139              	.L15:
 140              		.cfi_def_cfa_offset 0
 141              		.cfi_restore 3
 142              		.cfi_restore 4
 143              		.cfi_restore 5
 144              		.cfi_restore 14
 145 003a 7047     		bx	lr
 146              	.L17:
 147              		.align	2
 148              	.L16:
 149 003c 00000000 		.word	.LANCHOR3
 150 0040 00000000 		.word	.LANCHOR4
 151 0044 00000000 		.word	.LANCHOR5
 152              	.LBE11:
 153              	.LBE9:
 154              	.LBE8:
 155              		.cfi_endproc
 156              	.LFE120:
 157              		.size	usb_event, .-usb_event
 158              		.section	.text.isUSBActive,"ax",%progbits
 159              		.align	2
 160              		.p2align 4,,15
 161              		.global	isUSBActive
 162              		.thumb
 163              		.thumb_func
 164              		.type	isUSBActive, %function
 165              	isUSBActive:
 166              	.LFB121:
 167              		.loc 1 157 0
 168              		.cfi_startproc
 169              		@ args = 0, pretend = 0, frame = 0
 170              		@ frame_needed = 0, uses_anonymous_args = 0
 171              		@ link register save eliminated.
ARM GAS  /tmp/ccivEqpo.s 			page 4


 172              		.loc 1 158 0
 173 0000 054B     		ldr	r3, .L19
 174 0002 D3F85432 		ldr	r3, [r3, #596]
 175 0006 1B68     		ldr	r3, [r3]
 176 0008 1878     		ldrb	r0, [r3]	@ zero_extendqisi2
 177              		.loc 1 159 0
 178 000a A0F10400 		sub	r0, #4
 179 000e B0FA80F0 		clz	r0, r0
 180 0012 4009     		lsrs	r0, r0, #5
 181 0014 7047     		bx	lr
 182              	.L20:
 183 0016 00BF     		.align	2
 184              	.L19:
 185 0018 00000000 		.word	.LANCHOR5
 186              		.cfi_endproc
 187              	.LFE121:
 188              		.size	isUSBActive, .-isUSBActive
 189              		.section	.text.initializeUSB,"ax",%progbits
 190              		.align	2
 191              		.p2align 4,,15
 192              		.global	initializeUSB
 193              		.thumb
 194              		.thumb_func
 195              		.type	initializeUSB, %function
 196              	initializeUSB:
 197              	.LFB122:
 198              		.loc 1 161 0
 199              		.cfi_startproc
 200              		@ args = 0, pretend = 0, frame = 0
 201              		@ frame_needed = 0, uses_anonymous_args = 0
 202 0000 38B5     		push	{r3, r4, r5, lr}
 203              		.cfi_def_cfa_offset 16
 204              		.cfi_offset 3, -16
 205              		.cfi_offset 4, -12
 206              		.cfi_offset 5, -8
 207              		.cfi_offset 14, -4
 208              		.loc 1 165 0
 209 0002 0E4D     		ldr	r5, .L23
 210              		.loc 1 173 0
 211 0004 0E4C     		ldr	r4, .L23+4
 212              		.loc 1 165 0
 213 0006 2846     		mov	r0, r5
 214 0008 FFF7FEFF 		bl	sduObjectInit
 215              	.LVL15:
 216              		.loc 1 166 0
 217 000c 0D49     		ldr	r1, .L23+8
 218 000e 2846     		mov	r0, r5
 219 0010 FFF7FEFF 		bl	sduStart
 220              	.LVL16:
 221              		.loc 1 173 0
 222 0014 226D     		ldr	r2, [r4, #80]
 223 0016 936B     		ldr	r3, [r2, #56]
 224 0018 23F40023 		bic	r3, r3, #524288
 225 001c 9363     		str	r3, [r2, #56]
 226              		.loc 1 174 0
 227 001e 40F2DC50 		movw	r0, #1500
 228 0022 FFF7FEFF 		bl	chThdSleep
ARM GAS  /tmp/ccivEqpo.s 			page 5


 229              	.LVL17:
 230              		.loc 1 175 0
 231 0026 2046     		mov	r0, r4
 232 0028 0749     		ldr	r1, .L23+12
 233 002a FFF7FEFF 		bl	usbStart
 234              	.LVL18:
 235              		.loc 1 176 0
 236 002e 226D     		ldr	r2, [r4, #80]
 237 0030 936B     		ldr	r3, [r2, #56]
 238 0032 43F40023 		orr	r3, r3, #524288
 239 0036 9363     		str	r3, [r2, #56]
 240 0038 38BD     		pop	{r3, r4, r5, pc}
 241              	.L24:
 242 003a 00BF     		.align	2
 243              	.L23:
 244 003c 00000000 		.word	.LANCHOR5
 245 0040 00000000 		.word	USBD1
 246 0044 00000000 		.word	.LANCHOR6
 247 0048 00000000 		.word	.LANCHOR7
 248              		.cfi_endproc
 249              	.LFE122:
 250              		.size	initializeUSB, .-initializeUSB
 251              		.global	SDU1
 252              		.section	.rodata.ep1config,"a",%progbits
 253              		.align	2
 254              		.set	.LANCHOR3,. + 0
 255              		.type	ep1config, %object
 256              		.size	ep1config, 36
 257              	ep1config:
 258 0000 02000000 		.word	2
 259 0004 00000000 		.word	0
 260 0008 00000000 		.word	sduDataTransmitted
 261 000c 00000000 		.word	sduDataReceived
 262 0010 4000     		.short	64
 263 0012 4000     		.short	64
 264 0014 00000000 		.word	ep1instate
 265 0018 00000000 		.word	ep1outstate
 266 001c 0200     		.short	2
 267 001e 0000     		.space	2
 268 0020 00000000 		.word	0
 269              		.section	.bss.ep2instate,"aw",%nobits
 270              		.align	2
 271              		.type	ep2instate, %object
 272              		.size	ep2instate, 20
 273              	ep2instate:
 274 0000 00000000 		.space	20
 274      00000000 
 274      00000000 
 274      00000000 
 274      00000000 
 275              		.section	.bss.SDU1,"aw",%nobits
 276              		.align	2
 277              		.set	.LANCHOR5,. + 0
 278              		.type	SDU1, %object
 279              		.size	SDU1, 600
 280              	SDU1:
 281 0000 00000000 		.space	600
ARM GAS  /tmp/ccivEqpo.s 			page 6


 281      00000000 
 281      00000000 
 281      00000000 
 281      00000000 
 282              		.section	.bss.ep1instate,"aw",%nobits
 283              		.align	2
 284              		.type	ep1instate, %object
 285              		.size	ep1instate, 20
 286              	ep1instate:
 287 0000 00000000 		.space	20
 287      00000000 
 287      00000000 
 287      00000000 
 287      00000000 
 288              		.section	.rodata.vcom_configuration_descriptor,"a",%progbits
 289              		.align	2
 290              		.set	.LANCHOR1,. + 0
 291              		.type	vcom_configuration_descriptor, %object
 292              		.size	vcom_configuration_descriptor, 8
 293              	vcom_configuration_descriptor:
 294 0000 43000000 		.word	67
 295 0004 00000000 		.word	vcom_configuration_descriptor_data
 296              		.section	.rodata.ep2config,"a",%progbits
 297              		.align	2
 298              		.set	.LANCHOR4,. + 0
 299              		.type	ep2config, %object
 300              		.size	ep2config, 36
 301              	ep2config:
 302 0000 03000000 		.word	3
 303 0004 00000000 		.word	0
 304 0008 00000000 		.word	sduInterruptTransmitted
 305 000c 00000000 		.word	0
 306 0010 1000     		.short	16
 307 0012 0000     		.short	0
 308 0014 00000000 		.word	ep2instate
 309 0018 00000000 		.word	0
 310 001c 0100     		.short	1
 311 001e 0000     		.space	2
 312 0020 00000000 		.word	0
 313              		.section	.rodata.usbcfg,"a",%progbits
 314              		.align	2
 315              		.set	.LANCHOR7,. + 0
 316              		.type	usbcfg, %object
 317              		.size	usbcfg, 16
 318              	usbcfg:
 319 0000 00000000 		.word	usb_event
 320 0004 00000000 		.word	get_descriptor
 321 0008 00000000 		.word	sduRequestsHook
 322 000c 00000000 		.word	0
 323              		.section	.rodata.vcom_configuration_descriptor_data,"a",%progbits
 324              		.align	2
 325              		.type	vcom_configuration_descriptor_data, %object
 326              		.size	vcom_configuration_descriptor_data, 67
 327              	vcom_configuration_descriptor_data:
 328 0000 09       		.byte	9
 329 0001 02       		.byte	2
 330 0002 43       		.byte	67
ARM GAS  /tmp/ccivEqpo.s 			page 7


 331 0003 00       		.byte	0
 332 0004 02       		.byte	2
 333 0005 01       		.byte	1
 334 0006 00       		.byte	0
 335 0007 C0       		.byte	-64
 336 0008 32       		.byte	50
 337 0009 09       		.byte	9
 338 000a 04       		.byte	4
 339 000b 00       		.byte	0
 340 000c 00       		.byte	0
 341 000d 01       		.byte	1
 342 000e 02       		.byte	2
 343 000f 02       		.byte	2
 344 0010 01       		.byte	1
 345 0011 00       		.byte	0
 346 0012 05       		.byte	5
 347 0013 24       		.byte	36
 348 0014 00       		.byte	0
 349 0015 10       		.byte	16
 350 0016 01       		.byte	1
 351 0017 05       		.byte	5
 352 0018 24       		.byte	36
 353 0019 01       		.byte	1
 354 001a 00       		.byte	0
 355 001b 01       		.byte	1
 356 001c 04       		.byte	4
 357 001d 24       		.byte	36
 358 001e 02       		.byte	2
 359 001f 02       		.byte	2
 360 0020 05       		.byte	5
 361 0021 24       		.byte	36
 362 0022 06       		.byte	6
 363 0023 00       		.byte	0
 364 0024 01       		.byte	1
 365 0025 07       		.byte	7
 366 0026 05       		.byte	5
 367 0027 82       		.byte	-126
 368 0028 03       		.byte	3
 369 0029 08       		.byte	8
 370 002a 00       		.byte	0
 371 002b FF       		.byte	-1
 372 002c 09       		.byte	9
 373 002d 04       		.byte	4
 374 002e 01       		.byte	1
 375 002f 00       		.byte	0
 376 0030 02       		.byte	2
 377 0031 0A       		.byte	10
 378 0032 00       		.byte	0
 379 0033 00       		.byte	0
 380 0034 00       		.byte	0
 381 0035 07       		.byte	7
 382 0036 05       		.byte	5
 383 0037 01       		.byte	1
 384 0038 02       		.byte	2
 385 0039 40       		.byte	64
 386 003a 00       		.byte	0
 387 003b 00       		.byte	0
ARM GAS  /tmp/ccivEqpo.s 			page 8


 388 003c 07       		.byte	7
 389 003d 05       		.byte	5
 390 003e 81       		.byte	-127
 391 003f 02       		.byte	2
 392 0040 40       		.byte	64
 393 0041 00       		.byte	0
 394 0042 00       		.byte	0
 395              		.section	.rodata.vcom_device_descriptor_data,"a",%progbits
 396              		.align	2
 397              		.type	vcom_device_descriptor_data, %object
 398              		.size	vcom_device_descriptor_data, 18
 399              	vcom_device_descriptor_data:
 400 0000 12       		.byte	18
 401 0001 01       		.byte	1
 402 0002 10       		.byte	16
 403 0003 01       		.byte	1
 404 0004 02       		.byte	2
 405 0005 00       		.byte	0
 406 0006 00       		.byte	0
 407 0007 40       		.byte	64
 408 0008 83       		.byte	-125
 409 0009 04       		.byte	4
 410 000a 40       		.byte	64
 411 000b 57       		.byte	87
 412 000c 00       		.byte	0
 413 000d 02       		.byte	2
 414 000e 01       		.byte	1
 415 000f 02       		.byte	2
 416 0010 03       		.byte	3
 417 0011 01       		.byte	1
 418              		.section	.bss.ep1outstate,"aw",%nobits
 419              		.align	2
 420              		.type	ep1outstate, %object
 421              		.size	ep1outstate, 16
 422              	ep1outstate:
 423 0000 00000000 		.space	16
 423      00000000 
 423      00000000 
 423      00000000 
 424              		.section	.rodata.vcom_string0,"a",%progbits
 425              		.align	2
 426              		.type	vcom_string0, %object
 427              		.size	vcom_string0, 4
 428              	vcom_string0:
 429 0000 04       		.byte	4
 430 0001 03       		.byte	3
 431 0002 09       		.byte	9
 432 0003 04       		.byte	4
 433              		.section	.rodata.vcom_string1,"a",%progbits
 434              		.align	2
 435              		.type	vcom_string1, %object
 436              		.size	vcom_string1, 38
 437              	vcom_string1:
 438 0000 26       		.byte	38
 439 0001 03       		.byte	3
 440 0002 53       		.byte	83
 441 0003 00       		.byte	0
ARM GAS  /tmp/ccivEqpo.s 			page 9


 442 0004 54       		.byte	84
 443 0005 00       		.byte	0
 444 0006 4D       		.byte	77
 445 0007 00       		.byte	0
 446 0008 69       		.byte	105
 447 0009 00       		.byte	0
 448 000a 63       		.byte	99
 449 000b 00       		.byte	0
 450 000c 72       		.byte	114
 451 000d 00       		.byte	0
 452 000e 6F       		.byte	111
 453 000f 00       		.byte	0
 454 0010 65       		.byte	101
 455 0011 00       		.byte	0
 456 0012 6C       		.byte	108
 457 0013 00       		.byte	0
 458 0014 65       		.byte	101
 459 0015 00       		.byte	0
 460 0016 63       		.byte	99
 461 0017 00       		.byte	0
 462 0018 74       		.byte	116
 463 0019 00       		.byte	0
 464 001a 72       		.byte	114
 465 001b 00       		.byte	0
 466 001c 6F       		.byte	111
 467 001d 00       		.byte	0
 468 001e 6E       		.byte	110
 469 001f 00       		.byte	0
 470 0020 69       		.byte	105
 471 0021 00       		.byte	0
 472 0022 63       		.byte	99
 473 0023 00       		.byte	0
 474 0024 73       		.byte	115
 475 0025 00       		.byte	0
 476              		.section	.rodata.vcom_string2,"a",%progbits
 477              		.align	2
 478              		.type	vcom_string2, %object
 479              		.size	vcom_string2, 56
 480              	vcom_string2:
 481 0000 38       		.byte	56
 482 0001 03       		.byte	3
 483 0002 43       		.byte	67
 484 0003 00       		.byte	0
 485 0004 68       		.byte	104
 486 0005 00       		.byte	0
 487 0006 69       		.byte	105
 488 0007 00       		.byte	0
 489 0008 62       		.byte	98
 490 0009 00       		.byte	0
 491 000a 69       		.byte	105
 492 000b 00       		.byte	0
 493 000c 4F       		.byte	79
 494 000d 00       		.byte	0
 495 000e 53       		.byte	83
 496 000f 00       		.byte	0
 497 0010 2F       		.byte	47
 498 0011 00       		.byte	0
ARM GAS  /tmp/ccivEqpo.s 			page 10


 499 0012 52       		.byte	82
 500 0013 00       		.byte	0
 501 0014 54       		.byte	84
 502 0015 00       		.byte	0
 503 0016 20       		.byte	32
 504 0017 00       		.byte	0
 505 0018 56       		.byte	86
 506 0019 00       		.byte	0
 507 001a 69       		.byte	105
 508 001b 00       		.byte	0
 509 001c 72       		.byte	114
 510 001d 00       		.byte	0
 511 001e 74       		.byte	116
 512 001f 00       		.byte	0
 513 0020 75       		.byte	117
 514 0021 00       		.byte	0
 515 0022 61       		.byte	97
 516 0023 00       		.byte	0
 517 0024 6C       		.byte	108
 518 0025 00       		.byte	0
 519 0026 20       		.byte	32
 520 0027 00       		.byte	0
 521 0028 43       		.byte	67
 522 0029 00       		.byte	0
 523 002a 4F       		.byte	79
 524 002b 00       		.byte	0
 525 002c 4D       		.byte	77
 526 002d 00       		.byte	0
 527 002e 20       		.byte	32
 528 002f 00       		.byte	0
 529 0030 50       		.byte	80
 530 0031 00       		.byte	0
 531 0032 6F       		.byte	111
 532 0033 00       		.byte	0
 533 0034 72       		.byte	114
 534 0035 00       		.byte	0
 535 0036 74       		.byte	116
 536 0037 00       		.byte	0
 537              		.section	.rodata.vcom_string3,"a",%progbits
 538              		.align	2
 539              		.type	vcom_string3, %object
 540              		.size	vcom_string3, 8
 541              	vcom_string3:
 542 0000 08       		.byte	8
 543 0001 03       		.byte	3
 544 0002 32       		.byte	50
 545 0003 00       		.byte	0
 546 0004 36       		.byte	54
 547 0005 00       		.byte	0
 548 0006 35       		.byte	53
 549 0007 00       		.byte	0
 550              		.section	.rodata.vcom_strings,"a",%progbits
 551              		.align	2
 552              		.set	.LANCHOR2,. + 0
 553              		.type	vcom_strings, %object
 554              		.size	vcom_strings, 32
 555              	vcom_strings:
ARM GAS  /tmp/ccivEqpo.s 			page 11


 556 0000 04000000 		.word	4
 557 0004 00000000 		.word	vcom_string0
 558 0008 26000000 		.word	38
 559 000c 00000000 		.word	vcom_string1
 560 0010 38000000 		.word	56
 561 0014 00000000 		.word	vcom_string2
 562 0018 08000000 		.word	8
 563 001c 00000000 		.word	vcom_string3
 564              		.section	.rodata.serusbcfg,"a",%progbits
 565              		.align	2
 566              		.set	.LANCHOR6,. + 0
 567              		.type	serusbcfg, %object
 568              		.size	serusbcfg, 8
 569              	serusbcfg:
 570 0000 00000000 		.word	USBD1
 571 0004 01       		.byte	1
 572 0005 01       		.byte	1
 573 0006 02       		.byte	2
 574 0007 00       		.space	1
 575              		.section	.rodata.vcom_device_descriptor,"a",%progbits
 576              		.align	2
 577              		.set	.LANCHOR0,. + 0
 578              		.type	vcom_device_descriptor, %object
 579              		.size	vcom_device_descriptor, 8
 580              	vcom_device_descriptor:
 581 0000 12000000 		.word	18
 582 0004 00000000 		.word	vcom_device_descriptor_data
 583              		.text
 584              	.Letext0:
 585              		.file 2 "/usr/include/newlib/machine/_default_types.h"
 586              		.file 3 "/usr/lib/gcc/arm-none-eabi/4.9.3/include/stddef.h"
 587              		.file 4 "/usr/include/newlib/sys/_stdint.h"
 588              		.file 5 "../../ChibiOS_2.6.5/os/ports/GCC/ARMCMx/chtypes.h"
 589              		.file 6 "../../ChibiOS_2.6.5/os/kernel/include/chlists.h"
 590              		.file 7 "../../ChibiOS_2.6.5/os/kernel/include/chthreads.h"
 591              		.file 8 "../../ChibiOS_2.6.5/os/ports/GCC/ARMCMx/chcore_v7m.h"
 592              		.file 9 "../../ChibiOS_2.6.5/os/kernel/include/chmtx.h"
 593              		.file 10 "../../ChibiOS_2.6.5/os/kernel/include/chevents.h"
 594              		.file 11 "../../ChibiOS_2.6.5/os/kernel/include/chqueues.h"
 595              		.file 12 "../../ChibiOS_2.6.5/os/hal/include/usb.h"
 596              		.file 13 "../../ChibiOS_2.6.5/os/hal/platforms/STM32/OTGv1/usb_lld.h"
 597              		.file 14 "../../ChibiOS_2.6.5/os/hal/platforms/STM32/OTGv1/stm32_otg.h"
 598              		.file 15 "../../ChibiOS_2.6.5/os/hal/include/serial_usb.h"
 599              		.file 16 "./USB/usbdescriptor.h"
 600              		.file 17 "../../ChibiOS_2.6.5/os/ports/common/ARMCMx/CMSIS/include/core_cm4.h"
 601              		.file 18 "../../ChibiOS_2.6.5/os/kernel/include/chdebug.h"